
========================================================================

** ELF Header Information

    File Name: weight.elf

    Machine class: ELFCLASS32 (32-bit)
    Data encoding: ELFDATA2LSB (Little endian)
    Header version: EV_CURRENT (Current version)
    Operating System ABI: none
    ABI Version: 0
    File Type: ET_EXEC (Executable) (2)
    Machine: EM_ARM (ARM)

    Image Entry point: 0x00000000
    Flags: EF_ARM_HASENTRY (0x05000002)

    ARM ELF revision: 5 (ABI version 2)

    Built with
    ARM C/C++ Compiler, RVCT4.0 [Build 400]
    ARM Assembler, RVCT4.0 [Build 400]
    ARM Linker, RVCT4.0 [Build 400] 

    Header size: 52 bytes (0x34)
    Program header entry size: 32 bytes (0x20)
    Section header entry size: 40 bytes (0x28)

    Program header entries: 1
    Section header entries: 11

    Program header offset: 44568 (0x0000ae18)
    Section header offset: 44600 (0x0000ae38)

    Section header string table index: 10

========================================================================

** Program header #0 (PT_LOAD) [PF_X + PF_W + PF_R + PF_ARM_ENTRY]
    Size : 16724 bytes (12820 bytes in file)
    Virtual address: 0x00000000 (Alignment 4)


========================================================================

** Section #1 'ITCM' (SHT_PROGBITS) [SHF_ALLOC + SHF_EXECINSTR]
    Size   : 12548 bytes (alignment 4)
    Address: 0x00000000

    $a
    _alib_reset
    Image$$ITCM$$RO$$Base
    cpu_reset
        0x00000000:    e59ff018    ....    LDR      pc,reset_vec ; [0x20] = 0x78
    undef
        0x00000004:    e59ff018    ....    LDR      pc,undef_vec ; [0x24] = 0xd4
        0x00000008:    e59ff018    ....    LDR      pc,svc_vec ; [0x28] = 0xdc
        0x0000000c:    e59ff018    ....    LDR      pc,pabt_vec ; [0x2c] = 0xe4
        0x00000010:    e59ff018    ....    LDR      pc,dabt_vec ; [0x30] = 0xec
        0x00000014:    ebfffffa    ....    BL       undef ; 0x4
        0x00000018:    e51ffff0    ....    LDR      pc,[pc,#-4080] ; [0xfffff030]
        0x0000001c:    e59ff018    ....    LDR      pc,fiq_vec ; [0x3c] = 0xfc
    $d
    reset_vec
        0x00000020:    00000078    x...    DCD    120
    undef_vec
        0x00000024:    000000d4    ....    DCD    212
    svc_vec
        0x00000028:    000000dc    ....    DCD    220
    pabt_vec
        0x0000002c:    000000e4    ....    DCD    228
    dabt_vec
        0x00000030:    000000ec    ....    DCD    236
    aplx_proc
        0x00000034:    00001071    q...    DCD    4209
    irq_vec
        0x00000038:    000000f4    ....    DCD    244
    fiq_vec
        0x0000003c:    000000fc    ....    DCD    252
    svc_stack
        0x00000040:    0060        `.      DCW    96
    irq_stack
        0x00000042:    0040        @.      DCW    64
    fiq_stack
        0x00000044:    0040        @.      DCW    64
    sys_stack
        0x00000046:    0120         .      DCW    288
    code_top
        0x00000048:    00003104    .1..    DCD    12548
    heap_base
        0x0000004c:    00400850    P.@.    DCD    4196432
    stack_top
        0x00000050:    00410000    ..A.    DCD    4259840
    stack_size
        0x00000054:    0800        ..      DCW    2048
    num_msgs
        0x00000056:    04          .       DCB    4
    sark_slot
        0x00000057:    0f          .       DCB    15
    num_events
        0x00000058:    10          .       DCB    16
    app_id
        0x00000059:    00          .       DCB    0
    __PAD1
        0x0000005a:    0000        ..      DCW    0
    stack_fill
        0x0000005c:    deaddead    ....    DCD    3735936685
    event_vec
        0x00000060:    00000000    ....    DCD    0
        0x00000064:    00000000    ....    DCD    0
        0x00000068:    00000000    ....    DCD    0
        0x0000006c:    00000000    ....    DCD    0
        0x00000070:    00000000    ....    DCD    0
        0x00000074:    00000000    ....    DCD    0
    $a
    reset_entry
        0x00000078:    e24f1060    `.O.    ADR      r1,{pc}-0x58 ; 0x20
        0x0000007c:    e5c10039    9...    STRB     r0,[r1,#0x39]
        0x00000080:    e28f0044    D...    ADR      r0,{pc}+0x4c ; 0xcc
        0x00000084:    e5810000    ....    STR      r0,[r1,#0]
        0x00000088:    e59f00f0    ....    LDR      r0,[pc,#240] ; [0x180] = 0x1f7e
        0x0000008c:    ee010f10    ....    MCR      p15,#0x0,r0,c1,c0,#0
        0x00000090:    e321f0d3    ..!.    MSR      CPSR_c,#0xd3
        0x00000094:    e3a0d902    ....    MOV      sp,#0x8000
        0x00000098:    fa000891    ....    BLX      sark_config ; 0x22e4
        0x0000009c:    e51fd054    T...    LDR      sp,stack_top ; [0x50] = 0x410000
        0x000000a0:    e15f25b4    .%_.    LDRH     r2,stack_size ; [0x54] = 0x800
        0x000000a4:    e51f1050    P...    LDR      r1,stack_fill ; [0x5c] = 0xdeaddead
        0x000000a8:    e04d0002    ..M.    SUB      r0,sp,r2
        0x000000ac:    eb000470    p...    BL       sark_word_set ; 0x1274
        0x000000b0:    e1a0000d    ....    MOV      r0,sp
        0x000000b4:    fa000892    ....    BLX      sark_init ; 0x2304
        0x000000b8:    e121f000    ..!.    MSR      CPSR_c,r0
        0x000000bc:    fa000979    y...    BLX      sark_pre_main ; 0x26a8
        0x000000c0:    eb000121    !...    BL       c_main ; 0x54c
        0x000000c4:    fa00096d    m...    BLX      sark_post_main ; 0x2680
        0x000000c8:    eb00002a    *...    BL       cpu_sleep ; 0x178
    reset_error
        0x000000cc:    e3a00001    ....    MOV      r0,#1
        0x000000d0:    ea000014    ....    B        rt_error ; 0x128
    undef_error
        0x000000d4:    e3a0b002    ....    MOV      r11,#2
        0x000000d8:    ea00000c    ....    B        exc_error ; 0x110
    svc_error
        0x000000dc:    e3a0b003    ....    MOV      r11,#3
        0x000000e0:    ea00000a    ....    B        exc_error ; 0x110
    pabt_error
        0x000000e4:    e3a0b004    ....    MOV      r11,#4
        0x000000e8:    ea000008    ....    B        exc_error ; 0x110
    dabt_error
        0x000000ec:    e3a0b005    ....    MOV      r11,#5
        0x000000f0:    ea000006    ....    B        exc_error ; 0x110
    irq_error
        0x000000f4:    e3a0b006    ....    MOV      r11,#6
        0x000000f8:    ea000004    ....    B        exc_error ; 0x110
    fiq_error
        0x000000fc:    e3a0b007    ....    MOV      r11,#7
        0x00000100:    ea000002    ....    B        exc_error ; 0x110
    vic_error
        0x00000104:    e3a0b008    ....    MOV      r11,#8
        0x00000108:    e3a0042f    /...    MOV      r0,#0x2f000000
        0x0000010c:    e5900030    0...    LDR      r0,[r0,#0x30]
    exc_error
        0x00000110:    e1a0a00e    ....    MOV      r10,lr
        0x00000114:    e14f8000    ..O.    MRS      r8,SPSR
        0x00000118:    e38890c0    ....    ORR      r9,r8,#0xc0
        0x0000011c:    e3c99020     ...    BIC      r9,r9,#0x20
        0x00000120:    e12ff009    ../.    MSR      CPSR_cxsf,r9
        0x00000124:    ea000002    ....    B        cc_error ; 0x134
    rt_error
        0x00000128:    e1a0b000    ....    MOV      r11,r0
        0x0000012c:    e10f8000    ....    MRS      r8,APSR ; formerly CPSR
        0x00000130:    e1a0a00e    ....    MOV      r10,lr
    cc_error
        0x00000134:    e59fc048    H...    LDR      r12,[pc,#72] ; [0x184] = 0x4001f8
        0x00000138:    e59cc000    ....    LDR      r12,[r12,#0]
        0x0000013c:    e3a09080    ....    MOV      r9,#0x80
        0x00000140:    e59fe040    @...    LDR      lr,[pc,#64] ; [0x188] = 0xe5007000
        0x00000144:    e02ee99c    ....    MLA      lr,r12,r9,lr
        0x00000148:    e1a0900d    ....    MOV      r9,sp
        0x0000014c:    e88e07ff    ....    STM      lr,{r0-r10}
        0x00000150:    e5ceb02c    ,...    STRB     r11,[lr,#0x2c]
        0x00000154:    e3a08002    ....    MOV      r8,#2
        0x00000158:    e5ce802e    ....    STRB     r8,[lr,#0x2e]
        0x0000015c:    e1a0000b    ....    MOV      r0,r11
        0x00000160:    e321f0d3    ..!.    MSR      CPSR_c,#0xd3
        0x00000164:    fa0007c3    ....    BLX      rte_handler ; 0x2078
    cpu_shutdown
        0x00000168:    e321f0d3    ..!.    MSR      CPSR_c,#0xd3
        0x0000016c:    e3a0042f    /...    MOV      r0,#0x2f000000
        0x00000170:    e3e01000    ....    MVN      r1,#0
        0x00000174:    e5801014    ....    STR      r1,[r0,#0x14]
    cpu_sleep
        0x00000178:    ee070f90    ....    MCR      p15,#0x0,r0,c7,c0,#4
        0x0000017c:    eafffffd    ....    B        cpu_sleep ; 0x178
    $d
        0x00000180:    00001f7e    ~...    DCD    8062
        0x00000184:    004001f8    ..@.    DCD    4194808
        0x00000188:    e5007000    .p..    DCD    3842011136
    $a
    .text
    init
        0x0000018c:    e92d41f0    .A-.    PUSH     {r4-r8,lr}
        0x00000190:    e3a02024    $ ..    MOV      r2,#0x24
        0x00000194:    e3a01206    ....    MOV      r1,#0x60000000
        0x00000198:    e59f0254    T...    LDR      r0,[pc,#596] ; [0x3f4] = 0x400110
        0x0000019c:    fb000a6b    k...    BLX      spin1_memcpy ; 0x2b52
        0x000001a0:    e59f024c    L...    LDR      r0,[pc,#588] ; [0x3f4] = 0x400110
        0x000001a4:    e59f524c    LR..    LDR      r5,[pc,#588] ; [0x3f8] = 0x400000
        0x000001a8:    e590101c    ....    LDR      r1,[r0,#0x1c]
        0x000001ac:    e3a02070    p ..    MOV      r2,#0x70
        0x000001b0:    e2800024    $...    ADD      r0,r0,#0x24
        0x000001b4:    e5851034    4...    STR      r1,[r5,#0x34]
        0x000001b8:    fb000a64    d...    BLX      spin1_memcpy ; 0x2b52
        0x000001bc:    e59f8238    8...    LDR      r8,[pc,#568] ; [0x3fc] = 0x400134
        0x000001c0:    e598001c    ....    LDR      r0,[r8,#0x1c]
        0x000001c4:    e5850030    0...    STR      r0,[r5,#0x30]
        0x000001c8:    e595100c    ....    LDR      r1,[r5,#0xc]
        0x000001cc:    e0880101    ....    ADD      r0,r8,r1,LSL #2
        0x000001d0:    e5900020     ...    LDR      r0,[r0,#0x20]
        0x000001d4:    e5850038    8...    STR      r0,[r5,#0x38]
        0x000001d8:    e5980064    d...    LDR      r0,[r8,#0x64]
        0x000001dc:    e5850040    @...    STR      r0,[r5,#0x40]
        0x000001e0:    e5980068    h...    LDR      r0,[r8,#0x68]
        0x000001e4:    e5850044    D...    STR      r0,[r5,#0x44]
        0x000001e8:    e598206c    l ..    LDR      r2,[r8,#0x6c]
        0x000001ec:    e5852048    H ..    STR      r2,[r5,#0x48]
        0x000001f0:    e3a02c3a    :,..    MOV      r2,#0x3a00
        0x000001f4:    e5852010    . ..    STR      r2,[r5,#0x10]
        0x000001f8:    e3a02000    . ..    MOV      r2,#0
        0x000001fc:    e5852018    . ..    STR      r2,[r5,#0x18]
        0x00000200:    e585201c    . ..    STR      r2,[r5,#0x1c]
        0x00000204:    e5852020      ..    STR      r2,[r5,#0x20]
        0x00000208:    e5c52000    . ..    STRB     r2,[r5,#0]
        0x0000020c:    e5902004    . ..    LDR      r2,[r0,#4]
        0x00000210:    e5852024    $ ..    STR      r2,[r5,#0x24]
        0x00000214:    e5900008    ....    LDR      r0,[r0,#8]
        0x00000218:    e5850028    (...    STR      r0,[r5,#0x28]
        0x0000021c:    e7d80001    ....    LDRB     r0,[r8,r1]
        0x00000220:    e5850014    ....    STR      r0,[r5,#0x14]
        0x00000224:    e3500000    ..P.    CMP      r0,#0
        0x00000228:    13a00005    ....    MOVNE    r0,#5
        0x0000022c:    18bd81f0    ....    POPNE    {r4-r8,pc}
        0x00000230:    e3a00000    ....    MOV      r0,#0
        0x00000234:    e28f1f71    q...    ADR      r1,{pc}+0x1cc ; 0x400
        0x00000238:    fa00064d    M...    BLX      io_printf ; 0x1b74
        0x0000023c:    e59f01c4    ....    LDR      r0,[pc,#452] ; [0x408] = 0x4001a4
        0x00000240:    e5951038    8...    LDR      r1,[r5,#0x38]
        0x00000244:    e3a0202c    , ..    MOV      r2,#0x2c
        0x00000248:    fb000a40    @...    BLX      spin1_memcpy ; 0x2b52
        0x0000024c:    eb00010a    ....    BL       w_init ; 0x67c
        0x00000250:    e1a07000    .p..    MOV      r7,r0
        0x00000254:    e59f01b0    ....    LDR      r0,[pc,#432] ; [0x40c] = 0x4000b1
        0x00000258:    e5d00000    ....    LDRB     r0,[r0,#0]
        0x0000025c:    e3500000    ..P.    CMP      r0,#0
        0x00000260:    0a00001e    ....    BEQ      0x2e0 ; init + 340
        0x00000264:    e3570000    ..W.    CMP      r7,#0
        0x00000268:    1a00001c    ....    BNE      0x2e0 ; init + 340
        0x0000026c:    e5980060    `...    LDR      r0,[r8,#0x60]
        0x00000270:    e5982014    . ..    LDR      r2,[r8,#0x14]
        0x00000274:    e5903000    .0..    LDR      r3,[r0,#0]
        0x00000278:    e1530002    ..S.    CMP      r3,r2
        0x0000027c:    128f1f63    c...    ADRNE    r1,{pc}+0x194 ; 0x410
        0x00000280:    13a00000    ....    MOVNE    r0,#0
        0x00000284:    1b000638    8...    BLNE     $Ven$AT$I$$io_printf ; 0x1b6c
        0x00000288:    e5980060    `...    LDR      r0,[r8,#0x60]
        0x0000028c:    e3a01000    ....    MOV      r1,#0
        0x00000290:    e2800004    ....    ADD      r0,r0,#4
        0x00000294:    e585003c    <...    STR      r0,[r5,#0x3c]
        0x00000298:    e5980014    ....    LDR      r0,[r8,#0x14]
        0x0000029c:    fa000778    x...    BLX      rtr_alloc ; 0x2084
        0x000002a0:    e1b06000    .`..    MOVS     r6,r0
        0x000002a4:    03a00009    ....    MOVEQ    r0,#9
        0x000002a8:    0bffff9e    ....    BLEQ     rt_error ; 0x128
        0x000002ac:    e3a04000    .@..    MOV      r4,#0
        0x000002b0:    ea000007    ....    B        0x2d4 ; init + 328
        0x000002b4:    e595c03c    <...    LDR      r12,[r5,#0x3c]
        0x000002b8:    e0841084    ....    ADD      r1,r4,r4,LSL #1
        0x000002bc:    e08c0101    ....    ADD      r0,r12,r1,LSL #2
        0x000002c0:    e990000c    ....    LDMIB    r0,{r2,r3}
        0x000002c4:    e0860004    ....    ADD      r0,r6,r4
        0x000002c8:    e79c1101    ....    LDR      r1,[r12,r1,LSL #2]
        0x000002cc:    fa00078f    ....    BLX      rtr_mc_set ; 0x2110
        0x000002d0:    e2844001    .@..    ADD      r4,r4,#1
        0x000002d4:    e5980014    ....    LDR      r0,[r8,#0x14]
        0x000002d8:    e1500004    ..P.    CMP      r0,r4
        0x000002dc:    8afffff4    ....    BHI      0x2b4 ; init + 296
        0x000002e0:    e1a00007    ....    MOV      r0,r7
        0x000002e4:    e8bd81f0    ....    POP      {r4-r8,pc}
    done
        0x000002e8:    e92d407c    |@-.    PUSH     {r2-r6,lr}
        0x000002ec:    e1a04000    .@..    MOV      r4,r0
        0x000002f0:    e59f5100    .Q..    LDR      r5,[pc,#256] ; [0x3f8] = 0x400000
        0x000002f4:    e5950004    ....    LDR      r0,[r5,#4]
        0x000002f8:    e5951008    ....    LDR      r1,[r5,#8]
        0x000002fc:    e1a00900    ....    LSL      r0,r0,#18
        0x00000300:    e1800801    ....    ORR      r0,r0,r1,LSL #16
        0x00000304:    fa0009fc    ....    BLX      spin1_delay_us ; 0x2afc
        0x00000308:    e3540003    ..T.    CMP      r4,#3
        0x0000030c:    0a00001d    ....    BEQ      0x388 ; done + 160
        0x00000310:    ca00000c    ....    BGT      0x348 ; done + 96
        0x00000314:    e3540000    ..T.    CMP      r4,#0
        0x00000318:    028f1f4b    K...    ADREQ    r1,{pc}+0x134 ; 0x44c
        0x0000031c:    03a00000    ....    MOVEQ    r0,#0
        0x00000320:    0a000016    ....    BEQ      0x380 ; done + 152
        0x00000324:    e3540001    ..T.    CMP      r4,#1
        0x00000328:    0a00000f    ....    BEQ      0x36c ; done + 132
        0x0000032c:    e3540002    ..T.    CMP      r4,#2
        0x00000330:    1a000013    ....    BNE      0x384 ; done + 156
        0x00000334:    e28f1e12    ....    ADR      r1,{pc}+0x128 ; 0x45c
        0x00000338:    e3a00000    ....    MOV      r0,#0
        0x0000033c:    fa00060c    ....    BLX      io_printf ; 0x1b74
        0x00000340:    e28f1f45    E...    ADR      r1,{pc}+0x11c ; 0x45c
        0x00000344:    ea00000c    ....    B        0x37c ; done + 148
        0x00000348:    e3540005    ..T.    CMP      r4,#5
        0x0000034c:    0a000019    ....    BEQ      0x3b8 ; done + 208
        0x00000350:    e3540064    d.T.    CMP      r4,#0x64
        0x00000354:    1a00000a    ....    BNE      0x384 ; done + 156
        0x00000358:    e28f1e11    ....    ADR      r1,{pc}+0x118 ; 0x470
        0x0000035c:    e3a00000    ....    MOV      r0,#0
        0x00000360:    fa000603    ....    BLX      io_printf ; 0x1b74
        0x00000364:    e28f1f41    A...    ADR      r1,{pc}+0x10c ; 0x470
        0x00000368:    ea000003    ....    B        0x37c ; done + 148
        0x0000036c:    e28f1e11    ....    ADR      r1,{pc}+0x118 ; 0x484
        0x00000370:    e3a00000    ....    MOV      r0,#0
        0x00000374:    fa0005fe    ....    BLX      io_printf ; 0x1b74
        0x00000378:    e28f1f41    A...    ADR      r1,{pc}+0x10c ; 0x484
        0x0000037c:    e3a00002    ....    MOV      r0,#2
        0x00000380:    fa0005fb    ....    BLX      io_printf ; 0x1b74
        0x00000384:    e8bd807c    |...    POP      {r2-r6,pc}
        0x00000388:    e28f1f41    A...    ADR      r1,{pc}+0x10c ; 0x494
        0x0000038c:    e3a00000    ....    MOV      r0,#0
        0x00000390:    fa0005f7    ....    BLX      io_printf ; 0x1b74
        0x00000394:    e595302c    ,0..    LDR      r3,[r5,#0x2c]
        0x00000398:    e5d52000    . ..    LDRB     r2,[r5,#0]
        0x0000039c:    e1cd20f0    . ..    STRD     r2,r3,[sp,#0]
        0x000003a0:    e5952018    . ..    LDR      r2,[r5,#0x18]
        0x000003a4:    e595301c    .0..    LDR      r3,[r5,#0x1c]
        0x000003a8:    e28f1e11    ....    ADR      r1,{pc}+0x118 ; 0x4c0
        0x000003ac:    e3a00002    ....    MOV      r0,#2
        0x000003b0:    fa0005ef    ....    BLX      io_printf ; 0x1b74
        0x000003b4:    e8bd807c    |...    POP      {r2-r6,pc}
        0x000003b8:    e5953014    .0..    LDR      r3,[r5,#0x14]
        0x000003bc:    e3530005    ..S.    CMP      r3,#5
        0x000003c0:    308ff103    ...0    ADDCC    pc,pc,r3,LSL #2
        0x000003c4:    ea000055    U...    B        0x520 ; done + 568
        0x000003c8:    ea000003    ....    B        0x3dc ; done + 244
        0x000003cc:    ea000005    ....    B        0x3e8 ; done + 256
        0x000003d0:    ea00004a    J...    B        0x500 ; done + 536
        0x000003d4:    ea000046    F...    B        0x4f4 ; done + 524
        0x000003d8:    ea00004b    K...    B        0x50c ; done + 548
        0x000003dc:    e59f1108    ....    LDR      r1,[pc,#264] ; [0x4ec] = 0x2f24
        0x000003e0:    e3a02057    W ..    MOV      r2,#0x57
        0x000003e4:    ea00004a    J...    B        0x514 ; done + 556
        0x000003e8:    e59f1100    ....    LDR      r1,[pc,#256] ; [0x4f0] = 0x2f68
        0x000003ec:    e3a02057    W ..    MOV      r2,#0x57
        0x000003f0:    ea000047    G...    B        0x514 ; done + 556
    $d
        0x000003f4:    00400110    ..@.    DCD    4194576
        0x000003f8:    00400000    ..@.    DCD    4194304
        0x000003fc:    00400134    4.@.    DCD    4194612
        0x00000400:    67696577    weig    DCD    1734960503
        0x00000404:    000a7468    ht..    DCD    685160
        0x00000408:    004001a4    ..@.    DCD    4194724
        0x0000040c:    004000b1    ..@.    DCD    4194481
        0x00000410:    6e726157    Warn    DCD    1852989783
        0x00000414:    3a676e69    ing:    DCD    979857001
        0x00000418:    756f7220     rou    DCD    1970237984
        0x0000041c:    676e6974    ting    DCD    1735289204
        0x00000420:    62617420     tab    DCD    1650553888
        0x00000424:    7320656c    le s    DCD    1931502956
        0x00000428:    20657a69    ize     DCD    543521385
        0x0000042c:    6d73696d    mism    DCD    1836280173
        0x00000430:    68637461    atch    DCD    1751348321
        0x00000434:    63202d20     - c    DCD    1663053088
        0x00000438:    3a676663    cfg:    DCD    979854947
        0x0000043c:    2c642520     %d,    DCD    744760608
        0x00000440:    3a747220     rt:    DCD    980709920
        0x00000444:    0a642520     %d.    DCD    174335264
        0x00000448:    00000000    ....    DCD    0
        0x0000044c:    756d6973    simu    DCD    1970104691
        0x00000450:    6974616c    lati    DCD    1769234796
        0x00000454:    4f206e6f    on O    DCD    1327525487
        0x00000458:    00000a4b    K...    DCD    2635
        0x0000045c:    6b636170    pack    DCD    1801675120
        0x00000460:    71207465    et q    DCD    1897952357
        0x00000464:    65756575    ueue    DCD    1702192501
        0x00000468:    6c756620     ful    DCD    1819633184
        0x0000046c:    00000a6c    l...    DCD    2668
        0x00000470:    6e6b6e75    unkn    DCD    1852534389
        0x00000474:    206e776f    own     DCD    544110447
        0x00000478:    65726f63    core    DCD    1701998435
        0x0000047c:    70797420     typ    DCD    1887007776
        0x00000480:    00000a65    e...    DCD    2661
        0x00000484:    6c6c616d    mall    DCD    1819042157
        0x00000488:    6620636f    oc f    DCD    1713398639
        0x0000048c:    656c6961    aile    DCD    1701603681
        0x00000490:    00000a64    d...    DCD    2660
        0x00000494:    656d6974    time    DCD    1701669236
        0x00000498:    2074756f    out     DCD    544503151
        0x0000049c:    6573202d    - se    DCD    1702043693
        0x000004a0:    2f492065    e I/    DCD    793321573
        0x000004a4:    7562204f    O bu    DCD    1969365071
        0x000004a8:    72656666    ffer    DCD    1919247974
        0x000004ac:    726f6620     for    DCD    1919903264
        0x000004b0:    676f6c20     log    DCD    1735355424
        0x000004b4:    61202d20     - a    DCD    1629498656
        0x000004b8:    74726f62    bort    DCD    1953656674
        0x000004bc:    00000a21    !...    DCD    2593
        0x000004c0:    656d6974    time    DCD    1701669236
        0x000004c4:    2074756f    out     DCD    544503151
        0x000004c8:    203a6828    (h:     DCD    540698664
        0x000004cc:    65207525    %u e    DCD    1696625957
        0x000004d0:    2075253a    :%u     DCD    544548154
        0x000004d4:    75253a70    p:%u    DCD    1965374064
        0x000004d8:    253a7420     t:%    DCD    624587808
        0x000004dc:    2d202975    u) -    DCD    757082485
        0x000004e0:    6f626120     abo    DCD    1868718368
        0x000004e4:    0a217472    rt!.    DCD    169964658
        0x000004e8:    00000000    ....    DCD    0
        0x000004ec:    00002f24    $/..    DCD    12068
        0x000004f0:    00002f68    h/..    DCD    12136
    $a
        0x000004f4:    e59f110c    ....    LDR      r1,[pc,#268] ; [0x608] = 0x2fac
        0x000004f8:    e3a02057    W ..    MOV      r2,#0x57
        0x000004fc:    ea000004    ....    B        0x514 ; done + 556
        0x00000500:    e59f1104    ....    LDR      r1,[pc,#260] ; [0x60c] = 0x2ff0
        0x00000504:    e3a02057    W ..    MOV      r2,#0x57
        0x00000508:    ea000001    ....    B        0x514 ; done + 556
        0x0000050c:    e59f10fc    ....    LDR      r1,[pc,#252] ; [0x610] = 0x3034
        0x00000510:    e3a02057    W ..    MOV      r2,#0x57
        0x00000514:    e3a00000    ....    MOV      r0,#0
        0x00000518:    fa000595    ....    BLX      io_printf ; 0x1b74
        0x0000051c:    e8bd807c    |...    POP      {r2-r6,pc}
        0x00000520:    e59f10ec    ....    LDR      r1,[pc,#236] ; [0x614] = 0x3084
        0x00000524:    e3a02057    W ..    MOV      r2,#0x57
        0x00000528:    e3a00000    ....    MOV      r0,#0
        0x0000052c:    fa000590    ....    BLX      io_printf ; 0x1b74
        0x00000530:    e8bd807c    |...    POP      {r2-r6,pc}
    timeout
        0x00000534:    e51f1148    H...    LDR      r1,[pc,#-328] ; [0x3f4] = 0x400110
        0x00000538:    e5911018    ....    LDR      r1,[r1,#0x18]
        0x0000053c:    e1510000    ..Q.    CMP      r1,r0
        0x00000540:    112fff1e    ../.    BXNE     lr
        0x00000544:    e3a00003    ....    MOV      r0,#3
        0x00000548:    ea000973    s...    B        $Ven$AT$I$$spin1_kill ; 0x2b1c
    c_main
        0x0000054c:    e28f10c4    ....    ADR      r1,{pc}+0xcc ; 0x618
        0x00000550:    e3a00000    ....    MOV      r0,#0
        0x00000554:    e92d4010    .@-.    PUSH     {r4,lr}
        0x00000558:    fa000585    ....    BLX      io_printf ; 0x1b74
        0x0000055c:    fa000968    h...    BLX      spin1_get_chip_id ; 0x2b04
        0x00000560:    e51f4170    pA..    LDR      r4,[pc,#-368] ; [0x3f8] = 0x400000
        0x00000564:    e5840004    ....    STR      r0,[r4,#4]
        0x00000568:    fa000968    h...    BLX      spin1_get_core_id ; 0x2b10
        0x0000056c:    e5840008    ....    STR      r0,[r4,#8]
        0x00000570:    e2400001    ..@.    SUB      r0,r0,#1
        0x00000574:    e584000c    ....    STR      r0,[r4,#0xc]
        0x00000578:    ebffff03    ....    BL       init ; 0x18c
        0x0000057c:    e3500000    ..P.    CMP      r0,#0
        0x00000580:    18bd4010    .@..    POPNE    {r4,lr}
        0x00000584:    1affff57    W...    BNE      done ; 0x2e8
        0x00000588:    e51f019c    ....    LDR      r0,[pc,#-412] ; [0x3f4] = 0x400110
        0x0000058c:    e5941030    0...    LDR      r1,[r4,#0x30]
        0x00000590:    e5900014    ....    LDR      r0,[r0,#0x14]
        0x00000594:    fa0009d1    ....    BLX      spin1_set_core_map ; 0x2ce0
        0x00000598:    e59f0080    ....    LDR      r0,[pc,#128] ; [0x620] = 0xf4240
        0x0000059c:    fa0009f2    ....    BLX      spin1_set_timer_tick ; 0x2d6c
        0x000005a0:    e3a02000    . ..    MOV      r2,#0
        0x000005a4:    e24f1078    x.O.    ADR      r1,{pc}-0x70 ; 0x534
        0x000005a8:    e3a00002    ....    MOV      r0,#2
        0x000005ac:    fa000932    2...    BLX      spin1_callback_on ; 0x2a7c
        0x000005b0:    e59f106c    l...    LDR      r1,[pc,#108] ; [0x624] = 0xa04
        0x000005b4:    e3e02000    . ..    MVN      r2,#0
        0x000005b8:    e3a00000    ....    MOV      r0,#0
        0x000005bc:    fa00092e    ....    BLX      spin1_callback_on ; 0x2a7c
        0x000005c0:    e28f1060    `...    ADR      r1,{pc}+0x68 ; 0x628
        0x000005c4:    e3a00000    ....    MOV      r0,#0
        0x000005c8:    fa000569    i...    BLX      io_printf ; 0x1b74
        0x000005cc:    e28f1070    p...    ADR      r1,{pc}+0x78 ; 0x644
        0x000005d0:    e3a00000    ....    MOV      r0,#0
        0x000005d4:    fa000566    f...    BLX      io_printf ; 0x1b74
        0x000005d8:    fa0009e6    ....    BLX      spin1_start ; 0x2d78
        0x000005dc:    ebffff41    A...    BL       done ; 0x2e8
        0x000005e0:    e28f1074    t...    ADR      r1,{pc}+0x7c ; 0x65c
        0x000005e4:    e3a00000    ....    MOV      r0,#0
        0x000005e8:    fa000561    a...    BLX      io_printf ; 0x1b74
        0x000005ec:    e28f1034    4...    ADR      r1,{pc}+0x3c ; 0x628
        0x000005f0:    e3a00000    ....    MOV      r0,#0
        0x000005f4:    fa00055e    ^...    BLX      io_printf ; 0x1b74
        0x000005f8:    e8bd4010    .@..    POP      {r4,lr}
        0x000005fc:    e28f1070    p...    ADR      r1,{pc}+0x78 ; 0x674
        0x00000600:    e3a00000    ....    MOV      r0,#0
        0x00000604:    ea000558    X...    B        $Ven$AT$I$$io_printf ; 0x1b6c
    $d
        0x00000608:    00002fac    ./..    DCD    12204
        0x0000060c:    00002ff0    ./..    DCD    12272
        0x00000610:    00003034    40..    DCD    12340
        0x00000614:    00003084    .0..    DCD    12420
        0x00000618:    6d203e3e    >> m    DCD    1830829630
        0x0000061c:    000a706c    lp..    DCD    684140
        0x00000620:    000f4240    @B..    DCD    1000000
        0x00000624:    00000a04    ....    DCD    2564
        0x00000628:    2d2d2d2d    ----    DCD    757935405
        0x0000062c:    2d2d2d2d    ----    DCD    757935405
        0x00000630:    2d2d2d2d    ----    DCD    757935405
        0x00000634:    2d2d2d2d    ----    DCD    757935405
        0x00000638:    2d2d2d2d    ----    DCD    757935405
        0x0000063c:    0a2d2d2d    ---.    DCD    170732845
        0x00000640:    00000000    ....    DCD    0
        0x00000644:    72617473    star    DCD    1918989427
        0x00000648:    676e6974    ting    DCD    1735289204
        0x0000064c:    6d697320     sim    DCD    1835627296
        0x00000650:    74616c75    ulat    DCD    1952541813
        0x00000654:    0a6e6f69    ion.    DCD    175009641
        0x00000658:    00000000    ....    DCD    0
        0x0000065c:    706f7473    stop    DCD    1886352499
        0x00000660:    676e6970    ping    DCD    1735289200
        0x00000664:    6d697320     sim    DCD    1835627296
        0x00000668:    74616c75    ulat    DCD    1952541813
        0x0000066c:    0a6e6f69    ion.    DCD    175009641
        0x00000670:    00000000    ....    DCD    0
        0x00000674:    6d203c3c    << m    DCD    1830829116
        0x00000678:    000a706c    lp..    DCD    684140
    $a
    .text
    w_init
        0x0000067c:    e92d41f0    .A-.    PUSH     {r4-r8,lr}
        0x00000680:    e59f5224    $R..    LDR      r5,[pc,#548] ; [0x8ac] = 0x4001a4
        0x00000684:    e5950014    ....    LDR      r0,[r5,#0x14]
        0x00000688:    e1a00100    ....    LSL      r0,r0,#2
        0x0000068c:    fa00092d    -...    BLX      spin1_malloc ; 0x2b48
        0x00000690:    e59f7218    .r..    LDR      r7,[pc,#536] ; [0x8b0] = 0x400060
        0x00000694:    e3500000    ..P.    CMP      r0,#0
        0x00000698:    e5870000    ....    STR      r0,[r7,#0]
        0x0000069c:    0a00003c    <...    BEQ      0x794 ; w_init + 280
        0x000006a0:    e3a04000    .@..    MOV      r4,#0
        0x000006a4:    ea000007    ....    B        0x6c8 ; w_init + 76
        0x000006a8:    e5950018    ....    LDR      r0,[r5,#0x18]
        0x000006ac:    e1a00080    ....    LSL      r0,r0,#1
        0x000006b0:    fa000924    $...    BLX      spin1_malloc ; 0x2b48
        0x000006b4:    e5971000    ....    LDR      r1,[r7,#0]
        0x000006b8:    e3500000    ..P.    CMP      r0,#0
        0x000006bc:    e7810104    ....    STR      r0,[r1,r4,LSL #2]
        0x000006c0:    0a000033    3...    BEQ      0x794 ; w_init + 280
        0x000006c4:    e2844001    .@..    ADD      r4,r4,#1
        0x000006c8:    e5950014    ....    LDR      r0,[r5,#0x14]
        0x000006cc:    e1500004    ..P.    CMP      r0,r4
        0x000006d0:    8afffff4    ....    BHI      0x6a8 ; w_init + 44
        0x000006d4:    e1a00100    ....    LSL      r0,r0,#2
        0x000006d8:    fa00091a    ....    BLX      spin1_malloc ; 0x2b48
        0x000006dc:    e59f61d0    .a..    LDR      r6,[pc,#464] ; [0x8b4] = 0x400064
        0x000006e0:    e3500000    ..P.    CMP      r0,#0
        0x000006e4:    e5860000    ....    STR      r0,[r6,#0]
        0x000006e8:    0a000029    )...    BEQ      0x794 ; w_init + 280
        0x000006ec:    e3a04000    .@..    MOV      r4,#0
        0x000006f0:    ea000007    ....    B        0x714 ; w_init + 152
        0x000006f4:    e5950018    ....    LDR      r0,[r5,#0x18]
        0x000006f8:    e1a00100    ....    LSL      r0,r0,#2
        0x000006fc:    fa000911    ....    BLX      spin1_malloc ; 0x2b48
        0x00000700:    e5961000    ....    LDR      r1,[r6,#0]
        0x00000704:    e3500000    ..P.    CMP      r0,#0
        0x00000708:    e7810104    ....    STR      r0,[r1,r4,LSL #2]
        0x0000070c:    0a000020     ...    BEQ      0x794 ; w_init + 280
        0x00000710:    e2844001    .@..    ADD      r4,r4,#1
        0x00000714:    e5950014    ....    LDR      r0,[r5,#0x14]
        0x00000718:    e1500004    ..P.    CMP      r0,r4
        0x0000071c:    8afffff4    ....    BHI      0x6f4 ; w_init + 120
        0x00000720:    e1a00080    ....    LSL      r0,r0,#1
        0x00000724:    fa000907    ....    BLX      spin1_malloc ; 0x2b48
        0x00000728:    e59f4188    .A..    LDR      r4,[pc,#392] ; [0x8b8] = 0x400068
        0x0000072c:    e3500000    ..P.    CMP      r0,#0
        0x00000730:    e5840000    ....    STR      r0,[r4,#0]
        0x00000734:    0a000016    ....    BEQ      0x794 ; w_init + 280
        0x00000738:    e5950014    ....    LDR      r0,[r5,#0x14]
        0x0000073c:    e1a00080    ....    LSL      r0,r0,#1
        0x00000740:    fa000900    ....    BLX      spin1_malloc ; 0x2b48
        0x00000744:    e3500000    ..P.    CMP      r0,#0
        0x00000748:    e5840004    ....    STR      r0,[r4,#4]
        0x0000074c:    0a000010    ....    BEQ      0x794 ; w_init + 280
        0x00000750:    e5950018    ....    LDR      r0,[r5,#0x18]
        0x00000754:    e1a00100    ....    LSL      r0,r0,#2
        0x00000758:    fa0008fa    ....    BLX      spin1_malloc ; 0x2b48
        0x0000075c:    e59f4158    XA..    LDR      r4,[pc,#344] ; [0x8bc] = 0x400070
        0x00000760:    e3500000    ..P.    CMP      r0,#0
        0x00000764:    e5840000    ....    STR      r0,[r4,#0]
        0x00000768:    0a000009    ....    BEQ      0x794 ; w_init + 280
        0x0000076c:    e5950018    ....    LDR      r0,[r5,#0x18]
        0x00000770:    e1a00100    ....    LSL      r0,r0,#2
        0x00000774:    fa0008f3    ....    BLX      spin1_malloc ; 0x2b48
        0x00000778:    e3500000    ..P.    CMP      r0,#0
        0x0000077c:    e5840004    ....    STR      r0,[r4,#4]
        0x00000780:    159f8138    8...    LDRNE    r8,[pc,#312] ; [0x8c0] = 0x40005c
        0x00000784:    15950028    (...    LDRNE    r0,[r5,#0x28]
        0x00000788:    13a04000    .@..    MOVNE    r4,#0
        0x0000078c:    15880000    ....    STRNE    r0,[r8,#0]
        0x00000790:    1a00000a    ....    BNE      0x7c0 ; w_init + 324
        0x00000794:    e3a00001    ....    MOV      r0,#1
        0x00000798:    e8bd81f0    ....    POP      {r4-r8,pc}
        0x0000079c:    e5950018    ....    LDR      r0,[r5,#0x18]
        0x000007a0:    e5981000    ....    LDR      r1,[r8,#0]
        0x000007a4:    e1a02080    . ..    LSL      r2,r0,#1
        0x000007a8:    e0000094    ....    MUL      r0,r4,r0
        0x000007ac:    e0811080    ....    ADD      r1,r1,r0,LSL #1
        0x000007b0:    e5970000    ....    LDR      r0,[r7,#0]
        0x000007b4:    e7900104    ....    LDR      r0,[r0,r4,LSL #2]
        0x000007b8:    fb0008e4    ....    BLX      spin1_memcpy ; 0x2b52
        0x000007bc:    e2844001    .@..    ADD      r4,r4,#1
        0x000007c0:    e5950014    ....    LDR      r0,[r5,#0x14]
        0x000007c4:    e1500004    ..P.    CMP      r0,r4
        0x000007c8:    8afffff3    ....    BHI      0x79c ; w_init + 288
        0x000007cc:    e3a01000    ....    MOV      r1,#0
        0x000007d0:    e1a02001    . ..    MOV      r2,r1
        0x000007d4:    ea000008    ....    B        0x7fc ; w_init + 384
        0x000007d8:    e3a00000    ....    MOV      r0,#0
        0x000007dc:    e5953018    .0..    LDR      r3,[r5,#0x18]
        0x000007e0:    e1530000    ..S.    CMP      r3,r0
        0x000007e4:    85963000    .0..    LDRHI    r3,[r6,#0]
        0x000007e8:    87933101    .1..    LDRHI    r3,[r3,r1,LSL #2]
        0x000007ec:    87832100    .!..    STRHI    r2,[r3,r0,LSL #2]
        0x000007f0:    82800001    ....    ADDHI    r0,r0,#1
        0x000007f4:    8afffff8    ....    BHI      0x7dc ; w_init + 352
        0x000007f8:    e2811001    ....    ADD      r1,r1,#1
        0x000007fc:    e5950014    ....    LDR      r0,[r5,#0x14]
        0x00000800:    e1500001    ..P.    CMP      r0,r1
        0x00000804:    8afffff3    ....    BHI      0x7d8 ; w_init + 348
        0x00000808:    e59f00b4    ....    LDR      r0,[pc,#180] ; [0x8c4] = 0x40002c
        0x0000080c:    e59f10b8    ....    LDR      r1,[pc,#184] ; [0x8cc] = 0x40007c
        0x00000810:    e5802000    . ..    STR      r2,[r0,#0]
        0x00000814:    e59f00ac    ....    LDR      r0,[pc,#172] ; [0x8c8] = 0x400078
        0x00000818:    e5802000    . ..    STR      r2,[r0,#0]
        0x0000081c:    e3a00001    ....    MOV      r0,#1
        0x00000820:    e5810000    ....    STR      r0,[r1,#0]
        0x00000824:    e59f10a4    ....    LDR      r1,[pc,#164] ; [0x8d0] = 0x40008c
        0x00000828:    e5812000    . ..    STR      r2,[r1,#0]
        0x0000082c:    e59f10a0    ....    LDR      r1,[pc,#160] ; [0x8d4] = 0x400090
        0x00000830:    e5810000    ....    STR      r0,[r1,#0]
        0x00000834:    e59f109c    ....    LDR      r1,[pc,#156] ; [0x8d8] = 0x400098
        0x00000838:    e5c12000    . ..    STRB     r2,[r1,#0]
        0x0000083c:    e59f1098    ....    LDR      r1,[pc,#152] ; [0x8dc] = 0x400099
        0x00000840:    e5c10000    ....    STRB     r0,[r1,#0]
        0x00000844:    e59f0094    ....    LDR      r0,[pc,#148] ; [0x8e0] = 0x400084
        0x00000848:    e5802000    . ..    STR      r2,[r0,#0]
        0x0000084c:    e59f0090    ....    LDR      r0,[pc,#144] ; [0x8e4] = 0x400080
        0x00000850:    e5802000    . ..    STR      r2,[r0,#0]
        0x00000854:    e59f008c    ....    LDR      r0,[pc,#140] ; [0x8e8] = 0x400094
        0x00000858:    e5802000    . ..    STR      r2,[r0,#0]
        0x0000085c:    e595000c    ....    LDR      r0,[r5,#0xc]
        0x00000860:    e5951010    ....    LDR      r1,[r5,#0x10]
        0x00000864:    e1a00c00    ....    LSL      r0,r0,#24
        0x00000868:    e1800801    ....    ORR      r0,r0,r1,LSL #16
        0x0000086c:    e59f1078    x...    LDR      r1,[pc,#120] ; [0x8ec] = 0x400014
        0x00000870:    e59f2078    x ..    LDR      r2,[pc,#120] ; [0x8f0] = 0x40004c
        0x00000874:    e5911000    ....    LDR      r1,[r1,#0]
        0x00000878:    e1801401    ....    ORR      r1,r0,r1,LSL #8
        0x0000087c:    e5821000    ....    STR      r1,[r2,#0]
        0x00000880:    e59f206c    l ..    LDR      r2,[pc,#108] ; [0x8f4] = 0x400050
        0x00000884:    e3811b02    ....    ORR      r1,r1,#0x800
        0x00000888:    e5821000    ....    STR      r1,[r2,#0]
        0x0000088c:    e59f2064    d ..    LDR      r2,[pc,#100] ; [0x8f8] = 0x400088
        0x00000890:    e3801a01    ....    ORR      r1,r0,#0x1000
        0x00000894:    e5821000    ....    STR      r1,[r2,#0]
        0x00000898:    e59f105c    \...    LDR      r1,[pc,#92] ; [0x8fc] = 0x40009c
        0x0000089c:    e3800b06    ....    ORR      r0,r0,#0x1800
        0x000008a0:    e5810000    ....    STR      r0,[r1,#0]
        0x000008a4:    e3a00000    ....    MOV      r0,#0
        0x000008a8:    e8bd81f0    ....    POP      {r4-r8,pc}
    $d
        0x000008ac:    004001a4    ..@.    DCD    4194724
        0x000008b0:    00400060    `.@.    DCD    4194400
        0x000008b4:    00400064    d.@.    DCD    4194404
        0x000008b8:    00400068    h.@.    DCD    4194408
        0x000008bc:    00400070    p.@.    DCD    4194416
        0x000008c0:    0040005c    \.@.    DCD    4194396
        0x000008c4:    0040002c    ,.@.    DCD    4194348
        0x000008c8:    00400078    x.@.    DCD    4194424
        0x000008cc:    0040007c    |.@.    DCD    4194428
        0x000008d0:    0040008c    ..@.    DCD    4194444
        0x000008d4:    00400090    ..@.    DCD    4194448
        0x000008d8:    00400098    ..@.    DCD    4194456
        0x000008dc:    00400099    ..@.    DCD    4194457
        0x000008e0:    00400084    ..@.    DCD    4194436
        0x000008e4:    00400080    ..@.    DCD    4194432
        0x000008e8:    00400094    ..@.    DCD    4194452
        0x000008ec:    00400014    ..@.    DCD    4194324
        0x000008f0:    0040004c    L.@.    DCD    4194380
        0x000008f4:    00400050    P.@.    DCD    4194384
        0x000008f8:    00400088    ..@.    DCD    4194440
        0x000008fc:    0040009c    ..@.    DCD    4194460
    $a
    .text
    w_backpropPacket
        0x00000900:    e59f215c    \!..    LDR      r2,[pc,#348] ; [0xa64] = 0x400090
        0x00000904:    e59f3154    T1..    LDR      r3,[pc,#340] ; [0xa60] = 0x400070
        0x00000908:    e592c000    ....    LDR      r12,[r2,#0]
        0x0000090c:    e20000ff    ....    AND      r0,r0,#0xff
        0x00000910:    e793310c    .1..    LDR      r3,[r3,r12,LSL #2]
        0x00000914:    e7831100    ....    STR      r1,[r3,r0,LSL #2]
        0x00000918:    e59f1148    H...    LDR      r1,[pc,#328] ; [0xa68] = 0x400094
        0x0000091c:    e59f3148    H1..    LDR      r3,[pc,#328] ; [0xa6c] = 0x4001a4
        0x00000920:    e5910000    ....    LDR      r0,[r1,#0]
        0x00000924:    e2800001    ....    ADD      r0,r0,#1
        0x00000928:    e5810000    ....    STR      r0,[r1,#0]
        0x0000092c:    e5933020     0..    LDR      r3,[r3,#0x20]
        0x00000930:    e1530000    ..S.    CMP      r3,r0
        0x00000934:    112fff1e    ../.    BXNE     lr
        0x00000938:    e3a00000    ....    MOV      r0,#0
        0x0000093c:    e5810000    ....    STR      r0,[r1,#0]
        0x00000940:    e5921000    ....    LDR      r1,[r2,#0]
        0x00000944:    e2611001    ..a.    RSB      r1,r1,#1
        0x00000948:    e5821000    ....    STR      r1,[r2,#0]
        0x0000094c:    e59f111c    ....    LDR      r1,[pc,#284] ; [0xa70] = 0x400099
        0x00000950:    e5d12000    . ..    LDRB     r2,[r1,#0]
        0x00000954:    e3520000    ..R.    CMP      r2,#0
        0x00000958:    059f1114    ....    LDREQ    r1,[pc,#276] ; [0xa74] = 0x400098
        0x0000095c:    03a00001    ....    MOVEQ    r0,#1
        0x00000960:    05c10000    ....    STRBEQ   r0,[r1,#0]
        0x00000964:    012fff1e    ../.    BXEQ     lr
        0x00000968:    e5c10000    ....    STRB     r0,[r1,#0]
        0x0000096c:    e3a02000    . ..    MOV      r2,#0
        0x00000970:    e59f0100    ....    LDR      r0,[pc,#256] ; [0xa78] = 0xec4
        0x00000974:    e3a03001    .0..    MOV      r3,#1
        0x00000978:    e1a01002    ....    MOV      r1,r2
        0x0000097c:    ea000878    x...    B        $Ven$AT$I$$spin1_schedule_callback ; 0x2b64
    w_forwardPacket
        0x00000980:    e59f20f8    . ..    LDR      r2,[pc,#248] ; [0xa80] = 0x40007c
        0x00000984:    e59f30f0    .0..    LDR      r3,[pc,#240] ; [0xa7c] = 0x400068
        0x00000988:    e592c000    ....    LDR      r12,[r2,#0]
        0x0000098c:    e20000ff    ....    AND      r0,r0,#0xff
        0x00000990:    e793310c    .1..    LDR      r3,[r3,r12,LSL #2]
        0x00000994:    e0830080    ....    ADD      r0,r3,r0,LSL #1
        0x00000998:    e1c010b0    ....    STRH     r1,[r0,#0]
        0x0000099c:    e59f10e0    ....    LDR      r1,[pc,#224] ; [0xa84] = 0x400080
        0x000009a0:    e59f30c4    .0..    LDR      r3,[pc,#196] ; [0xa6c] = 0x4001a4
        0x000009a4:    e5910000    ....    LDR      r0,[r1,#0]
        0x000009a8:    e2800001    ....    ADD      r0,r0,#1
        0x000009ac:    e5810000    ....    STR      r0,[r1,#0]
        0x000009b0:    e593301c    .0..    LDR      r3,[r3,#0x1c]
        0x000009b4:    e1530000    ..S.    CMP      r3,r0
        0x000009b8:    112fff1e    ../.    BXNE     lr
        0x000009bc:    e3a00000    ....    MOV      r0,#0
        0x000009c0:    e5810000    ....    STR      r0,[r1,#0]
        0x000009c4:    e5920000    ....    LDR      r0,[r2,#0]
        0x000009c8:    e59f10b8    ....    LDR      r1,[pc,#184] ; [0xa88] = 0x400084
        0x000009cc:    e2600001    ..`.    RSB      r0,r0,#1
        0x000009d0:    e5820000    ....    STR      r0,[r2,#0]
        0x000009d4:    e5910000    ....    LDR      r0,[r1,#0]
        0x000009d8:    e3500000    ..P.    CMP      r0,#0
        0x000009dc:    12400001    ..@.    SUBNE    r0,r0,#1
        0x000009e0:    15810000    ....    STRNE    r0,[r1,#0]
        0x000009e4:    112fff1e    ../.    BXNE     lr
        0x000009e8:    e3a00002    ....    MOV      r0,#2
        0x000009ec:    e5810000    ....    STR      r0,[r1,#0]
        0x000009f0:    e3a02000    . ..    MOV      r2,#0
        0x000009f4:    e59f0090    ....    LDR      r0,[pc,#144] ; [0xa8c] = 0xcd4
        0x000009f8:    e3a03001    .0..    MOV      r3,#1
        0x000009fc:    e1a01002    ....    MOV      r1,r2
        0x00000a00:    ea000857    W...    B        $Ven$AT$I$$spin1_schedule_callback ; 0x2b64
    w_receivePacket
        0x00000a04:    e2002b02    .+..    AND      r2,r0,#0x800
        0x00000a08:    e3a03c3a    :<..    MOV      r3,#0x3a00
        0x00000a0c:    e1d33000    .0..    BICS     r3,r3,r0
        0x00000a10:    e1a025a2    .%..    LSR      r2,r2,#11
        0x00000a14:    1a00000e    ....    BNE      0xa54 ; w_receivePacket + 80
        0x00000a18:    e59f1070    p...    LDR      r1,[pc,#112] ; [0xa90] = 0x400058
        0x00000a1c:    e5c10000    ....    STRB     r0,[r1,#0]
        0x00000a20:    e59f1060    `...    LDR      r1,[pc,#96] ; [0xa88] = 0x400084
        0x00000a24:    e5910000    ....    LDR      r0,[r1,#0]
        0x00000a28:    e3500000    ..P.    CMP      r0,#0
        0x00000a2c:    12400001    ..@.    SUBNE    r0,r0,#1
        0x00000a30:    15810000    ....    STRNE    r0,[r1,#0]
        0x00000a34:    112fff1e    ../.    BXNE     lr
        0x00000a38:    e3a00002    ....    MOV      r0,#2
        0x00000a3c:    e5810000    ....    STR      r0,[r1,#0]
        0x00000a40:    e3a02000    . ..    MOV      r2,#0
        0x00000a44:    e59f0040    @...    LDR      r0,[pc,#64] ; [0xa8c] = 0xcd4
        0x00000a48:    e3a03001    .0..    MOV      r3,#1
        0x00000a4c:    e1a01002    ....    MOV      r1,r2
        0x00000a50:    ea000843    C...    B        $Ven$AT$I$$spin1_schedule_callback ; 0x2b64
        0x00000a54:    e3520000    ..R.    CMP      r2,#0
        0x00000a58:    1affffa8    ....    BNE      w_backpropPacket ; 0x900
        0x00000a5c:    0affffc7    ....    BEQ      w_forwardPacket ; 0x980
    $d
        0x00000a60:    00400070    p.@.    DCD    4194416
        0x00000a64:    00400090    ..@.    DCD    4194448
        0x00000a68:    00400094    ..@.    DCD    4194452
        0x00000a6c:    004001a4    ..@.    DCD    4194724
        0x00000a70:    00400099    ..@.    DCD    4194457
        0x00000a74:    00400098    ..@.    DCD    4194456
        0x00000a78:    00000ec4    ....    DCD    3780
        0x00000a7c:    00400068    h.@.    DCD    4194408
        0x00000a80:    0040007c    |.@.    DCD    4194428
        0x00000a84:    00400080    ..@.    DCD    4194432
        0x00000a88:    00400084    ..@.    DCD    4194436
        0x00000a8c:    00000cd4    ....    DCD    3284
        0x00000a90:    00400058    X.@.    DCD    4194392
    $a
    .text
    w_update_weights
        0x00000a94:    e92d4010    .@-.    PUSH     {r4,lr}
        0x00000a98:    e59f456c    lE..    LDR      r4,[pc,#1388] ; [0x100c] = 0x400060
        0x00000a9c:    e59fe56c    l...    LDR      lr,[pc,#1388] ; [0x1010] = 0x4001a4
        0x00000aa0:    e3a03000    .0..    MOV      r3,#0
        0x00000aa4:    ea000021    !...    B        0xb30 ; w_update_weights + 156
        0x00000aa8:    e3a01000    ....    MOV      r1,#0
        0x00000aac:    ea00001b    ....    B        0xb20 ; w_update_weights + 140
        0x00000ab0:    e5940000    ....    LDR      r0,[r4,#0]
        0x00000ab4:    e7900101    ....    LDR      r0,[r0,r1,LSL #2]
        0x00000ab8:    e0800083    ....    ADD      r0,r0,r3,LSL #1
        0x00000abc:    e1d0c0f0    ....    LDRSH    r12,[r0,#0]
        0x00000ac0:    e35c0000    ..\.    CMP      r12,#0
        0x00000ac4:    0a000014    ....    BEQ      0xb1c ; w_update_weights + 136
        0x00000ac8:    e59f2544    D%..    LDR      r2,[pc,#1348] ; [0x1014] = 0x400064
        0x00000acc:    e5922000    . ..    LDR      r2,[r2,#0]
        0x00000ad0:    e7922101    .!..    LDR      r2,[r2,r1,LSL #2]
        0x00000ad4:    e7922103    .!..    LDR      r2,[r2,r3,LSL #2]
        0x00000ad8:    e082200c    . ..    ADD      r2,r2,r12
        0x00000adc:    e1a02802    .(..    LSL      r2,r2,#16
        0x00000ae0:    e1a02842    B(..    ASR      r2,r2,#16
        0x00000ae4:    e3520a07    ..R.    CMP      r2,#0x7000
        0x00000ae8:    a3a02a07    .*..    MOVGE    r2,#0x7000
        0x00000aec:    aa000002    ....    BGE      0xafc ; w_update_weights + 104
        0x00000af0:    e3720a07    ..r.    CMN      r2,#0x7000
        0x00000af4:    ca000002    ....    BGT      0xb04 ; w_update_weights + 112
        0x00000af8:    e3a02a09    .*..    MOV      r2,#0x9000
        0x00000afc:    e1c020b0    . ..    STRH     r2,[r0,#0]
        0x00000b00:    ea000005    ....    B        0xb1c ; w_update_weights + 136
        0x00000b04:    e3520000    ..R.    CMP      r2,#0
        0x00000b08:    1afffffb    ....    BNE      0xafc ; w_update_weights + 104
        0x00000b0c:    e35c0000    ..\.    CMP      r12,#0
        0x00000b10:    d3e02000    . ..    MVNLE    r2,#0
        0x00000b14:    c3a02001    . ..    MOVGT    r2,#1
        0x00000b18:    eafffff7    ....    B        0xafc ; w_update_weights + 104
        0x00000b1c:    e2811001    ....    ADD      r1,r1,#1
        0x00000b20:    e59e0014    ....    LDR      r0,[lr,#0x14]
        0x00000b24:    e1500001    ..P.    CMP      r0,r1
        0x00000b28:    8affffe0    ....    BHI      0xab0 ; w_update_weights + 28
        0x00000b2c:    e2833001    .0..    ADD      r3,r3,#1
        0x00000b30:    e59e0018    ....    LDR      r0,[lr,#0x18]
        0x00000b34:    e1500003    ..P.    CMP      r0,r3
        0x00000b38:    8affffda    ....    BHI      0xaa8 ; w_update_weights + 20
        0x00000b3c:    e8bd8010    ....    POP      {r4,pc}
    w_advance_example
        0x00000b40:    e92d4070    p@-.    PUSH     {r4-r6,lr}
        0x00000b44:    e3a04000    .@..    MOV      r4,#0
        0x00000b48:    e59f54c8    .T..    LDR      r5,[pc,#1224] ; [0x1018] = 0x40001c
        0x00000b4c:    e59f64c8    .d..    LDR      r6,[pc,#1224] ; [0x101c] = 0x400110
        0x00000b50:    e5950000    ....    LDR      r0,[r5,#0]
        0x00000b54:    e2800001    ....    ADD      r0,r0,#1
        0x00000b58:    e5850000    ....    STR      r0,[r5,#0]
        0x00000b5c:    e5961008    ....    LDR      r1,[r6,#8]
        0x00000b60:    e1500001    ..P.    CMP      r0,r1
        0x00000b64:    3a00001e    ...:    BCC      0xbe4 ; w_advance_example + 164
        0x00000b68:    e5d60001    ....    LDRB     r0,[r6,#1]
        0x00000b6c:    e3500000    ..P.    CMP      r0,#0
        0x00000b70:    1bffffc7    ....    BLNE     w_update_weights ; 0xa94
        0x00000b74:    e59f14a4    ....    LDR      r1,[pc,#1188] ; [0x1020] = 0x400018
        0x00000b78:    e5910000    ....    LDR      r0,[r1,#0]
        0x00000b7c:    e2800001    ....    ADD      r0,r0,#1
        0x00000b80:    e5810000    ....    STR      r0,[r1,#0]
        0x00000b84:    e5961004    ....    LDR      r1,[r6,#4]
        0x00000b88:    e1500001    ..P.    CMP      r0,r1
        0x00000b8c:    28bd4070    p@.(    POPCS    {r4-r6,lr}
        0x00000b90:    2a0008a9    ...*    BCS      $Ven$AT$I$$spin1_stop ; 0x2e3c
        0x00000b94:    e5854000    .@..    STR      r4,[r5,#0]
        0x00000b98:    e5d60001    ....    LDRB     r0,[r6,#1]
        0x00000b9c:    e3500000    ..P.    CMP      r0,#0
        0x00000ba0:    0a00000f    ....    BEQ      0xbe4 ; w_advance_example + 164
        0x00000ba4:    e59f3464    d4..    LDR      r3,[pc,#1124] ; [0x1010] = 0x4001a4
        0x00000ba8:    e59f2464    d$..    LDR      r2,[pc,#1124] ; [0x1014] = 0x400064
        0x00000bac:    e3a01000    ....    MOV      r1,#0
        0x00000bb0:    ea000008    ....    B        0xbd8 ; w_advance_example + 152
        0x00000bb4:    e3a00000    ....    MOV      r0,#0
        0x00000bb8:    e593c018    ....    LDR      r12,[r3,#0x18]
        0x00000bbc:    e15c0000    ..\.    CMP      r12,r0
        0x00000bc0:    8592c000    ....    LDRHI    r12,[r2,#0]
        0x00000bc4:    879cc101    ....    LDRHI    r12,[r12,r1,LSL #2]
        0x00000bc8:    878c4100    .A..    STRHI    r4,[r12,r0,LSL #2]
        0x00000bcc:    82800001    ....    ADDHI    r0,r0,#1
        0x00000bd0:    8afffff8    ....    BHI      0xbb8 ; w_advance_example + 120
        0x00000bd4:    e2811001    ....    ADD      r1,r1,#1
        0x00000bd8:    e5930014    ....    LDR      r0,[r3,#0x14]
        0x00000bdc:    e1500001    ..P.    CMP      r0,r1
        0x00000be0:    8afffff3    ....    BHI      0xbb4 ; w_advance_example + 116
        0x00000be4:    e59f0438    8...    LDR      r0,[pc,#1080] ; [0x1024] = 0x400020
        0x00000be8:    e5804000    .@..    STR      r4,[r0,#0]
        0x00000bec:    e59f0434    4...    LDR      r0,[pc,#1076] ; [0x1028] = 0x400044
        0x00000bf0:    e5951000    ....    LDR      r1,[r5,#0]
        0x00000bf4:    e5900000    ....    LDR      r0,[r0,#0]
        0x00000bf8:    e59f4430    0D..    LDR      r4,[pc,#1072] ; [0x1030] = 0x400088
        0x00000bfc:    e0800201    ....    ADD      r0,r0,r1,LSL #4
        0x00000c00:    e59f1424    $...    LDR      r1,[pc,#1060] ; [0x102c] = 0x400024
        0x00000c04:    e5900004    ....    LDR      r0,[r0,#4]
        0x00000c08:    e5810000    ....    STR      r0,[r1,#0]
        0x00000c0c:    e3a02000    . ..    MOV      r2,#0
        0x00000c10:    e5940000    ....    LDR      r0,[r4,#0]
        0x00000c14:    e1a01002    ....    MOV      r1,r2
        0x00000c18:    fa0007f0    ....    BLX      spin1_send_mc_packet ; 0x2be0
        0x00000c1c:    e3500000    ..P.    CMP      r0,#0
        0x00000c20:    0afffff9    ....    BEQ      0xc0c ; w_advance_example + 204
        0x00000c24:    e8bd8070    p...    POP      {r4-r6,pc}
    w_switch_to_bp
        0x00000c28:    e59f1404    ....    LDR      r1,[pc,#1028] ; [0x1034] = 0x400000
        0x00000c2c:    e3a00001    ....    MOV      r0,#1
        0x00000c30:    e5c10000    ....    STRB     r0,[r1,#0]
        0x00000c34:    e12fff1e    ../.    BX       lr
    wf_advance_event
        0x00000c38:    e59f13e4    ....    LDR      r1,[pc,#996] ; [0x1024] = 0x400020
        0x00000c3c:    e92d4070    p@-.    PUSH     {r4-r6,lr}
        0x00000c40:    e5910000    ....    LDR      r0,[r1,#0]
        0x00000c44:    e59f53ec    .S..    LDR      r5,[pc,#1004] ; [0x1038] = 0x40002c
        0x00000c48:    e2800001    ....    ADD      r0,r0,#1
        0x00000c4c:    e5810000    ....    STR      r0,[r1,#0]
        0x00000c50:    e59f13d4    ....    LDR      r1,[pc,#980] ; [0x102c] = 0x400024
        0x00000c54:    e5911000    ....    LDR      r1,[r1,#0]
        0x00000c58:    e1500001    ..P.    CMP      r0,r1
        0x00000c5c:    3a000013    ...:    BCC      0xcb0 ; wf_advance_event + 120
        0x00000c60:    eb00012f    /...    BL       cpu_int_disable ; 0x1124
        0x00000c64:    e59f13d0    ....    LDR      r1,[pc,#976] ; [0x103c] = 0x400084
        0x00000c68:    e3a04000    .@..    MOV      r4,#0
        0x00000c6c:    e5814000    .@..    STR      r4,[r1,#0]
        0x00000c70:    eb00012f    /...    BL       cpu_int_restore ; 0x1134
        0x00000c74:    e59f13c4    ....    LDR      r1,[pc,#964] ; [0x1040] = 0x400054
        0x00000c78:    e5950000    ....    LDR      r0,[r5,#0]
        0x00000c7c:    e5810000    ....    STR      r0,[r1,#0]
        0x00000c80:    e59f03bc    ....    LDR      r0,[pc,#956] ; [0x1044] = 0x400058
        0x00000c84:    e5c04000    .@..    STRB     r4,[r0,#0]
        0x00000c88:    e59f038c    ....    LDR      r0,[pc,#908] ; [0x101c] = 0x400110
        0x00000c8c:    e5854000    .@..    STR      r4,[r5,#0]
        0x00000c90:    e5d00001    ....    LDRB     r0,[r0,#1]
        0x00000c94:    e3500000    ..P.    CMP      r0,#0
        0x00000c98:    08bd4070    p@..    POPEQ    {r4-r6,lr}
        0x00000c9c:    0affffa7    ....    BEQ      w_advance_example ; 0xb40
        0x00000ca0:    e59f138c    ....    LDR      r1,[pc,#908] ; [0x1034] = 0x400000
        0x00000ca4:    e3a00001    ....    MOV      r0,#1
        0x00000ca8:    e5c10000    ....    STRB     r0,[r1,#0]
        0x00000cac:    e8bd8070    p...    POP      {r4-r6,pc}
        0x00000cb0:    e5950000    ....    LDR      r0,[r5,#0]
        0x00000cb4:    e3a02000    . ..    MOV      r2,#0
        0x00000cb8:    e2800001    ....    ADD      r0,r0,#1
        0x00000cbc:    e5850000    ....    STR      r0,[r5,#0]
        0x00000cc0:    e59f0380    ....    LDR      r0,[pc,#896] ; [0x1048] = 0xd18
        0x00000cc4:    e8bd4070    p@..    POP      {r4-r6,lr}
        0x00000cc8:    e3a03002    .0..    MOV      r3,#2
        0x00000ccc:    e1a01002    ....    MOV      r1,r2
        0x00000cd0:    ea0007a3    ....    B        $Ven$AT$I$$spin1_schedule_callback ; 0x2b64
    wf_advance_tick
        0x00000cd4:    e59f0370    p...    LDR      r0,[pc,#880] ; [0x104c] = 0x400078
        0x00000cd8:    e5901000    ....    LDR      r1,[r0,#0]
        0x00000cdc:    e2611001    ..a.    RSB      r1,r1,#1
        0x00000ce0:    e5801000    ....    STR      r1,[r0,#0]
        0x00000ce4:    e59f0358    X...    LDR      r0,[pc,#856] ; [0x1044] = 0x400058
        0x00000ce8:    e5d00000    ....    LDRB     r0,[r0,#0]
        0x00000cec:    e3500000    ..P.    CMP      r0,#0
        0x00000cf0:    1affffd0    ....    BNE      wf_advance_event ; 0xc38
        0x00000cf4:    e59f033c    <...    LDR      r0,[pc,#828] ; [0x1038] = 0x40002c
        0x00000cf8:    e3a02000    . ..    MOV      r2,#0
        0x00000cfc:    e5901000    ....    LDR      r1,[r0,#0]
        0x00000d00:    e3a03002    .0..    MOV      r3,#2
        0x00000d04:    e2811001    ....    ADD      r1,r1,#1
        0x00000d08:    e5801000    ....    STR      r1,[r0,#0]
        0x00000d0c:    e59f0334    4...    LDR      r0,[pc,#820] ; [0x1048] = 0xd18
        0x00000d10:    e1a01002    ....    MOV      r1,r2
        0x00000d14:    ea000792    ....    B        $Ven$AT$I$$spin1_schedule_callback ; 0x2b64
    wf_process
        0x00000d18:    e92d41f0    .A-.    PUSH     {r4-r8,lr}
        0x00000d1c:    e3a04000    .@..    MOV      r4,#0
        0x00000d20:    e59f6328    (c..    LDR      r6,[pc,#808] ; [0x1050] = 0x40004c
        0x00000d24:    e59f72e4    .r..    LDR      r7,[pc,#740] ; [0x1010] = 0x4001a4
        0x00000d28:    e5960000    ....    LDR      r0,[r6,#0]
        0x00000d2c:    e2200b01    .. .    EOR      r0,r0,#0x400
        0x00000d30:    e5860000    ....    STR      r0,[r6,#0]
        0x00000d34:    ea00001a    ....    B        0xda4 ; wf_process + 140
        0x00000d38:    e59f230c    .#..    LDR      r2,[pc,#780] ; [0x104c] = 0x400078
        0x00000d3c:    e59f32c8    .2..    LDR      r3,[pc,#712] ; [0x100c] = 0x400060
        0x00000d40:    e59f130c    ....    LDR      r1,[pc,#780] ; [0x1054] = 0x400068
        0x00000d44:    e5922000    . ..    LDR      r2,[r2,#0]
        0x00000d48:    e5933000    .0..    LDR      r3,[r3,#0]
        0x00000d4c:    e597c014    ....    LDR      r12,[r7,#0x14]
        0x00000d50:    e3a05000    .P..    MOV      r5,#0
        0x00000d54:    e1a00005    ....    MOV      r0,r5
        0x00000d58:    e15c0000    ..\.    CMP      r12,r0
        0x00000d5c:    9a000008    ....    BLS      0xd84 ; wf_process + 108
        0x00000d60:    e791e102    ....    LDR      lr,[r1,r2,LSL #2]
        0x00000d64:    e7938100    ....    LDR      r8,[r3,r0,LSL #2]
        0x00000d68:    e08ee080    ....    ADD      lr,lr,r0,LSL #1
        0x00000d6c:    e0888084    ....    ADD      r8,r8,r4,LSL #1
        0x00000d70:    e1dee0f0    ....    LDRSH    lr,[lr,#0]
        0x00000d74:    e1d880f0    ....    LDRSH    r8,[r8,#0]
        0x00000d78:    e2800001    ....    ADD      r0,r0,#1
        0x00000d7c:    e025589e    .X%.    MLA      r5,lr,r8,r5
        0x00000d80:    eafffff4    ....    B        0xd58 ; wf_process + 64
        0x00000d84:    e5960000    ....    LDR      r0,[r6,#0]
        0x00000d88:    e3a02001    . ..    MOV      r2,#1
        0x00000d8c:    e1800004    ....    ORR      r0,r0,r4
        0x00000d90:    e1a01005    ....    MOV      r1,r5
        0x00000d94:    fa000791    ....    BLX      spin1_send_mc_packet ; 0x2be0
        0x00000d98:    e3500000    ..P.    CMP      r0,#0
        0x00000d9c:    0afffff8    ....    BEQ      0xd84 ; wf_process + 108
        0x00000da0:    e2844001    .@..    ADD      r4,r4,#1
        0x00000da4:    e5970018    ....    LDR      r0,[r7,#0x18]
        0x00000da8:    e1500004    ..P.    CMP      r0,r4
        0x00000dac:    8affffe1    ....    BHI      0xd38 ; wf_process + 32
        0x00000db0:    eb0000db    ....    BL       cpu_int_disable ; 0x1124
        0x00000db4:    e59f2280    ."..    LDR      r2,[pc,#640] ; [0x103c] = 0x400084
        0x00000db8:    e5921000    ....    LDR      r1,[r2,#0]
        0x00000dbc:    e3510000    ..Q.    CMP      r1,#0
        0x00000dc0:    12411001    ..A.    SUBNE    r1,r1,#1
        0x00000dc4:    15821000    ....    STRNE    r1,[r2,#0]
        0x00000dc8:    18bd41f0    .A..    POPNE    {r4-r8,lr}
        0x00000dcc:    1a0000d8    ....    BNE      cpu_int_restore ; 0x1134
        0x00000dd0:    e59f126c    l...    LDR      r1,[pc,#620] ; [0x1044] = 0x400058
        0x00000dd4:    e5d11000    ....    LDRB     r1,[r1,#0]
        0x00000dd8:    e3510000    ..Q.    CMP      r1,#0
        0x00000ddc:    03a01002    ....    MOVEQ    r1,#2
        0x00000de0:    05821000    ....    STREQ    r1,[r2,#0]
        0x00000de4:    eb0000d2    ....    BL       cpu_int_restore ; 0x1134
        0x00000de8:    e8bd41f0    .A..    POP      {r4-r8,lr}
        0x00000dec:    e3a01000    ....    MOV      r1,#0
        0x00000df0:    e1a00001    ....    MOV      r0,r1
        0x00000df4:    eaffffb6    ....    B        wf_advance_tick ; 0xcd4
    w_switch_to_fw
        0x00000df8:    e59f1234    4...    LDR      r1,[pc,#564] ; [0x1034] = 0x400000
        0x00000dfc:    e3a00000    ....    MOV      r0,#0
        0x00000e00:    e5c10000    ....    STRB     r0,[r1,#0]
        0x00000e04:    e12fff1e    ../.    BX       lr
    w_weight_deltas
        0x00000e08:    e92d41f0    .A-.    PUSH     {r4-r8,lr}
        0x00000e0c:    e3a05000    .P..    MOV      r5,#0
        0x00000e10:    e59f81f8    ....    LDR      r8,[pc,#504] ; [0x1010] = 0x4001a4
        0x00000e14:    ea000026    &...    B        0xeb4 ; w_weight_deltas + 172
        0x00000e18:    e59f123c    <...    LDR      r1,[pc,#572] ; [0x105c] = 0x40008c
        0x00000e1c:    e59f0234    4...    LDR      r0,[pc,#564] ; [0x1058] = 0x400070
        0x00000e20:    e5911000    ....    LDR      r1,[r1,#0]
        0x00000e24:    e3a04000    .@..    MOV      r4,#0
        0x00000e28:    e7900101    ....    LDR      r0,[r0,r1,LSL #2]
        0x00000e2c:    e7900105    ....    LDR      r0,[r0,r5,LSL #2]
        0x00000e30:    e1d812f4    ....    LDRSH    r1,[r8,#0x24]
        0x00000e34:    e0070190    ....    MUL      r7,r0,r1
        0x00000e38:    ea000019    ....    B        0xea4 ; w_weight_deltas + 156
        0x00000e3c:    e59f01c8    ....    LDR      r0,[pc,#456] ; [0x100c] = 0x400060
        0x00000e40:    e5900000    ....    LDR      r0,[r0,#0]
        0x00000e44:    e7900104    ....    LDR      r0,[r0,r4,LSL #2]
        0x00000e48:    e0800085    ....    ADD      r0,r0,r5,LSL #1
        0x00000e4c:    e1d000b0    ....    LDRH     r0,[r0,#0]
        0x00000e50:    e3500000    ..P.    CMP      r0,#0
        0x00000e54:    0a000011    ....    BEQ      0xea0 ; w_weight_deltas + 152
        0x00000e58:    e59f11ec    ....    LDR      r1,[pc,#492] ; [0x104c] = 0x400078
        0x00000e5c:    e59f01f0    ....    LDR      r0,[pc,#496] ; [0x1054] = 0x400068
        0x00000e60:    e5911000    ....    LDR      r1,[r1,#0]
        0x00000e64:    e7900101    ....    LDR      r0,[r0,r1,LSL #2]
        0x00000e68:    e0800084    ....    ADD      r0,r0,r4,LSL #1
        0x00000e6c:    e1d000f0    ....    LDRSH    r0,[r0,#0]
        0x00000e70:    e0c01097    ....    SMULL    r1,r0,r7,r0
        0x00000e74:    e1a01f21    !...    LSR      r1,r1,#30
        0x00000e78:    e1812100    .!..    ORR      r2,r1,r0,LSL #2
        0x00000e7c:    e1a03f40    @?..    ASR      r3,r0,#30
        0x00000e80:    e59f018c    ....    LDR      r0,[pc,#396] ; [0x1014] = 0x400064
        0x00000e84:    e5900000    ....    LDR      r0,[r0,#0]
        0x00000e88:    e7906104    .a..    LDR      r6,[r0,r4,LSL #2]
        0x00000e8c:    e7960105    ....    LDR      r0,[r6,r5,LSL #2]
        0x00000e90:    e1a01fc0    ....    ASR      r1,r0,#31
        0x00000e94:    e0900002    ....    ADDS     r0,r0,r2
        0x00000e98:    e7860105    ....    STR      r0,[r6,r5,LSL #2]
        0x00000e9c:    e0a11003    ....    ADC      r1,r1,r3
        0x00000ea0:    e2844001    .@..    ADD      r4,r4,#1
        0x00000ea4:    e5980014    ....    LDR      r0,[r8,#0x14]
        0x00000ea8:    e1500004    ..P.    CMP      r0,r4
        0x00000eac:    8affffe2    ....    BHI      0xe3c ; w_weight_deltas + 52
        0x00000eb0:    e2855001    .P..    ADD      r5,r5,#1
        0x00000eb4:    e5980018    ....    LDR      r0,[r8,#0x18]
        0x00000eb8:    e1500005    ..P.    CMP      r0,r5
        0x00000ebc:    8affffd5    ....    BHI      0xe18 ; w_weight_deltas + 16
        0x00000ec0:    e8bd81f0    ....    POP      {r4-r8,pc}
    wb_advance_tick
        0x00000ec4:    e59f0190    ....    LDR      r0,[pc,#400] ; [0x105c] = 0x40008c
        0x00000ec8:    e92d4010    .@-.    PUSH     {r4,lr}
        0x00000ecc:    e5901000    ....    LDR      r1,[r0,#0]
        0x00000ed0:    e59f2168    h!..    LDR      r2,[pc,#360] ; [0x1040] = 0x400054
        0x00000ed4:    e2611001    ..a.    RSB      r1,r1,#1
        0x00000ed8:    e5801000    ....    STR      r1,[r0,#0]
        0x00000edc:    e59f1154    T...    LDR      r1,[pc,#340] ; [0x1038] = 0x40002c
        0x00000ee0:    e5922000    . ..    LDR      r2,[r2,#0]
        0x00000ee4:    e5910000    ....    LDR      r0,[r1,#0]
        0x00000ee8:    e1500002    ..P.    CMP      r0,r2
        0x00000eec:    1a000009    ....    BNE      0xf18 ; wb_advance_tick + 84
        0x00000ef0:    e3a04000    .@..    MOV      r4,#0
        0x00000ef4:    e5814000    .@..    STR      r4,[r1,#0]
        0x00000ef8:    e59f1160    `...    LDR      r1,[pc,#352] ; [0x1060] = 0x400099
        0x00000efc:    e3a00001    ....    MOV      r0,#1
        0x00000f00:    e5c10000    ....    STRB     r0,[r1,#0]
        0x00000f04:    ebffffbf    ....    BL       w_weight_deltas ; 0xe08
        0x00000f08:    e59f0124    $...    LDR      r0,[pc,#292] ; [0x1034] = 0x400000
        0x00000f0c:    e5c04000    .@..    STRB     r4,[r0,#0]
        0x00000f10:    e8bd4010    .@..    POP      {r4,lr}
        0x00000f14:    eaffff09    ....    B        w_advance_example ; 0xb40
        0x00000f18:    e2800001    ....    ADD      r0,r0,#1
        0x00000f1c:    e5810000    ....    STR      r0,[r1,#0]
        0x00000f20:    e3a02000    . ..    MOV      r2,#0
        0x00000f24:    e59f0138    8...    LDR      r0,[pc,#312] ; [0x1064] = 0xf38
        0x00000f28:    e8bd4010    .@..    POP      {r4,lr}
        0x00000f2c:    e3a03002    .0..    MOV      r3,#2
        0x00000f30:    e1a01002    ....    MOV      r1,r2
        0x00000f34:    ea00070a    ....    B        $Ven$AT$I$$spin1_schedule_callback ; 0x2b64
    wb_process
        0x00000f38:    e92d41f0    .A-.    PUSH     {r4-r8,lr}
        0x00000f3c:    e3a04000    .@..    MOV      r4,#0
        0x00000f40:    e59f6120     a..    LDR      r6,[pc,#288] ; [0x1068] = 0x400050
        0x00000f44:    e59f70c4    .p..    LDR      r7,[pc,#196] ; [0x1010] = 0x4001a4
        0x00000f48:    e5960000    ....    LDR      r0,[r6,#0]
        0x00000f4c:    e2200b01    .. .    EOR      r0,r0,#0x400
        0x00000f50:    e5860000    ....    STR      r0,[r6,#0]
        0x00000f54:    ea000019    ....    B        0xfc0 ; wb_process + 136
        0x00000f58:    e59f10ac    ....    LDR      r1,[pc,#172] ; [0x100c] = 0x400060
        0x00000f5c:    e59f30f8    .0..    LDR      r3,[pc,#248] ; [0x105c] = 0x40008c
        0x00000f60:    e59f20f0    . ..    LDR      r2,[pc,#240] ; [0x1058] = 0x400070
        0x00000f64:    e5911000    ....    LDR      r1,[r1,#0]
        0x00000f68:    e5933000    .0..    LDR      r3,[r3,#0]
        0x00000f6c:    e597c018    ....    LDR      r12,[r7,#0x18]
        0x00000f70:    e3a05000    .P..    MOV      r5,#0
        0x00000f74:    e1a00005    ....    MOV      r0,r5
        0x00000f78:    e15c0000    ..\.    CMP      r12,r0
        0x00000f7c:    9a000007    ....    BLS      0xfa0 ; wb_process + 104
        0x00000f80:    e791e104    ....    LDR      lr,[r1,r4,LSL #2]
        0x00000f84:    e7928103    ....    LDR      r8,[r2,r3,LSL #2]
        0x00000f88:    e7988100    ....    LDR      r8,[r8,r0,LSL #2]
        0x00000f8c:    e08ee080    ....    ADD      lr,lr,r0,LSL #1
        0x00000f90:    e1dee0f0    ....    LDRSH    lr,[lr,#0]
        0x00000f94:    e2800001    ....    ADD      r0,r0,#1
        0x00000f98:    e025589e    .X%.    MLA      r5,lr,r8,r5
        0x00000f9c:    eafffff5    ....    B        0xf78 ; wb_process + 64
        0x00000fa0:    e5960000    ....    LDR      r0,[r6,#0]
        0x00000fa4:    e3a02001    . ..    MOV      r2,#1
        0x00000fa8:    e1800004    ....    ORR      r0,r0,r4
        0x00000fac:    e1a01005    ....    MOV      r1,r5
        0x00000fb0:    fa00070a    ....    BLX      spin1_send_mc_packet ; 0x2be0
        0x00000fb4:    e3500000    ..P.    CMP      r0,#0
        0x00000fb8:    0afffff8    ....    BEQ      0xfa0 ; wb_process + 104
        0x00000fbc:    e2844001    .@..    ADD      r4,r4,#1
        0x00000fc0:    e5970014    ....    LDR      r0,[r7,#0x14]
        0x00000fc4:    e1500004    ..P.    CMP      r0,r4
        0x00000fc8:    8affffe2    ....    BHI      0xf58 ; wb_process + 32
        0x00000fcc:    eb000054    T...    BL       cpu_int_disable ; 0x1124
        0x00000fd0:    e59f1094    ....    LDR      r1,[pc,#148] ; [0x106c] = 0x400098
        0x00000fd4:    e5d12000    . ..    LDRB     r2,[r1,#0]
        0x00000fd8:    e3520000    ..R.    CMP      r2,#0
        0x00000fdc:    059f207c    | ..    LDREQ    r2,[pc,#124] ; [0x1060] = 0x400099
        0x00000fe0:    03a01001    ....    MOVEQ    r1,#1
        0x00000fe4:    05c21000    ....    STRBEQ   r1,[r2,#0]
        0x00000fe8:    08bd41f0    .A..    POPEQ    {r4-r8,lr}
        0x00000fec:    0a000050    P...    BEQ      cpu_int_restore ; 0x1134
        0x00000ff0:    e3a02000    . ..    MOV      r2,#0
        0x00000ff4:    e5c12000    . ..    STRB     r2,[r1,#0]
        0x00000ff8:    eb00004d    M...    BL       cpu_int_restore ; 0x1134
        0x00000ffc:    e8bd41f0    .A..    POP      {r4-r8,lr}
        0x00001000:    e3a01000    ....    MOV      r1,#0
        0x00001004:    e1a00001    ....    MOV      r0,r1
        0x00001008:    eaffffad    ....    B        wb_advance_tick ; 0xec4
    $d
        0x0000100c:    00400060    `.@.    DCD    4194400
        0x00001010:    004001a4    ..@.    DCD    4194724
        0x00001014:    00400064    d.@.    DCD    4194404
        0x00001018:    0040001c    ..@.    DCD    4194332
        0x0000101c:    00400110    ..@.    DCD    4194576
        0x00001020:    00400018    ..@.    DCD    4194328
        0x00001024:    00400020     .@.    DCD    4194336
        0x00001028:    00400044    D.@.    DCD    4194372
        0x0000102c:    00400024    $.@.    DCD    4194340
        0x00001030:    00400088    ..@.    DCD    4194440
        0x00001034:    00400000    ..@.    DCD    4194304
        0x00001038:    0040002c    ,.@.    DCD    4194348
        0x0000103c:    00400084    ..@.    DCD    4194436
        0x00001040:    00400054    T.@.    DCD    4194388
        0x00001044:    00400058    X.@.    DCD    4194392
        0x00001048:    00000d18    ....    DCD    3352
        0x0000104c:    00400078    x.@.    DCD    4194424
        0x00001050:    0040004c    L.@.    DCD    4194380
        0x00001054:    00400068    h.@.    DCD    4194408
        0x00001058:    00400070    p.@.    DCD    4194416
        0x0000105c:    0040008c    ..@.    DCD    4194444
        0x00001060:    00400099    ..@.    DCD    4194457
        0x00001064:    00000f38    8...    DCD    3896
        0x00001068:    00400050    P.@.    DCD    4194384
        0x0000106c:    00400098    ..@.    DCD    4194456
    $t
    alib_aplx
    sark_aplx
        0x00001070:    b5f2        ..      PUSH     {r1,r4-r7,lr}
        0x00001072:    4905        .I      LDR      r1,aplx_buffer ; [0x1088] = 0x7fc0
        0x00001074:    a605        ..      ADR      r6,{pc}+0x18 ; 0x108c
        0x00001076:    2740        @'      MOVS     r7,#0x40
    aplx_l0
        0x00001078:    ce3c        <.      LDM      r6!,{r2-r5}
        0x0000107a:    c13c        <.      STM      r1!,{r2-r5}
        0x0000107c:    3f10        .?      SUBS     r7,r7,#0x10
        0x0000107e:    d1fb        ..      BNE      aplx_l0 ; 0x1078
        0x00001080:    1c04        ..      ADDS     r4,r0,#0
        0x00001082:    393f        ?9      SUBS     r1,r1,#0x3f
        0x00001084:    4708        .G      BX       r1
    $d
        0x00001086:    0000        ..      DCW    0
    aplx_buffer
        0x00001088:    00007fc0    ....    DCD    32704
    $t
    aplx_loader
        0x0000108c:    cc0f        ..      LDM      r4!,{r0-r3}
        0x0000108e:    2801        .(      CMP      r0,#1
        0x00001090:    d008        ..      BEQ      aplx_copy ; 0x10a4
        0x00001092:    2802        .(      CMP      r0,#2
        0x00001094:    d004        ..      BEQ      aplx_rcopy ; 0x10a0
        0x00001096:    2803        .(      CMP      r0,#3
        0x00001098:    d00b        ..      BEQ      aplx_fill ; 0x10b2
        0x0000109a:    2804        .(      CMP      r0,#4
        0x0000109c:    d011        ..      BEQ      aplx_exec ; 0x10c2
        0x0000109e:    bdf2        ..      POP      {r1,r4-r7,pc}
    aplx_rcopy
        0x000010a0:    1912        ..      ADDS     r2,r2,r4
        0x000010a2:    3a10        .:      SUBS     r2,r2,#0x10
    aplx_copy
        0x000010a4:    cae1        ..      LDM      r2!,{r0,r5-r7}
        0x000010a6:    c1e1        ..      STM      r1!,{r0,r5-r7}
        0x000010a8:    cae1        ..      LDM      r2!,{r0,r5-r7}
        0x000010aa:    c1e1        ..      STM      r1!,{r0,r5-r7}
        0x000010ac:    3b20         ;      SUBS     r3,r3,#0x20
        0x000010ae:    d8f9        ..      BHI      aplx_copy ; 0x10a4
        0x000010b0:    e7ec        ..      B        aplx_loader ; 0x108c
    aplx_fill
        0x000010b2:    1c1d        ..      ADDS     r5,r3,#0
        0x000010b4:    1c1e        ..      ADDS     r6,r3,#0
        0x000010b6:    1c1f        ..      ADDS     r7,r3,#0
    aplx_l1
        0x000010b8:    c1e8        ..      STM      r1!,{r3,r5-r7}
        0x000010ba:    c1e8        ..      STM      r1!,{r3,r5-r7}
        0x000010bc:    3a20         :      SUBS     r2,r2,#0x20
        0x000010be:    d8fb        ..      BHI      aplx_l1 ; 0x10b8
        0x000010c0:    e7e4        ..      B        aplx_loader ; 0x108c
    aplx_exec
        0x000010c2:    9800        ..      LDR      r0,[sp,#0]
        0x000010c4:    4788        .G      BLX      r1
        0x000010c6:    e7e1        ..      B        aplx_loader ; 0x108c
    alib_delay
    sark_delay_us
        0x000010c8:    4903        .I      LDR      r1,[pc,#12] ; [0x10d8] = 0x400228
        0x000010ca:    8809        ..      LDRH     r1,[r1,#0]
        0x000010cc:    4341        AC      MULS     r1,r0,r1
        0x000010ce:    0888        ..      LSRS     r0,r1,#2
    delay1
        0x000010d0:    3801        .8      SUBS     r0,#1
        0x000010d2:    d2fd        ..      BCS      delay1 ; 0x10d0
        0x000010d4:    4770        pG      BX       lr
    $d
        0x000010d6:    0000        ..      DCW    0
        0x000010d8:    00400228    (.@.    DCD    4194856
    $a
    alib_div10
    sark_div10
        0x000010dc:    e241200a    . A.    SUB      r2,r1,#0xa
        0x000010e0:    e0411121    !.A.    SUB      r1,r1,r1,LSR #2
        0x000010e4:    e0811221    !...    ADD      r1,r1,r1,LSR #4
        0x000010e8:    e0811421    !...    ADD      r1,r1,r1,LSR #8
        0x000010ec:    e0811821    !...    ADD      r1,r1,r1,LSR #16
        0x000010f0:    e1a011a1    ....    LSR      r1,r1,#3
        0x000010f4:    e0813101    .1..    ADD      r3,r1,r1,LSL #2
        0x000010f8:    e0522083    . R.    SUBS     r2,r2,r3,LSL #1
        0x000010fc:    52811001    ...R    ADDPL    r1,r1,#1
        0x00001100:    4282200a    . .B    ADDMI    r2,r2,#0xa
        0x00001104:    e8800006    ....    STM      r0,{r1,r2}
        0x00001108:    e12fff1e    ../.    BX       lr
    alib_init_mode
    cpu_init_mode
        0x0000110c:    e10f3000    .0..    MRS      r3,APSR ; formerly CPSR
        0x00001110:    e121f001    ..!.    MSR      CPSR_c,r1
        0x00001114:    e1a0d000    ....    MOV      sp,r0
        0x00001118:    e12ff003    ../.    MSR      CPSR_cxsf,r3
        0x0000111c:    e0400102    ..@.    SUB      r0,r0,r2,LSL #2
        0x00001120:    e12fff1e    ../.    BX       lr
    alib_int_disable
    cpu_int_disable
    spin1_int_disable
        0x00001124:    e10f0000    ....    MRS      r0,APSR ; formerly CPSR
        0x00001128:    e38010c0    ....    ORR      r1,r0,#0xc0
        0x0000112c:    e121f001    ..!.    MSR      CPSR_c,r1
        0x00001130:    e12fff1e    ../.    BX       lr
    alib_int_restore
    cpu_int_restore
    spin1_mode_restore
        0x00001134:    e12ff000    ../.    MSR      CPSR_cxsf,r0
        0x00001138:    e12fff1e    ../.    BX       lr
    alib_irq_disable
    cpu_irq_disable
    spin1_irq_disable
        0x0000113c:    e10f0000    ....    MRS      r0,APSR ; formerly CPSR
        0x00001140:    e3801080    ....    ORR      r1,r0,#0x80
        0x00001144:    e121f001    ..!.    MSR      CPSR_c,r1
        0x00001148:    e12fff1e    ../.    BX       lr
    alib_irq_on
    cpu_irq_enable
    spin1_irq_enable
        0x0000114c:    e10f0000    ....    MRS      r0,APSR ; formerly CPSR
        0x00001150:    e3c01080    ....    BIC      r1,r0,#0x80
        0x00001154:    e121f001    ..!.    MSR      CPSR_c,r1
        0x00001158:    e12fff1e    ../.    BX       lr
    alib_lock
    sark_lock_get
        0x0000115c:    e3a0c4e2    ....    MOV      r12,#0xe2000000
        0x00001160:    e08cc100    ....    ADD      r12,r12,r0,LSL #2
        0x00001164:    e10f0000    ....    MRS      r0,APSR ; formerly CPSR
        0x00001168:    e38010c0    ....    ORR      r1,r0,#0xc0
        0x0000116c:    e121f001    ..!.    MSR      CPSR_c,r1
    lg1
        0x00001170:    e59c1100    ....    LDR      r1,[r12,#0x100]
        0x00001174:    e3110102    ....    TST      r1,#0x80000000
        0x00001178:    1afffffc    ....    BNE      lg1 ; 0x1170
        0x0000117c:    e12fff1e    ../.    BX       lr
    sark_lock_free
        0x00001180:    e3a0c4e2    ....    MOV      r12,#0xe2000000
        0x00001184:    e08c1101    ....    ADD      r1,r12,r1,LSL #2
        0x00001188:    e5911180    ....    LDR      r1,[r1,#0x180]
        0x0000118c:    e121f000    ..!.    MSR      CPSR_c,r0
        0x00001190:    e12fff1e    ../.    BX       lr
    alib_sark_int
    sark_int_han
        0x00001194:    e92d500f    .P-.    PUSH     {r0-r3,r12,lr}
        0x00001198:    e24e0004    ..N.    SUB      r0,lr,#4
        0x0000119c:    e14fc000    ..O.    MRS      r12,SPSR
        0x000011a0:    e321f01f    ..!.    MSR      CPSR_c,#0x1f
        0x000011a4:    e92d5000    .P-.    PUSH     {r12,lr}
        0x000011a8:    fa00048c    ....    BLX      sark_int ; 0x23e0
        0x000011ac:    e8bd5000    .P..    POP      {r12,lr}
        0x000011b0:    e321f092    ..!.    MSR      CPSR_c,#0x92
        0x000011b4:    e16ff00c    ..o.    MSR      SPSR_cxsf,r12
        0x000011b8:    e3a0042f    /...    MOV      r0,#0x2f000000
        0x000011bc:    e5800030    0...    STR      r0,[r0,#0x30]
        0x000011c0:    e8bd500f    .P..    POP      {r0-r3,r12,lr}
    null_int_han
        0x000011c4:    e25ef004    ..^.    SUBS     pc,lr,#4
    alib_schedule
    schedule
        0x000011c8:    e92d5000    .P-.    PUSH     {r12,lr}
        0x000011cc:    e10fc000    ....    MRS      r12,APSR ; formerly CPSR
        0x000011d0:    e3cce01f    ....    BIC      lr,r12,#0x1f
        0x000011d4:    e38ee01f    ....    ORR      lr,lr,#0x1f
        0x000011d8:    e121f00e    ..!.    MSR      CPSR_c,lr
        0x000011dc:    e92d5000    .P-.    PUSH     {r12,lr}
        0x000011e0:    fa0005d6    ....    BLX      schedule_sysmode ; 0x2940
        0x000011e4:    e8bd5000    .P..    POP      {r12,lr}
        0x000011e8:    e121f00c    ..!.    MSR      CPSR_c,r12
        0x000011ec:    e8bd5000    .P..    POP      {r12,lr}
        0x000011f0:    e12fff1e    ../.    BX       lr
    alib_strcpy
    sark_str_cpy
        0x000011f4:    e4d12001    . ..    LDRB     r2,[r1],#1
        0x000011f8:    e3520000    ..R.    CMP      r2,#0
        0x000011fc:    e4c02001    . ..    STRB     r2,[r0],#1
        0x00001200:    1afffffb    ....    BNE      sark_str_cpy ; 0x11f4
        0x00001204:    e12fff1e    ../.    BX       lr
    alib_wfi
    cpu_wfi
    spin1_wfi
        0x00001208:    ee070f90    ....    MCR      p15,#0x0,r0,c7,c0,#4
        0x0000120c:    e12fff1e    ../.    BX       lr
    alib_word_cpy
    sark_msg_cpy
        0x00001210:    e2800004    ....    ADD      r0,r0,#4
        0x00001214:    e2811004    ....    ADD      r1,r1,#4
        0x00001218:    e1d120b0    . ..    LDRH     r2,[r1,#0]
        0x0000121c:    e2822004    . ..    ADD      r2,r2,#4
    sark_word_cpy
        0x00001220:    e3120003    ....    TST      r2,#3
        0x00001224:    13c22003    . ..    BICNE    r2,r2,#3
        0x00001228:    12822004    . ..    ADDNE    r2,r2,#4
        0x0000122c:    e92d4010    .@-.    PUSH     {r4,lr}
        0x00001230:    e2522020      R.    SUBS     r2,r2,#0x20
        0x00001234:    3a000005    ...:    BCC      wc2 ; 0x1250
    wc1
        0x00001238:    e8b15018    .P..    LDM      r1!,{r3,r4,r12,lr}
        0x0000123c:    e8a05018    .P..    STM      r0!,{r3,r4,r12,lr}
        0x00001240:    e8b15018    .P..    LDM      r1!,{r3,r4,r12,lr}
        0x00001244:    e8a05018    .P..    STM      r0!,{r3,r4,r12,lr}
        0x00001248:    e2522020      R.    SUBS     r2,r2,#0x20
        0x0000124c:    2afffff9    ...*    BCS      wc1 ; 0x1238
    wc2
        0x00001250:    e1b0ce02    ....    LSLS     r12,r2,#28
        0x00001254:    28b15018    .P.(    LDMCS    r1!,{r3,r4,r12,lr}
        0x00001258:    28a05018    .P.(    STMCS    r0!,{r3,r4,r12,lr}
        0x0000125c:    48b10018    ...H    LDMMI    r1!,{r3,r4}
        0x00001260:    48a00018    ...H    STMMI    r0!,{r3,r4}
        0x00001264:    e1b0cf02    ....    LSLS     r12,r2,#30
        0x00001268:    24913004    .0.$    LDRCS    r3,[r1],#4
        0x0000126c:    24803004    .0.$    STRCS    r3,[r0],#4
        0x00001270:    e8bd8010    ....    POP      {r4,pc}
    alib_word_set
    sark_word_set
        0x00001274:    e1a03001    .0..    MOV      r3,r1
    ws1
        0x00001278:    e2522010    . R.    SUBS     r2,r2,#0x10
        0x0000127c:    28a0000a    ...(    STMCS    r0!,{r1,r3}
        0x00001280:    28a0000a    ...(    STMCS    r0!,{r1,r3}
        0x00001284:    2afffffb    ...*    BCS      ws1 ; 0x1278
        0x00001288:    e1b02e82    ....    LSLS     r2,r2,#29
        0x0000128c:    28a0000a    ...(    STMCS    r0!,{r1,r3}
        0x00001290:    48a00002    ...H    STMMI    r0!,{r1}
        0x00001294:    e12fff1e    ../.    BX       lr
    i.__ARM_common_switch8
    __ARM_common_switch8
        0x00001298:    e55ec001    ..^.    LDRB     r12,[lr,#-1]
        0x0000129c:    e153000c    ..S.    CMP      r3,r12
        0x000012a0:    37de3003    .0.7    LDRBCC   r3,[lr,r3]
        0x000012a4:    27de300c    .0.'    LDRBCS   r3,[lr,r12]
        0x000012a8:    e08ec083    ....    ADD      r12,lr,r3,LSL #1
        0x000012ac:    e12fff1c    ../.    BX       r12
    i.barrier_packet_handler
    barrier_packet_handler
        0x000012b0:    e92d000f    ..-.    PUSH     {r0-r3}
        0x000012b4:    e3a00202    ....    MOV      r0,#0x20000000
        0x000012b8:    e5900014    ....    LDR      r0,[r0,#0x14]
        0x000012bc:    e59f1074    t...    LDR      r1,[pc,#116] ; [0x1338] = 0xf0000800
        0x000012c0:    e3a02001    . ..    MOV      r2,#1
        0x000012c4:    e0900001    ....    ADDS     r0,r0,r1
        0x000012c8:    e3a0142f    /...    MOV      r1,#0x2f000000
        0x000012cc:    0a00000e    ....    BEQ      0x130c ; barrier_packet_handler + 92
        0x000012d0:    e3500001    ..P.    CMP      r0,#1
        0x000012d4:    059f0060    `...    LDREQ    r0,[pc,#96] ; [0x133c] = 0x4000dc
        0x000012d8:    0a000014    ....    BEQ      0x1330 ; barrier_packet_handler + 128
        0x000012dc:    e3500002    ..P.    CMP      r0,#2
        0x000012e0:    059f0058    X...    LDREQ    r0,[pc,#88] ; [0x1340] = 0x4000e8
        0x000012e4:    0a000002    ....    BEQ      0x12f4 ; barrier_packet_handler + 68
        0x000012e8:    e3500003    ..P.    CMP      r0,#3
        0x000012ec:    1a000003    ....    BNE      0x1300 ; barrier_packet_handler + 80
        0x000012f0:    e59f004c    L...    LDR      r0,[pc,#76] ; [0x1344] = 0x4000ec
        0x000012f4:    e5903000    .0..    LDR      r3,[r0,#0]
        0x000012f8:    e2833001    .0..    ADD      r3,r3,#1
        0x000012fc:    e5803000    .0..    STR      r3,[r0,#0]
        0x00001300:    e5812030    0 ..    STR      r2,[r1,#0x30]
        0x00001304:    e8bd000f    ....    POP      {r0-r3}
        0x00001308:    e25ef004    ..^.    SUBS     pc,lr,#4
        0x0000130c:    e59f0034    4...    LDR      r0,[pc,#52] ; [0x1348] = 0x4007fc
        0x00001310:    e5900004    ....    LDR      r0,[r0,#4]
        0x00001314:    e3500000    ..P.    CMP      r0,#0
        0x00001318:    a59f002c    ,...    LDRGE    r0,[pc,#44] ; [0x134c] = 0x1744
        0x0000131c:    a581010c    ....    STRGE    r0,[r1,#0x10c]
        0x00001320:    b591000c    ....    LDRLT    r0,[r1,#0xc]
        0x00001324:    b3800040    @...    ORRLT    r0,r0,#0x40
        0x00001328:    b581000c    ....    STRLT    r0,[r1,#0xc]
        0x0000132c:    e59f001c    ....    LDR      r0,[pc,#28] ; [0x1350] = 0x4000d8
        0x00001330:    e5802000    . ..    STR      r2,[r0,#0]
        0x00001334:    eafffff1    ....    B        0x1300 ; barrier_packet_handler + 80
    $d
        0x00001338:    f0000800    ....    DCD    4026533888
        0x0000133c:    004000dc    ..@.    DCD    4194524
        0x00001340:    004000e8    ..@.    DCD    4194536
        0x00001344:    004000ec    ..@.    DCD    4194540
        0x00001348:    004007fc    ..@.    DCD    4196348
        0x0000134c:    00001744    D...    DCD    5956
        0x00001350:    004000d8    ..@.    DCD    4194520
    $t
    i.barrier_setup
    barrier_setup
        0x00001354:    b5f7        ..      PUSH     {r0-r2,r4-r7,lr}
        0x00001356:    468c        .F      MOV      r12,r1
        0x00001358:    2301        .#      MOVS     r3,#1
        0x0000135a:    b084        ..      SUB      sp,sp,#0x10
        0x0000135c:    484a        JH      LDR      r0,[pc,#296] ; [0x1488] = 0xe5007f00
        0x0000135e:    8801        ..      LDRH     r1,[r0,#0]
        0x00001360:    060f        ..      LSLS     r7,r1,#24
        0x00001362:    0a08        ..      LSRS     r0,r1,#8
        0x00001364:    0e3f        ?.      LSRS     r7,r7,#24
        0x00001366:    2900        .)      CMP      r1,#0
        0x00001368:    d000        ..      BEQ      0x136c ; barrier_setup + 24
        0x0000136a:    2300        .#      MOVS     r3,#0
        0x0000136c:    4e47        GN      LDR      r6,[pc,#284] ; [0x148c] = 0x4000b0
        0x0000136e:    2100        .!      MOVS     r1,#0
        0x00001370:    70b3        .p      STRB     r3,[r6,#2]
        0x00001372:    80b1        ..      STRH     r1,[r6,#4]
        0x00001374:    000d        ..      MOVS     r5,r1
        0x00001376:    000c        ..      MOVS     r4,r1
        0x00001378:    9103        ..      STR      r1,[sp,#0xc]
        0x0000137a:    68b1        .h      LDR      r1,[r6,#8]
        0x0000137c:    9102        ..      STR      r1,[sp,#8]
        0x0000137e:    0089        ..      LSLS     r1,r1,#2
        0x00001380:    9101        ..      STR      r1,[sp,#4]
        0x00001382:    5851        QX      LDR      r1,[r2,r1]
        0x00001384:    2301        .#      MOVS     r3,#1
        0x00001386:    0849        I.      LSRS     r1,r1,#1
        0x00001388:    0049        I.      LSLS     r1,r1,#1
        0x0000138a:    9100        ..      STR      r1,[sp,#0]
        0x0000138c:    493e        >I      LDR      r1,[pc,#248] ; [0x1488] = 0xe5007f00
        0x0000138e:    31a0        .1      ADDS     r1,r1,#0xa0
        0x00001390:    7f09        ..      LDRB     r1,[r1,#0x1c]
        0x00001392:    468e        .F      MOV      lr,r1
        0x00001394:    e00d        ..      B        0x13b2 ; barrier_setup + 94
        0x00001396:    2601        .&      MOVS     r6,#1
        0x00001398:    9900        ..      LDR      r1,[sp,#0]
        0x0000139a:    409e        .@      LSLS     r6,r6,r3
        0x0000139c:    420e        .B      TST      r6,r1
        0x0000139e:    d007        ..      BEQ      0x13b0 ; barrier_setup + 92
        0x000013a0:    1d99        ..      ADDS     r1,r3,#6
        0x000013a2:    2601        .&      MOVS     r6,#1
        0x000013a4:    408e        .@      LSLS     r6,r6,r1
        0x000013a6:    4939        9I      LDR      r1,[pc,#228] ; [0x148c] = 0x4000b0
        0x000013a8:    4335        5C      ORRS     r5,r5,r6
        0x000013aa:    6a0e        .j      LDR      r6,[r1,#0x20]
        0x000013ac:    1c76        v.      ADDS     r6,r6,#1
        0x000013ae:    620e        .b      STR      r6,[r1,#0x20]
        0x000013b0:    1c5b        [.      ADDS     r3,r3,#1
        0x000013b2:    459e        .E      CMP      lr,r3
        0x000013b4:    d8ef        ..      BHI      0x1396 ; barrier_setup + 66
        0x000013b6:    4661        aF      MOV      r1,r12
        0x000013b8:    1e49        I.      SUBS     r1,r1,#1
        0x000013ba:    2800        .(      CMP      r0,#0
        0x000013bc:    468e        .F      MOV      lr,r1
        0x000013be:    d108        ..      BNE      0x13d2 ; barrier_setup + 126
        0x000013c0:    4577        wE      CMP      r7,lr
        0x000013c2:    d206        ..      BCS      0x13d2 ; barrier_setup + 126
        0x000013c4:    9901        ..      LDR      r1,[sp,#4]
        0x000013c6:    1889        ..      ADDS     r1,r1,r2
        0x000013c8:    6849        Ih      LDR      r1,[r1,#4]
        0x000013ca:    0849        I.      LSRS     r1,r1,#1
        0x000013cc:    d001        ..      BEQ      0x13d2 ; barrier_setup + 126
        0x000013ce:    2104        .!      MOVS     r1,#4
        0x000013d0:    430c        .C      ORRS     r4,r4,r1
        0x000013d2:    4e2e        .N      LDR      r6,[pc,#184] ; [0x148c] = 0x4000b0
        0x000013d4:    9b04        ..      LDR      r3,[sp,#0x10]
        0x000013d6:    68b6        .h      LDR      r6,[r6,#8]
        0x000013d8:    1e5b        [.      SUBS     r3,r3,#1
        0x000013da:    4466        fD      ADD      r6,r6,r12
        0x000013dc:    00b6        ..      LSLS     r6,r6,#2
        0x000013de:    4298        .B      CMP      r0,r3
        0x000013e0:    d206        ..      BCS      0x13f0 ; barrier_setup + 156
        0x000013e2:    2f00        ./      CMP      r7,#0
        0x000013e4:    d104        ..      BNE      0x13f0 ; barrier_setup + 156
        0x000013e6:    5991        .Y      LDR      r1,[r2,r6]
        0x000013e8:    0849        I.      LSRS     r1,r1,#1
        0x000013ea:    d001        ..      BEQ      0x13f0 ; barrier_setup + 156
        0x000013ec:    2101        .!      MOVS     r1,#1
        0x000013ee:    430c        .C      ORRS     r4,r4,r1
        0x000013f0:    4298        .B      CMP      r0,r3
        0x000013f2:    d207        ..      BCS      0x1404 ; barrier_setup + 176
        0x000013f4:    4577        wE      CMP      r7,lr
        0x000013f6:    d205        ..      BCS      0x1404 ; barrier_setup + 176
        0x000013f8:    18b0        ..      ADDS     r0,r6,r2
        0x000013fa:    6840        @h      LDR      r0,[r0,#4]
        0x000013fc:    0840        @.      LSRS     r0,r0,#1
        0x000013fe:    d001        ..      BEQ      0x1404 ; barrier_setup + 176
        0x00001400:    2002        .       MOVS     r0,#2
        0x00001402:    4304        .C      ORRS     r4,r4,r0
        0x00001404:    4821        !H      LDR      r0,[pc,#132] ; [0x148c] = 0x4000b0
        0x00001406:    2601        .&      MOVS     r6,#1
        0x00001408:    7881        .x      LDRB     r1,[r0,#2]
        0x0000140a:    4821        !H      LDR      r0,[pc,#132] ; [0x1490] = 0x4001f8
        0x0000140c:    6800        .h      LDR      r0,[r0,#0]
        0x0000140e:    1d80        ..      ADDS     r0,r0,#6
        0x00001410:    4086        .@      LSLS     r6,r6,r0
        0x00001412:    2900        .)      CMP      r1,#0
        0x00001414:    d014        ..      BEQ      0x1440 ; barrier_setup + 236
        0x00001416:    9b04        ..      LDR      r3,[sp,#0x10]
        0x00001418:    2000        .       MOVS     r0,#0
        0x0000141a:    4661        aF      MOV      r1,r12
        0x0000141c:    434b        KC      MULS     r3,r1,r3
        0x0000141e:    4f1b        .O      LDR      r7,[pc,#108] ; [0x148c] = 0x4000b0
        0x00001420:    e00a        ..      B        0x1438 ; barrier_setup + 228
        0x00001422:    9902        ..      LDR      r1,[sp,#8]
        0x00001424:    4288        .B      CMP      r0,r1
        0x00001426:    d006        ..      BEQ      0x1436 ; barrier_setup + 226
        0x00001428:    0081        ..      LSLS     r1,r0,#2
        0x0000142a:    5851        QX      LDR      r1,[r2,r1]
        0x0000142c:    0849        I.      LSRS     r1,r1,#1
        0x0000142e:    d002        ..      BEQ      0x1436 ; barrier_setup + 226
        0x00001430:    69b9        .i      LDR      r1,[r7,#0x18]
        0x00001432:    1c49        I.      ADDS     r1,r1,#1
        0x00001434:    61b9        .a      STR      r1,[r7,#0x18]
        0x00001436:    1c40        @.      ADDS     r0,r0,#1
        0x00001438:    4283        .B      CMP      r3,r0
        0x0000143a:    d8f2        ..      BHI      0x1422 ; barrier_setup + 206
        0x0000143c:    0027        '.      MOVS     r7,r4
        0x0000143e:    e006        ..      B        0x144e ; barrier_setup + 250
        0x00001440:    4326        &C      ORRS     r6,r6,r4
        0x00001442:    9803        ..      LDR      r0,[sp,#0xc]
        0x00001444:    0037        7.      MOVS     r7,r6
        0x00001446:    f000fe97    ....    BL       rtr_p2p_get ; 0x2178
        0x0000144a:    2601        .&      MOVS     r6,#1
        0x0000144c:    4086        .@      LSLS     r6,r6,r0
        0x0000144e:    003b        ;.      MOVS     r3,r7
        0x00001450:    4f0e        .O      LDR      r7,[pc,#56] ; [0x148c] = 0x4000b0
        0x00001452:    2200        ."      MOVS     r2,#0
        0x00001454:    6c78        xl      LDR      r0,[r7,#0x44]
        0x00001456:    490f        .I      LDR      r1,[pc,#60] ; [0x1494] = 0xffff801
        0x00001458:    43d2        .C      MVNS     r2,r2
        0x0000145a:    1c40        @.      ADDS     r0,r0,#1
        0x0000145c:    f000fe58    ..X.    BL       rtr_mc_set ; 0x2110
        0x00001460:    490c        .I      LDR      r1,[pc,#48] ; [0x1494] = 0xffff801
        0x00001462:    6c78        xl      LDR      r0,[r7,#0x44]
        0x00001464:    2200        ."      MOVS     r2,#0
        0x00001466:    0033        3.      MOVS     r3,r6
        0x00001468:    43d2        .C      MVNS     r2,r2
        0x0000146a:    1c89        ..      ADDS     r1,r1,#2
        0x0000146c:    1cc0        ..      ADDS     r0,r0,#3
        0x0000146e:    f000fe4f    ..O.    BL       rtr_mc_set ; 0x2110
        0x00001472:    4908        .I      LDR      r1,[pc,#32] ; [0x1494] = 0xffff801
        0x00001474:    002b        +.      MOVS     r3,r5
        0x00001476:    2200        ."      MOVS     r2,#0
        0x00001478:    6c78        xl      LDR      r0,[r7,#0x44]
        0x0000147a:    4323        #C      ORRS     r3,r3,r4
        0x0000147c:    43d2        .C      MVNS     r2,r2
        0x0000147e:    1e49        I.      SUBS     r1,r1,#1
        0x00001480:    f000fe46    ..F.    BL       rtr_mc_set ; 0x2110
        0x00001484:    b007        ..      ADD      sp,sp,#0x1c
        0x00001486:    bdf0        ..      POP      {r4-r7,pc}
    $d
        0x00001488:    e5007f00    ....    DCD    3842014976
        0x0000148c:    004000b0    ..@.    DCD    4194480
        0x00001490:    004001f8    ..@.    DCD    4194808
        0x00001494:    0ffff801    ....    DCD    268433409
    $t
    i.barrier_wait
    barrier_wait
        0x00001498:    b5fe        ..      PUSH     {r1-r7,lr}
        0x0000149a:    2710        .'      MOVS     r7,#0x10
        0x0000149c:    4e53        SN      LDR      r6,[pc,#332] ; [0x15ec] = 0x4000b0
        0x0000149e:    4b52        RK      LDR      r3,[pc,#328] ; [0x15e8] = 0xe5007f10
        0x000014a0:    0030        0.      MOVS     r0,r6
        0x000014a2:    6d00        .m      LDR      r0,[r0,#0x50]
        0x000014a4:    7871        qx      LDRB     r1,[r6,#1]
        0x000014a6:    4c50        PL      LDR      r4,[pc,#320] ; [0x15e8] = 0xe5007f10
        0x000014a8:    4338        8C      ORRS     r0,r0,r7
        0x000014aa:    3350        P3      ADDS     r3,r3,#0x50
        0x000014ac:    2900        .)      CMP      r1,#0
        0x000014ae:    d06d        m.      BEQ      0x158c ; barrier_wait + 244
        0x000014b0:    21be        .!      MOVS     r1,#0xbe
        0x000014b2:    7119        .q      STRB     r1,[r3,#4]
        0x000014b4:    78b1        .x      LDRB     r1,[r6,#2]
        0x000014b6:    2900        .)      CMP      r1,#0
        0x000014b8:    d03b        ;.      BEQ      0x1532 ; barrier_wait + 154
        0x000014ba:    2200        ."      MOVS     r2,#0
        0x000014bc:    484c        LH      LDR      r0,[pc,#304] ; [0x15f0] = 0xffff801
        0x000014be:    0011        ..      MOVS     r1,r2
        0x000014c0:    f001fb8e    ....    BL       spin1_send_mc_packet ; 0x2be0
        0x000014c4:    6825        %h      LDR      r5,[r4,#0]
        0x000014c6:    0028        (.      MOVS     r0,r5
        0x000014c8:    e009        ..      B        0x14de ; barrier_wait + 70
        0x000014ca:    6821        !h      LDR      r1,[r4,#0]
        0x000014cc:    1a09        ..      SUBS     r1,r1,r0
        0x000014ce:    2964        d)      CMP      r1,#0x64
        0x000014d0:    d905        ..      BLS      0x14de ; barrier_wait + 70
        0x000014d2:    2200        ."      MOVS     r2,#0
        0x000014d4:    4846        FH      LDR      r0,[pc,#280] ; [0x15f0] = 0xffff801
        0x000014d6:    0011        ..      MOVS     r1,r2
        0x000014d8:    f001fb82    ....    BL       spin1_send_mc_packet ; 0x2be0
        0x000014dc:    6820         h      LDR      r0,[r4,#0]
        0x000014de:    6821        !h      LDR      r1,[r4,#0]
        0x000014e0:    4a44        DJ      LDR      r2,[pc,#272] ; [0x15f4] = 0x61a8
        0x000014e2:    1b49        I.      SUBS     r1,r1,r5
        0x000014e4:    4291        .B      CMP      r1,r2
        0x000014e6:    d207        ..      BCS      0x14f8 ; barrier_wait + 96
        0x000014e8:    6bb1        .k      LDR      r1,[r6,#0x38]
        0x000014ea:    6a32        2j      LDR      r2,[r6,#0x20]
        0x000014ec:    4291        .B      CMP      r1,r2
        0x000014ee:    d3ec        ..      BCC      0x14ca ; barrier_wait + 50
        0x000014f0:    6bf1        .k      LDR      r1,[r6,#0x3c]
        0x000014f2:    69b2        .i      LDR      r2,[r6,#0x18]
        0x000014f4:    4291        .B      CMP      r1,r2
        0x000014f6:    d3e8        ..      BCC      0x14ca ; barrier_wait + 50
        0x000014f8:    6bb0        .k      LDR      r0,[r6,#0x38]
        0x000014fa:    6a31        1j      LDR      r1,[r6,#0x20]
        0x000014fc:    4288        .B      CMP      r0,r1
        0x000014fe:    d103        ..      BNE      0x1508 ; barrier_wait + 112
        0x00001500:    6bf0        .k      LDR      r0,[r6,#0x3c]
        0x00001502:    69b1        .i      LDR      r1,[r6,#0x18]
        0x00001504:    4288        .B      CMP      r0,r1
        0x00001506:    d00f        ..      BEQ      0x1528 ; barrier_wait + 144
        0x00001508:    6d30        0m      LDR      r0,[r6,#0x50]
        0x0000150a:    4338        8C      ORRS     r0,r0,r7
        0x0000150c:    6530        0e      STR      r0,[r6,#0x50]
        0x0000150e:    69b2        .i      LDR      r2,[r6,#0x18]
        0x00001510:    6bf1        .k      LDR      r1,[r6,#0x3c]
        0x00001512:    9201        ..      STR      r2,[sp,#4]
        0x00001514:    9100        ..      STR      r1,[sp,#0]
        0x00001516:    6a33        3j      LDR      r3,[r6,#0x20]
        0x00001518:    6bb2        .k      LDR      r2,[r6,#0x38]
        0x0000151a:    2000        .       MOVS     r0,#0
        0x0000151c:    a136        6.      ADR      r1,{pc}+0xdc ; 0x15f8
        0x0000151e:    f000fb29    ..).    BL       io_printf ; 0x1b74
        0x00001522:    20c8        .       MOVS     r0,#0xc8
        0x00001524:    f7fffdd0    ....    BL       sark_delay_us ; 0x10c8
        0x00001528:    4831        1H      LDR      r0,[pc,#196] ; [0x15f0] = 0xffff801
        0x0000152a:    2200        ."      MOVS     r2,#0
        0x0000152c:    0011        ..      MOVS     r1,r2
        0x0000152e:    1e40        @.      SUBS     r0,r0,#1
        0x00001530:    e027        '.      B        0x1582 ; barrier_wait + 234
        0x00001532:    6822        "h      LDR      r2,[r4,#0]
        0x00001534:    4b2f        /K      LDR      r3,[pc,#188] ; [0x15f4] = 0x61a8
        0x00001536:    6821        !h      LDR      r1,[r4,#0]
        0x00001538:    1a89        ..      SUBS     r1,r1,r2
        0x0000153a:    4299        .B      CMP      r1,r3
        0x0000153c:    d206        ..      BCS      0x154c ; barrier_wait + 180
        0x0000153e:    6bb1        .k      LDR      r1,[r6,#0x38]
        0x00001540:    6a35        5j      LDR      r5,[r6,#0x20]
        0x00001542:    42a9        .B      CMP      r1,r5
        0x00001544:    d3f7        ..      BCC      0x1536 ; barrier_wait + 158
        0x00001546:    6af1        .j      LDR      r1,[r6,#0x2c]
        0x00001548:    2900        .)      CMP      r1,#0
        0x0000154a:    d0f4        ..      BEQ      0x1536 ; barrier_wait + 158
        0x0000154c:    6bb1        .k      LDR      r1,[r6,#0x38]
        0x0000154e:    6a32        2j      LDR      r2,[r6,#0x20]
        0x00001550:    4291        .B      CMP      r1,r2
        0x00001552:    d007        ..      BEQ      0x1564 ; barrier_wait + 204
        0x00001554:    6530        0e      STR      r0,[r6,#0x50]
        0x00001556:    6a33        3j      LDR      r3,[r6,#0x20]
        0x00001558:    6bb2        .k      LDR      r2,[r6,#0x38]
        0x0000155a:    2000        .       MOVS     r0,#0
        0x0000155c:    a136        6.      ADR      r1,{pc}+0xdc ; 0x1638
        0x0000155e:    f000fb09    ....    BL       io_printf ; 0x1b74
        0x00001562:    e007        ..      B        0x1574 ; barrier_wait + 220
        0x00001564:    6af1        .j      LDR      r1,[r6,#0x2c]
        0x00001566:    2900        .)      CMP      r1,#0
        0x00001568:    d107        ..      BNE      0x157a ; barrier_wait + 226
        0x0000156a:    6530        0e      STR      r0,[r6,#0x50]
        0x0000156c:    2000        .       MOVS     r0,#0
        0x0000156e:    a140        @.      ADR      r1,{pc}+0x102 ; 0x1670
        0x00001570:    f000fb00    ....    BL       io_printf ; 0x1b74
        0x00001574:    20c8        .       MOVS     r0,#0xc8
        0x00001576:    f7fffda7    ....    BL       sark_delay_us ; 0x10c8
        0x0000157a:    481d        .H      LDR      r0,[pc,#116] ; [0x15f0] = 0xffff801
        0x0000157c:    2200        ."      MOVS     r2,#0
        0x0000157e:    0011        ..      MOVS     r1,r2
        0x00001580:    1c80        ..      ADDS     r0,r0,#2
        0x00001582:    f001fb2d    ..-.    BL       spin1_send_mc_packet ; 0x2be0
        0x00001586:    6821        !h      LDR      r1,[r4,#0]
        0x00001588:    4847        GH      LDR      r0,[pc,#284] ; [0x16a8] = 0xc350
        0x0000158a:    e018        ..      B        0x15be ; barrier_wait + 294
        0x0000158c:    6822        "h      LDR      r2,[r4,#0]
        0x0000158e:    4d46        FM      LDR      r5,[pc,#280] ; [0x16a8] = 0xc350
        0x00001590:    6821        !h      LDR      r1,[r4,#0]
        0x00001592:    1a89        ..      SUBS     r1,r1,r2
        0x00001594:    42a9        .B      CMP      r1,r5
        0x00001596:    d202        ..      BCS      0x159e ; barrier_wait + 262
        0x00001598:    7919        .y      LDRB     r1,[r3,#4]
        0x0000159a:    29be        .)      CMP      r1,#0xbe
        0x0000159c:    d3f8        ..      BCC      0x1590 ; barrier_wait + 248
        0x0000159e:    7919        .y      LDRB     r1,[r3,#4]
        0x000015a0:    29be        .)      CMP      r1,#0xbe
        0x000015a2:    d207        ..      BCS      0x15b4 ; barrier_wait + 284
        0x000015a4:    6530        0e      STR      r0,[r6,#0x50]
        0x000015a6:    2000        .       MOVS     r0,#0
        0x000015a8:    a140        @.      ADR      r1,{pc}+0x104 ; 0x16ac
        0x000015aa:    f000fae3    ....    BL       io_printf ; 0x1b74
        0x000015ae:    20c8        .       MOVS     r0,#0xc8
        0x000015b0:    f7fffd8a    ....    BL       sark_delay_us ; 0x10c8
        0x000015b4:    480e        .H      LDR      r0,[pc,#56] ; [0x15f0] = 0xffff801
        0x000015b6:    2200        ."      MOVS     r2,#0
        0x000015b8:    0011        ..      MOVS     r1,r2
        0x000015ba:    1c40        @.      ADDS     r0,r0,#1
        0x000015bc:    e7e1        ..      B        0x1582 ; barrier_wait + 234
        0x000015be:    6822        "h      LDR      r2,[r4,#0]
        0x000015c0:    1a52        R.      SUBS     r2,r2,r1
        0x000015c2:    4282        .B      CMP      r2,r0
        0x000015c4:    d202        ..      BCS      0x15cc ; barrier_wait + 308
        0x000015c6:    6ab2        .j      LDR      r2,[r6,#0x28]
        0x000015c8:    2a00        .*      CMP      r2,#0
        0x000015ca:    d0f8        ..      BEQ      0x15be ; barrier_wait + 294
        0x000015cc:    6ab0        .j      LDR      r0,[r6,#0x28]
        0x000015ce:    2800        .(      CMP      r0,#0
        0x000015d0:    d109        ..      BNE      0x15e6 ; barrier_wait + 334
        0x000015d2:    6d30        0m      LDR      r0,[r6,#0x50]
        0x000015d4:    a143        C.      ADR      r1,{pc}+0x110 ; 0x16e4
        0x000015d6:    4338        8C      ORRS     r0,r0,r7
        0x000015d8:    6530        0e      STR      r0,[r6,#0x50]
        0x000015da:    2000        .       MOVS     r0,#0
        0x000015dc:    f000faca    ....    BL       io_printf ; 0x1b74
        0x000015e0:    20c8        .       MOVS     r0,#0xc8
        0x000015e2:    f7fffd71    ..q.    BL       sark_delay_us ; 0x10c8
        0x000015e6:    bdfe        ..      POP      {r1-r7,pc}
    $d
        0x000015e8:    e5007f10    ....    DCD    3842014992
        0x000015ec:    004000b0    ..@.    DCD    4194480
        0x000015f0:    0ffff801    ....    DCD    268433409
        0x000015f4:    000061a8    .a..    DCD    25000
        0x000015f8:    615b0909    ..[a    DCD    1633356041
        0x000015fc:    775f6970    pi_w    DCD    2002741616
        0x00001600:    5d6e7261    arn]    DCD    1567519329
        0x00001604:    72617720     war    DCD    1918990112
        0x00001608:    676e696e    ning    DCD    1735289198
        0x0000160c:    6166203a    : fa    DCD    1634082874
        0x00001610:    64656c69    iled    DCD    1684368489
        0x00001614:    206f7420     to     DCD    544175136
        0x00001618:    636e7973    sync    DCD    1668184435
        0x0000161c:    6e6f7268    hron    DCD    1852797544
        0x00001620:    20657369    ise     DCD    543519593
        0x00001624:    2f642528    (%d/    DCD    795092264
        0x00001628:    20296425    %d)     DCD    539583525
        0x0000162c:    2f642528    (%d/    DCD    795092264
        0x00001630:    2e296425    %d).    DCD    774464549
        0x00001634:    0000000a    ....    DCD    10
        0x00001638:    615b0909    ..[a    DCD    1633356041
        0x0000163c:    775f6970    pi_w    DCD    2002741616
        0x00001640:    5d6e7261    arn]    DCD    1567519329
        0x00001644:    72617720     war    DCD    1918990112
        0x00001648:    676e696e    ning    DCD    1735289198
        0x0000164c:    6166203a    : fa    DCD    1634082874
        0x00001650:    64656c69    iled    DCD    1684368489
        0x00001654:    206f7420     to     DCD    544175136
        0x00001658:    636e7973    sync    DCD    1668184435
        0x0000165c:    6e6f7268    hron    DCD    1852797544
        0x00001660:    20657369    ise     DCD    543519593
        0x00001664:    2f642528    (%d/    DCD    795092264
        0x00001668:    2e296425    %d).    DCD    774464549
        0x0000166c:    0000000a    ....    DCD    10
        0x00001670:    615b0909    ..[a    DCD    1633356041
        0x00001674:    775f6970    pi_w    DCD    2002741616
        0x00001678:    5d6e7261    arn]    DCD    1567519329
        0x0000167c:    72617720     war    DCD    1918990112
        0x00001680:    676e696e    ning    DCD    1735289198
        0x00001684:    7973203a    : sy    DCD    2037588026
        0x00001688:    7268636e    nchr    DCD    1919443822
        0x0000168c:    73696e6f    onis    DCD    1936289391
        0x00001690:    6f697461    atio    DCD    1869182049
        0x00001694:    6166206e    n fa    DCD    1634082926
        0x00001698:    64656c69    iled    DCD    1684368489
        0x0000169c:    64722820     (rd    DCD    1685202976
        0x000016a0:    296f6779    ygo)    DCD    695166841
        0x000016a4:    00000a2e    ....    DCD    2606
        0x000016a8:    0000c350    P...    DCD    50000
        0x000016ac:    615b0909    ..[a    DCD    1633356041
        0x000016b0:    775f6970    pi_w    DCD    2002741616
        0x000016b4:    5d6e7261    arn]    DCD    1567519329
        0x000016b8:    72617720     war    DCD    1918990112
        0x000016bc:    676e696e    ning    DCD    1735289198
        0x000016c0:    7973203a    : sy    DCD    2037588026
        0x000016c4:    7268636e    nchr    DCD    1919443822
        0x000016c8:    73696e6f    onis    DCD    1936289391
        0x000016cc:    6f697461    atio    DCD    1869182049
        0x000016d0:    6166206e    n fa    DCD    1634082926
        0x000016d4:    64656c69    iled    DCD    1684368489
        0x000016d8:    6f6c2820     (lo    DCD    1869359136
        0x000016dc:    2e296b63    ck).    DCD    774466403
        0x000016e0:    0000000a    ....    DCD    10
        0x000016e4:    615b0909    ..[a    DCD    1633356041
        0x000016e8:    775f6970    pi_w    DCD    2002741616
        0x000016ec:    5d6e7261    arn]    DCD    1567519329
        0x000016f0:    72617720     war    DCD    1918990112
        0x000016f4:    676e696e    ning    DCD    1735289198
        0x000016f8:    7973203a    : sy    DCD    2037588026
        0x000016fc:    7268636e    nchr    DCD    1919443822
        0x00001700:    73696e6f    onis    DCD    1936289391
        0x00001704:    6f697461    atio    DCD    1869182049
        0x00001708:    6974206e    n ti    DCD    1769218158
        0x0000170c:    756f656d    meou    DCD    1970234733
        0x00001710:    67282074    t (g    DCD    1730682996
        0x00001714:    0a2e296f    o)..    DCD    170797423
        0x00001718:    00000000    ....    DCD    0
    $a
    i.cc_rx_ready_fiqsr
    cc_rx_ready_fiqsr
        0x0000171c:    e92d500f    .P-.    PUSH     {r0-r3,r12,lr}
        0x00001720:    e3a00202    ....    MOV      r0,#0x20000000
        0x00001724:    e5901010    ....    LDR      r1,[r0,#0x10]
        0x00001728:    e5900014    ....    LDR      r0,[r0,#0x14]
        0x0000172c:    e59f200c    . ..    LDR      r2,[pc,#12] ; [0x1740] = 0x4007fc
        0x00001730:    e5922000    . ..    LDR      r2,[r2,#0]
        0x00001734:    e12fff32    2./.    BLX      r2
        0x00001738:    e8bd500f    .P..    POP      {r0-r3,r12,lr}
        0x0000173c:    e25ef004    ..^.    SUBS     pc,lr,#4
    $d
        0x00001740:    004007fc    ..@.    DCD    4196348
    $a
    i.cc_rx_ready_isr
    cc_rx_ready_isr
        0x00001744:    e92d500f    .P-.    PUSH     {r0-r3,r12,lr}
        0x00001748:    e3a00202    ....    MOV      r0,#0x20000000
        0x0000174c:    e5902010    . ..    LDR      r2,[r0,#0x10]
        0x00001750:    e5901014    ....    LDR      r1,[r0,#0x14]
        0x00001754:    e59f0020     ...    LDR      r0,[pc,#32] ; [0x177c] = 0x4007fc
        0x00001758:    e5900000    ....    LDR      r0,[r0,#0]
        0x0000175c:    e3500000    ..P.    CMP      r0,#0
        0x00001760:    13a00000    ....    MOVNE    r0,#0
        0x00001764:    1bfffe97    ....    BLNE     schedule ; 0x11c8
        0x00001768:    e3a00001    ....    MOV      r0,#1
        0x0000176c:    e3a0142f    /...    MOV      r1,#0x2f000000
        0x00001770:    e5810030    0...    STR      r0,[r1,#0x30]
        0x00001774:    e8bd500f    .P..    POP      {r0-r3,r12,lr}
        0x00001778:    e25ef004    ..^.    SUBS     pc,lr,#4
    $d
        0x0000177c:    004007fc    ..@.    DCD    4196348
    $a
    i.cc_tx_empty_isr
    cc_tx_empty_isr
        0x00001780:    e92d503f    ?P-.    PUSH     {r0-r5,r12,lr}
        0x00001784:    e3a00000    ....    MOV      r0,#0
        0x00001788:    e3a05202    .R..    MOV      r5,#0x20000000
        0x0000178c:    e5850000    ....    STR      r0,[r5,#0]
        0x00001790:    e59f4060    `@..    LDR      r4,[pc,#96] ; [0x17f8] = 0x400414
        0x00001794:    ea000007    ....    B        0x17b8 ; cc_tx_empty_isr + 56
        0x00001798:    e0830083    ....    ADD      r0,r3,r3,LSL #1
        0x0000179c:    e0842100    .!..    ADD      r2,r4,r0,LSL #2
        0x000017a0:    e2822008    . ..    ADD      r2,r2,#8
        0x000017a4:    e8920007    ....    LDM      r2,{r0-r2}
        0x000017a8:    e2833001    .0..    ADD      r3,r3,#1
        0x000017ac:    e203300f    .0..    AND      r3,r3,#0xf
        0x000017b0:    e5843000    .0..    STR      r3,[r4,#0]
        0x000017b4:    fa000480    ....    BLX      send_mc_packet_fulfil ; 0x29bc
        0x000017b8:    e5940004    ....    LDR      r0,[r4,#4]
        0x000017bc:    e5943000    .0..    LDR      r3,[r4,#0]
        0x000017c0:    e1530000    ..S.    CMP      r3,r0
        0x000017c4:    0a000002    ....    BEQ      0x17d4 ; cc_tx_empty_isr + 84
        0x000017c8:    e5950000    ....    LDR      r0,[r5,#0]
        0x000017cc:    e3100101    ....    TST      r0,#0x40000000
        0x000017d0:    0afffff0    ....    BEQ      0x1798 ; cc_tx_empty_isr + 24
        0x000017d4:    e5942004    . ..    LDR      r2,[r4,#4]
        0x000017d8:    e3a0042f    /...    MOV      r0,#0x2f000000
        0x000017dc:    e1530002    ..S.    CMP      r3,r2
        0x000017e0:    03a01b02    ....    MOVEQ    r1,#0x800
        0x000017e4:    05801014    ....    STREQ    r1,[r0,#0x14]
        0x000017e8:    e3a01001    ....    MOV      r1,#1
        0x000017ec:    e5801030    0...    STR      r1,[r0,#0x30]
        0x000017f0:    e8bd503f    ?P..    POP      {r0-r5,r12,lr}
        0x000017f4:    e25ef004    ..^.    SUBS     pc,lr,#4
    $d
        0x000017f8:    00400414    ..@.    DCD    4195348
    $t
    i.clean_up
    clean_up
        0x000017fc:    b510        ..      PUSH     {r4,lr}
        0x000017fe:    f7ffec92    ....    BLX      cpu_int_disable ; 0x1124
        0x00001802:    222f        /"      MOVS     r2,#0x2f
        0x00001804:    0612        ..      LSLS     r2,r2,#24
        0x00001806:    68d1        .h      LDR      r1,[r2,#0xc]
        0x00001808:    4b0e        .K      LDR      r3,[pc,#56] ; [0x1844] = 0xffffcfad
        0x0000180a:    4019        .@      ANDS     r1,r1,r3
        0x0000180c:    60d1        .`      STR      r1,[r2,#0xc]
        0x0000180e:    490e        .I      LDR      r1,[pc,#56] ; [0x1848] = 0x4000b0
        0x00001810:    2200        ."      MOVS     r2,#0
        0x00001812:    6c09        .l      LDR      r1,[r1,#0x40]
        0x00001814:    4b0e        .K      LDR      r3,[pc,#56] ; [0x1850] = 0x2f000100
        0x00001816:    63d1        .c      STR      r1,[r2,#0x3c]
        0x00001818:    490c        .I      LDR      r1,[pc,#48] ; [0x184c] = 0x1744
        0x0000181a:    60d9        .`      STR      r1,[r3,#0xc]
        0x0000181c:    4b0d        .K      LDR      r3,[pc,#52] ; [0x1854] = 0x4007fc
        0x0000181e:    0011        ..      MOVS     r1,r2
        0x00001820:    00cc        ..      LSLS     r4,r1,#3
        0x00001822:    1c49        I.      ADDS     r1,r1,#1
        0x00001824:    2905        .)      CMP      r1,#5
        0x00001826:    511a        .Q      STR      r2,[r3,r4]
        0x00001828:    d3fa        ..      BCC      0x1820 ; clean_up + 36
        0x0000182a:    2101        .!      MOVS     r1,#1
        0x0000182c:    2321        !#      MOVS     r3,#0x21
        0x0000182e:    061b        ..      LSLS     r3,r3,#24
        0x00001830:    60d9        .`      STR      r1,[r3,#0xc]
        0x00001832:    0789        ..      LSLS     r1,r1,#30
        0x00001834:    618a        .a      STR      r2,[r1,#0x18]
        0x00001836:    223f        ?"      MOVS     r2,#0x3f
        0x00001838:    610a        .a      STR      r2,[r1,#0x10]
        0x0000183a:    220d        ."      MOVS     r2,#0xd
        0x0000183c:    610a        .a      STR      r2,[r1,#0x10]
        0x0000183e:    f7ffec7a    ..z.    BLX      cpu_int_restore ; 0x1134
        0x00001842:    bd10        ..      POP      {r4,pc}
    $d
        0x00001844:    ffffcfad    ....    DCD    4294954925
        0x00001848:    004000b0    ..@.    DCD    4194480
        0x0000184c:    00001744    D...    DCD    5956
        0x00001850:    2f000100    .../    DCD    788529408
        0x00001854:    004007fc    ..@.    DCD    4196348
    $t
    i.configure_vic
    configure_vic
        0x00001858:    b530        0.      PUSH     {r4,r5,lr}
        0x0000185a:    2000        .       MOVS     r0,#0
        0x0000185c:    232f        /#      MOVS     r3,#0x2f
        0x0000185e:    4c1b        .L      LDR      r4,[pc,#108] ; [0x18cc] = 0x3012
        0x00001860:    061b        ..      LSLS     r3,r3,#24
        0x00001862:    615c        \a      STR      r4,[r3,#0x14]
        0x00001864:    491a        .I      LDR      r1,[pc,#104] ; [0x18d0] = 0x4000b0
        0x00001866:    0002        ..      MOVS     r2,r0
        0x00001868:    6b09        .k      LDR      r1,[r1,#0x30]
        0x0000186a:    2900        .)      CMP      r1,#0
        0x0000186c:    d021        !.      BEQ      0x18b2 ; configure_vic + 90
        0x0000186e:    2901        .)      CMP      r1,#1
        0x00001870:    d022        ".      BEQ      0x18b8 ; configure_vic + 96
        0x00001872:    2902        .)      CMP      r1,#2
        0x00001874:    d025        %.      BEQ      0x18c2 ; configure_vic + 106
        0x00001876:    2904        .)      CMP      r1,#4
        0x00001878:    d102        ..      BNE      0x1880 ; configure_vic + 40
        0x0000187a:    4816        .H      LDR      r0,[pc,#88] ; [0x18d4] = 0x29cc
        0x0000187c:    63d0        .c      STR      r0,[r2,#0x3c]
        0x0000187e:    2002        .       MOVS     r0,#2
        0x00001880:    4916        .I      LDR      r1,[pc,#88] ; [0x18dc] = 0x2f000100
        0x00001882:    4a15        .J      LDR      r2,[pc,#84] ; [0x18d8] = 0x19fc
        0x00001884:    608a        .`      STR      r2,[r1,#8]
        0x00001886:    4a16        .J      LDR      r2,[pc,#88] ; [0x18e0] = 0x2f000200
        0x00001888:    252c        ,%      MOVS     r5,#0x2c
        0x0000188a:    6095        .`      STR      r5,[r2,#8]
        0x0000188c:    4d15        .M      LDR      r5,[pc,#84] ; [0x18e4] = 0x2ea4
        0x0000188e:    604d        M`      STR      r5,[r1,#4]
        0x00001890:    2524        $%      MOVS     r5,#0x24
        0x00001892:    6055        U`      STR      r5,[r2,#4]
        0x00001894:    4d14        .M      LDR      r5,[pc,#80] ; [0x18e8] = 0x1780
        0x00001896:    610d        .a      STR      r5,[r1,#0x10]
        0x00001898:    252b        +%      MOVS     r5,#0x2b
        0x0000189a:    6115        .a      STR      r5,[r2,#0x10]
        0x0000189c:    4d13        .M      LDR      r5,[pc,#76] ; [0x18ec] = 0x2a1c
        0x0000189e:    614d        Ma      STR      r5,[r1,#0x14]
        0x000018a0:    2121        !!      MOVS     r1,#0x21
        0x000018a2:    6151        Qa      STR      r1,[r2,#0x14]
        0x000018a4:    68d9        .h      LDR      r1,[r3,#0xc]
        0x000018a6:    43a1        .C      BICS     r1,r1,r4
        0x000018a8:    4301        .C      ORRS     r1,r1,r0
        0x000018aa:    60d9        .`      STR      r1,[r3,#0xc]
        0x000018ac:    4810        .H      LDR      r0,[pc,#64] ; [0x18f0] = 0x1012
        0x000018ae:    6118        .a      STR      r0,[r3,#0x10]
        0x000018b0:    bd30        0.      POP      {r4,r5,pc}
        0x000018b2:    4910        .I      LDR      r1,[pc,#64] ; [0x18f4] = 0x171c
        0x000018b4:    63d1        .c      STR      r1,[r2,#0x3c]
        0x000018b6:    e7e3        ..      B        0x1880 ; configure_vic + 40
        0x000018b8:    480f        .H      LDR      r0,[pc,#60] ; [0x18f8] = 0x1980
        0x000018ba:    63d0        .c      STR      r0,[r2,#0x3c]
        0x000018bc:    2001        .       MOVS     r0,#1
        0x000018be:    0300        ..      LSLS     r0,r0,#12
        0x000018c0:    e7de        ..      B        0x1880 ; configure_vic + 40
        0x000018c2:    480e        .H      LDR      r0,[pc,#56] ; [0x18fc] = 0x2e60
        0x000018c4:    63d0        .c      STR      r0,[r2,#0x3c]
        0x000018c6:    2010        .       MOVS     r0,#0x10
        0x000018c8:    e7da        ..      B        0x1880 ; configure_vic + 40
    $d
        0x000018ca:    0000        ..      DCW    0
        0x000018cc:    00003012    .0..    DCD    12306
        0x000018d0:    004000b0    ..@.    DCD    4194480
        0x000018d4:    000029cc    .)..    DCD    10700
        0x000018d8:    000019fc    ....    DCD    6652
        0x000018dc:    2f000100    .../    DCD    788529408
        0x000018e0:    2f000200    .../    DCD    788529664
        0x000018e4:    00002ea4    ....    DCD    11940
        0x000018e8:    00001780    ....    DCD    6016
        0x000018ec:    00002a1c    .*..    DCD    10780
        0x000018f0:    00001012    ....    DCD    4114
        0x000018f4:    0000171c    ....    DCD    5916
        0x000018f8:    00001980    ....    DCD    6528
        0x000018fc:    00002e60    `...    DCD    11872
    $t
    i.dispatch
    dispatch
        0x00001900:    b5f8        ..      PUSH     {r3-r7,lr}
        0x00001902:    e033        3.      B        0x196c ; dispatch + 108
        0x00001904:    2400        .$      MOVS     r4,#0
        0x00001906:    f7ffec0e    ....    BLX      cpu_int_disable ; 0x1124
        0x0000190a:    0005        ..      MOVS     r5,r0
        0x0000190c:    e01f        ..      B        0x194e ; dispatch + 78
        0x0000190e:    20c8        .       MOVS     r0,#0xc8
        0x00001910:    4360        `C      MULS     r0,r4,r0
        0x00001912:    4919        .I      LDR      r1,[pc,#100] ; [0x1978] = 0x4004dc
        0x00001914:    1c64        d.      ADDS     r4,r4,#1
        0x00001916:    1840        @.      ADDS     r0,r0,r1
        0x00001918:    6802        .h      LDR      r2,[r0,#0]
        0x0000191a:    6841        Ah      LDR      r1,[r0,#4]
        0x0000191c:    428a        .B      CMP      r2,r1
        0x0000191e:    d016        ..      BEQ      0x194e ; dispatch + 78
        0x00001920:    210c        .!      MOVS     r1,#0xc
        0x00001922:    4351        QC      MULS     r1,r2,r1
        0x00001924:    1c52        R.      ADDS     r2,r2,#1
        0x00001926:    1809        ..      ADDS     r1,r1,r0
        0x00001928:    68cf        .h      LDR      r7,[r1,#0xc]
        0x0000192a:    688e        .h      LDR      r6,[r1,#8]
        0x0000192c:    6909        .i      LDR      r1,[r1,#0x10]
        0x0000192e:    9100        ..      STR      r1,[sp,#0]
        0x00001930:    0711        ..      LSLS     r1,r2,#28
        0x00001932:    0f09        ..      LSRS     r1,r1,#28
        0x00001934:    2e00        ..      CMP      r6,#0
        0x00001936:    6001        .`      STR      r1,[r0,#0]
        0x00001938:    d009        ..      BEQ      0x194e ; dispatch + 78
        0x0000193a:    0028        (.      MOVS     r0,r5
        0x0000193c:    f7ffebfa    ....    BLX      cpu_int_restore ; 0x1134
        0x00001940:    9900        ..      LDR      r1,[sp,#0]
        0x00001942:    0038        8.      MOVS     r0,r7
        0x00001944:    47b0        .G      BLX      r6
        0x00001946:    f7ffebee    ....    BLX      cpu_int_disable ; 0x1124
        0x0000194a:    0005        ..      MOVS     r5,r0
        0x0000194c:    2400        .$      MOVS     r4,#0
        0x0000194e:    480b        .H      LDR      r0,[pc,#44] ; [0x197c] = 0x4000b0
        0x00001950:    68c0        .h      LDR      r0,[r0,#0xc]
        0x00001952:    2800        .(      CMP      r0,#0
        0x00001954:    d001        ..      BEQ      0x195a ; dispatch + 90
        0x00001956:    2c04        .,      CMP      r4,#4
        0x00001958:    d3d9        ..      BCC      0x190e ; dispatch + 14
        0x0000195a:    4808        .H      LDR      r0,[pc,#32] ; [0x197c] = 0x4000b0
        0x0000195c:    68c0        .h      LDR      r0,[r0,#0xc]
        0x0000195e:    2800        .(      CMP      r0,#0
        0x00001960:    d004        ..      BEQ      0x196c ; dispatch + 108
        0x00001962:    f7ffec52    ..R.    BLX      cpu_wfi ; 0x1208
        0x00001966:    0028        (.      MOVS     r0,r5
        0x00001968:    f7ffebe4    ....    BLX      cpu_int_restore ; 0x1134
        0x0000196c:    4e03        .N      LDR      r6,[pc,#12] ; [0x197c] = 0x4000b0
        0x0000196e:    68f0        .h      LDR      r0,[r6,#0xc]
        0x00001970:    2800        .(      CMP      r0,#0
        0x00001972:    d1c7        ..      BNE      0x1904 ; dispatch + 4
        0x00001974:    bdf8        ..      POP      {r3-r7,pc}
    $d
        0x00001976:    0000        ..      DCW    0
        0x00001978:    004004dc    ..@.    DCD    4195548
        0x0000197c:    004000b0    ..@.    DCD    4194480
    $a
    i.dma_done_fiqsr
    dma_done_fiqsr
        0x00001980:    e92d500f    .P-.    PUSH     {r0-r3,r12,lr}
        0x00001984:    e3a00008    ....    MOV      r0,#8
        0x00001988:    e3a0c101    ....    MOV      r12,#0x40000000
        0x0000198c:    e58c0010    ....    STR      r0,[r12,#0x10]
        0x00001990:    e59f305c    \0..    LDR      r3,[pc,#92] ; [0x19f4] = 0x4002cc
        0x00001994:    e5932000    . ..    LDR      r2,[r3,#0]
        0x00001998:    e0820102    ....    ADD      r0,r2,r2,LSL #2
        0x0000199c:    e0831100    ....    ADD      r1,r3,r0,LSL #2
        0x000019a0:    e5910008    ....    LDR      r0,[r1,#8]
        0x000019a4:    e2822001    . ..    ADD      r2,r2,#1
        0x000019a8:    e591100c    ....    LDR      r1,[r1,#0xc]
        0x000019ac:    e202200f    . ..    AND      r2,r2,#0xf
        0x000019b0:    e5832000    . ..    STR      r2,[r3,#0]
        0x000019b4:    e593e004    ....    LDR      lr,[r3,#4]
        0x000019b8:    e152000e    ..R.    CMP      r2,lr
        0x000019bc:    0a000007    ....    BEQ      0x19e0 ; dma_done_fiqsr + 96
        0x000019c0:    e0822102    .!..    ADD      r2,r2,r2,LSL #2
        0x000019c4:    e0832102    .!..    ADD      r2,r3,r2,LSL #2
        0x000019c8:    e5923014    .0..    LDR      r3,[r2,#0x14]
        0x000019cc:    e592e010    ....    LDR      lr,[r2,#0x10]
        0x000019d0:    e5922018    . ..    LDR      r2,[r2,#0x18]
        0x000019d4:    e58ce004    ....    STR      lr,[r12,#4]
        0x000019d8:    e58c3008    .0..    STR      r3,[r12,#8]
        0x000019dc:    e58c200c    . ..    STR      r2,[r12,#0xc]
        0x000019e0:    e59f2010    . ..    LDR      r2,[pc,#16] ; [0x19f8] = 0x4007fc
        0x000019e4:    e5922008    . ..    LDR      r2,[r2,#8]
        0x000019e8:    e12fff32    2./.    BLX      r2
        0x000019ec:    e8bd500f    .P..    POP      {r0-r3,r12,lr}
        0x000019f0:    e25ef004    ..^.    SUBS     pc,lr,#4
    $d
        0x000019f4:    004002cc    ..@.    DCD    4195020
        0x000019f8:    004007fc    ..@.    DCD    4196348
    $a
    i.dma_done_isr
    dma_done_isr
        0x000019fc:    e92d500f    .P-.    PUSH     {r0-r3,r12,lr}
        0x00001a00:    e3a00008    ....    MOV      r0,#8
        0x00001a04:    e3a0c101    ....    MOV      r12,#0x40000000
        0x00001a08:    e58c0010    ....    STR      r0,[r12,#0x10]
        0x00001a0c:    e59f3070    p0..    LDR      r3,[pc,#112] ; [0x1a84] = 0x4002cc
        0x00001a10:    e5930000    ....    LDR      r0,[r3,#0]
        0x00001a14:    e0801100    ....    ADD      r1,r0,r0,LSL #2
        0x00001a18:    e0832101    .!..    ADD      r2,r3,r1,LSL #2
        0x00001a1c:    e5921008    ....    LDR      r1,[r2,#8]
        0x00001a20:    e2800001    ....    ADD      r0,r0,#1
        0x00001a24:    e592200c    . ..    LDR      r2,[r2,#0xc]
        0x00001a28:    e200000f    ....    AND      r0,r0,#0xf
        0x00001a2c:    e5830000    ....    STR      r0,[r3,#0]
        0x00001a30:    e593e004    ....    LDR      lr,[r3,#4]
        0x00001a34:    e150000e    ..P.    CMP      r0,lr
        0x00001a38:    0a000007    ....    BEQ      0x1a5c ; dma_done_isr + 96
        0x00001a3c:    e0800100    ....    ADD      r0,r0,r0,LSL #2
        0x00001a40:    e0830100    ....    ADD      r0,r3,r0,LSL #2
        0x00001a44:    e5903010    .0..    LDR      r3,[r0,#0x10]
        0x00001a48:    e590e014    ....    LDR      lr,[r0,#0x14]
        0x00001a4c:    e5900018    ....    LDR      r0,[r0,#0x18]
        0x00001a50:    e58c3004    .0..    STR      r3,[r12,#4]
        0x00001a54:    e58ce008    ....    STR      lr,[r12,#8]
        0x00001a58:    e58c000c    ....    STR      r0,[r12,#0xc]
        0x00001a5c:    e59f0024    $...    LDR      r0,[pc,#36] ; [0x1a88] = 0x4007fc
        0x00001a60:    e5900008    ....    LDR      r0,[r0,#8]
        0x00001a64:    e3500000    ..P.    CMP      r0,#0
        0x00001a68:    13a00001    ....    MOVNE    r0,#1
        0x00001a6c:    1bfffdd5    ....    BLNE     schedule ; 0x11c8
        0x00001a70:    e3a00001    ....    MOV      r0,#1
        0x00001a74:    e3a0142f    /...    MOV      r1,#0x2f000000
        0x00001a78:    e5810030    0...    STR      r0,[r1,#0x30]
        0x00001a7c:    e8bd500f    .P..    POP      {r0-r3,r12,lr}
        0x00001a80:    e25ef004    ..^.    SUBS     pc,lr,#4
    $d
        0x00001a84:    004002cc    ..@.    DCD    4195020
        0x00001a88:    004007fc    ..@.    DCD    4196348
    $t
    i.event_alloc
    event_alloc
        0x00001a8c:    b570        p.      PUSH     {r4-r6,lr}
        0x00001a8e:    0006        ..      MOVS     r6,r0
        0x00001a90:    2118        .!      MOVS     r1,#0x18
        0x00001a92:    f000fb87    ....    BL       sark_alloc ; 0x21a4
        0x00001a96:    4d0c        .M      LDR      r5,[pc,#48] ; [0x1ac8] = 0x400230
        0x00001a98:    0004        ..      MOVS     r4,r0
        0x00001a9a:    d00e        ..      BEQ      0x1aba ; event_alloc + 46
        0x00001a9c:    2218        ."      MOVS     r2,#0x18
        0x00001a9e:    0031        1.      MOVS     r1,r6
        0x00001aa0:    0020         .      MOVS     r0,r4
        0x00001aa2:    f000fb8b    ....    BL       sark_block_init ; 0x21bc
        0x00001aa6:    0006        ..      MOVS     r6,r0
        0x00001aa8:    f7ffeb3c    ..<.    BLX      cpu_int_disable ; 0x1124
        0x00001aac:    6829        )h      LDR      r1,[r5,#0]
        0x00001aae:    6031        1`      STR      r1,[r6,#0]
        0x00001ab0:    602c        ,`      STR      r4,[r5,#0]
        0x00001ab2:    f7ffeb40    ..@.    BLX      cpu_int_restore ; 0x1134
        0x00001ab6:    2001        .       MOVS     r0,#1
        0x00001ab8:    bd70        p.      POP      {r4-r6,pc}
        0x00001aba:    6968        hi      LDR      r0,[r5,#0x14]
        0x00001abc:    2108        .!      MOVS     r1,#8
        0x00001abe:    4308        .C      ORRS     r0,r0,r1
        0x00001ac0:    6168        ha      STR      r0,[r5,#0x14]
        0x00001ac2:    2000        .       MOVS     r0,#0
        0x00001ac4:    bd70        p.      POP      {r4-r6,pc}
    $d
        0x00001ac6:    0000        ..      DCW    0
        0x00001ac8:    00400230    0.@.    DCD    4194864
    $t
    i.event_pause
    event_pause
        0x00001acc:    4909        .I      LDR      r1,[pc,#36] ; [0x1af4] = 0x4001f8
        0x00001ace:    4b0a        .K      LDR      r3,[pc,#40] ; [0x1af8] = 0x400230
        0x00001ad0:    69c9        .i      LDR      r1,[r1,#0x1c]
        0x00001ad2:    3120         1      ADDS     r1,r1,#0x20
        0x00001ad4:    2800        .(      CMP      r0,#0
        0x00001ad6:    d003        ..      BEQ      0x1ae0 ; event_pause + 20
        0x00001ad8:    2201        ."      MOVS     r2,#1
        0x00001ada:    761a        .v      STRB     r2,[r3,#0x18]
        0x00001adc:    2209        ."      MOVS     r2,#9
        0x00001ade:    e002        ..      B        0x1ae6 ; event_pause + 26
        0x00001ae0:    2200        ."      MOVS     r2,#0
        0x00001ae2:    761a        .v      STRB     r2,[r3,#0x18]
        0x00001ae4:    2205        ."      MOVS     r2,#5
        0x00001ae6:    738a        .s      STRB     r2,[r1,#0xe]
        0x00001ae8:    6b1a        .k      LDR      r2,[r3,#0x30]
        0x00001aea:    2a00        .*      CMP      r2,#0
        0x00001aec:    d001        ..      BEQ      0x1af2 ; event_pause + 38
        0x00001aee:    6b59        Yk      LDR      r1,[r3,#0x34]
        0x00001af0:    4710        .G      BX       r2
        0x00001af2:    4770        pG      BX       lr
    $d
        0x00001af4:    004001f8    ..@.    DCD    4194808
        0x00001af8:    00400230    0.@.    DCD    4194864
    $t
    i.event_stop
    event_stop
        0x00001afc:    4904        .I      LDR      r1,[pc,#16] ; [0x1b10] = 0x400230
        0x00001afe:    2202        ."      MOVS     r2,#2
        0x00001b00:    760a        .v      STRB     r2,[r1,#0x18]
        0x00001b02:    232f        /#      MOVS     r3,#0x2f
        0x00001b04:    6cca        .l      LDR      r2,[r1,#0x4c]
        0x00001b06:    061b        ..      LSLS     r3,r3,#24
        0x00001b08:    615a        Za      STR      r2,[r3,#0x14]
        0x00001b0a:    6388        .c      STR      r0,[r1,#0x38]
        0x00001b0c:    4770        pG      BX       lr
    $d
        0x00001b0e:    0000        ..      DCW    0
        0x00001b10:    00400230    0.@.    DCD    4194864
    $t
    i.get4
    get4
        0x00001b14:    08ca        ..      LSRS     r2,r1,#3
        0x00001b16:    0092        ..      LSLS     r2,r2,#2
        0x00001b18:    0749        I.      LSLS     r1,r1,#29
        0x00001b1a:    5880        .X      LDR      r0,[r0,r2]
        0x00001b1c:    0ec9        ..      LSRS     r1,r1,#27
        0x00001b1e:    40c8        .@      LSRS     r0,r0,r1
        0x00001b20:    0700        ..      LSLS     r0,r0,#28
        0x00001b22:    0f00        ..      LSRS     r0,r0,#28
        0x00001b24:    4770        pG      BX       lr
        0x00001b26:    0000        ..      MOVS     r0,r0
    i.io_buf_init
    io_buf_init
        0x00001b28:    480e        .H      LDR      r0,[pc,#56] ; [0x1b64] = 0xe5007f40
        0x00001b2a:    b510        ..      PUSH     {r4,lr}
        0x00001b2c:    6901        .i      LDR      r1,[r0,#0x10]
        0x00001b2e:    480d        .H      LDR      r0,[pc,#52] ; [0x1b64] = 0xe5007f40
        0x00001b30:    3110        .1      ADDS     r1,r1,#0x10
        0x00001b32:    3080        .0      ADDS     r0,r0,#0x80
        0x00001b34:    6900        .i      LDR      r0,[r0,#0x10]
        0x00001b36:    2200        ."      MOVS     r2,#0
        0x00001b38:    2301        .#      MOVS     r3,#1
        0x00001b3a:    f000fe9f    ....    BL       sark_xalloc ; 0x287c
        0x00001b3e:    0004        ..      MOVS     r4,r0
        0x00001b40:    d102        ..      BNE      0x1b48 ; io_buf_init + 32
        0x00001b42:    200e        .       MOVS     r0,#0xe
        0x00001b44:    f7feeaf0    ....    BLX      rt_error ; 0x128
        0x00001b48:    4806        .H      LDR      r0,[pc,#24] ; [0x1b64] = 0xe5007f40
        0x00001b4a:    3840        @8      SUBS     r0,r0,#0x40
        0x00001b4c:    69c1        .i      LDR      r1,[r0,#0x1c]
        0x00001b4e:    6061        a`      STR      r1,[r4,#4]
        0x00001b50:    8b00        ..      LDRH     r0,[r0,#0x18]
        0x00001b52:    60a0        .`      STR      r0,[r4,#8]
        0x00001b54:    4904        .I      LDR      r1,[pc,#16] ; [0x1b68] = 0x4000a0
        0x00001b56:    2000        .       MOVS     r0,#0
        0x00001b58:    6020         `      STR      r0,[r4,#0]
        0x00001b5a:    6048        H`      STR      r0,[r1,#4]
        0x00001b5c:    60e0        .`      STR      r0,[r4,#0xc]
        0x00001b5e:    0020         .      MOVS     r0,r4
        0x00001b60:    bd10        ..      POP      {r4,pc}
    $d
        0x00001b62:    0000        ..      DCW    0
        0x00001b64:    e5007f40    @...    DCD    3842015040
        0x00001b68:    004000a0    ..@.    DCD    4194464
    $a
    $Ven$AT$I$$io_printf
        0x00001b6c:    e28fc001    ....    ADR      r12,{pc}+9 ; 0x1b75
        0x00001b70:    e12fff1c    ../.    BX       r12
    $t
    i.io_printf
    io_printf
        0x00001b74:    b40f        ..      PUSH     {r0-r3}
        0x00001b76:    b5f0        ..      PUSH     {r4-r7,lr}
        0x00001b78:    b089        ..      SUB      sp,sp,#0x24
        0x00001b7a:    980e        ..      LDR      r0,[sp,#0x38]
        0x00001b7c:    2803        .(      CMP      r0,#3
        0x00001b7e:    d073        s.      BEQ      0x1c68 ; io_printf + 244
        0x00001b80:    d904        ..      BLS      0x1b8c ; io_printf + 24
        0x00001b82:    990e        ..      LDR      r1,[sp,#0x38]
        0x00001b84:    2000        .       MOVS     r0,#0
        0x00001b86:    7008        .p      STRB     r0,[r1,#0]
        0x00001b88:    4977        wI      LDR      r1,[pc,#476] ; [0x1d68] = 0x4000a0
        0x00001b8a:    6008        .`      STR      r0,[r1,#0]
        0x00001b8c:    ac10        ..      ADD      r4,sp,#0x40
        0x00001b8e:    980f        ..      LDR      r0,[sp,#0x3c]
        0x00001b90:    7801        .x      LDRB     r1,[r0,#0]
        0x00001b92:    1c40        @.      ADDS     r0,r0,#1
        0x00001b94:    2900        .)      CMP      r1,#0
        0x00001b96:    900f        ..      STR      r0,[sp,#0x3c]
        0x00001b98:    d066        f.      BEQ      0x1c68 ; io_printf + 244
        0x00001b9a:    2925        %)      CMP      r1,#0x25
        0x00001b9c:    d14d        M.      BNE      0x1c3a ; io_printf + 198
        0x00001b9e:    7801        .x      LDRB     r1,[r0,#0]
        0x00001ba0:    1c40        @.      ADDS     r0,r0,#1
        0x00001ba2:    2900        .)      CMP      r1,#0
        0x00001ba4:    900f        ..      STR      r0,[sp,#0x3c]
        0x00001ba6:    d05f        _.      BEQ      0x1c68 ; io_printf + 244
        0x00001ba8:    2720         '      MOVS     r7,#0x20
        0x00001baa:    2930        0)      CMP      r1,#0x30
        0x00001bac:    d100        ..      BNE      0x1bb0 ; io_printf + 60
        0x00001bae:    000f        ..      MOVS     r7,r1
        0x00001bb0:    2600        .&      MOVS     r6,#0
        0x00001bb2:    e009        ..      B        0x1bc8 ; io_printf + 84
        0x00001bb4:    200a        .       MOVS     r0,#0xa
        0x00001bb6:    4346        FC      MULS     r6,r0,r6
        0x00001bb8:    980f        ..      LDR      r0,[sp,#0x3c]
        0x00001bba:    1876        v.      ADDS     r6,r6,r1
        0x00001bbc:    7801        .x      LDRB     r1,[r0,#0]
        0x00001bbe:    1c40        @.      ADDS     r0,r0,#1
        0x00001bc0:    3e30        0>      SUBS     r6,r6,#0x30
        0x00001bc2:    2900        .)      CMP      r1,#0
        0x00001bc4:    900f        ..      STR      r0,[sp,#0x3c]
        0x00001bc6:    d04f        O.      BEQ      0x1c68 ; io_printf + 244
        0x00001bc8:    0008        ..      MOVS     r0,r1
        0x00001bca:    3830        08      SUBS     r0,r0,#0x30
        0x00001bcc:    2809        .(      CMP      r0,#9
        0x00001bce:    d9f1        ..      BLS      0x1bb4 ; io_printf + 64
        0x00001bd0:    2506        .%      MOVS     r5,#6
        0x00001bd2:    292e        .)      CMP      r1,#0x2e
        0x00001bd4:    d10f        ..      BNE      0x1bf6 ; io_printf + 130
        0x00001bd6:    2500        .%      MOVS     r5,#0
        0x00001bd8:    e003        ..      B        0x1be2 ; io_printf + 110
        0x00001bda:    200a        .       MOVS     r0,#0xa
        0x00001bdc:    4345        EC      MULS     r5,r0,r5
        0x00001bde:    186d        m.      ADDS     r5,r5,r1
        0x00001be0:    3d30        0=      SUBS     r5,r5,#0x30
        0x00001be2:    980f        ..      LDR      r0,[sp,#0x3c]
        0x00001be4:    7801        .x      LDRB     r1,[r0,#0]
        0x00001be6:    1c40        @.      ADDS     r0,r0,#1
        0x00001be8:    900f        ..      STR      r0,[sp,#0x3c]
        0x00001bea:    0008        ..      MOVS     r0,r1
        0x00001bec:    3830        08      SUBS     r0,r0,#0x30
        0x00001bee:    2809        .(      CMP      r0,#9
        0x00001bf0:    d9f3        ..      BLS      0x1bda ; io_printf + 102
        0x00001bf2:    2900        .)      CMP      r1,#0
        0x00001bf4:    d038        8.      BEQ      0x1c68 ; io_printf + 244
        0x00001bf6:    296b        k)      CMP      r1,#0x6b
        0x00001bf8:    d071        q.      BEQ      0x1cde ; io_printf + 362
        0x00001bfa:    dc13        ..      BGT      0x1c24 ; io_printf + 176
        0x00001bfc:    2963        c)      CMP      r1,#0x63
        0x00001bfe:    d01b        ..      BEQ      0x1c38 ; io_printf + 196
        0x00001c00:    dc04        ..      BGT      0x1c0c ; io_printf + 152
        0x00001c02:    294b        K)      CMP      r1,#0x4b
        0x00001c04:    d006        ..      BEQ      0x1c14 ; io_printf + 160
        0x00001c06:    2952        R)      CMP      r1,#0x52
        0x00001c08:    d117        ..      BNE      0x1c3a ; io_printf + 198
        0x00001c0a:    e003        ..      B        0x1c14 ; io_printf + 160
        0x00001c0c:    2964        d)      CMP      r1,#0x64
        0x00001c0e:    d034        4.      BEQ      0x1c7a ; io_printf + 262
        0x00001c10:    2966        f)      CMP      r1,#0x66
        0x00001c12:    d112        ..      BNE      0x1c3a ; io_printf + 198
        0x00001c14:    9700        ..      STR      r7,[sp,#0]
        0x00001c16:    cc02        ..      LDM      r4!,{r1}
        0x00001c18:    980e        ..      LDR      r0,[sp,#0x38]
        0x00001c1a:    002b        +.      MOVS     r3,r5
        0x00001c1c:    0032        2.      MOVS     r2,r6
        0x00001c1e:    f000f9b5    ....    BL       io_put_ufixed ; 0x1f8c
        0x00001c22:    e7b4        ..      B        0x1b8e ; io_printf + 26
        0x00001c24:    000b        ..      MOVS     r3,r1
        0x00001c26:    3b72        r;      SUBS     r3,r3,#0x72
        0x00001c28:    f7ffeb36    ..6.    BLX      __ARM_common_switch8 ; 0x1298
    $d
        0x00001c2c:    070b5909    .Y..    DCD    118184201
        0x00001c30:    6107072e    ...a    DCD    1627850542
        0x00001c34:    00078907    ....    DCD    493831
    $t
        0x00001c38:    cc02        ..      LDM      r4!,{r1}
        0x00001c3a:    980e        ..      LDR      r0,[sp,#0x38]
        0x00001c3c:    f000f898    ....    BL       io_put_char ; 0x1d70
        0x00001c40:    e7a5        ..      B        0x1b8e ; io_printf + 26
        0x00001c42:    cc20         .      LDM      r4!,{r5}
        0x00001c44:    0028        (.      MOVS     r0,r5
        0x00001c46:    2700        .'      MOVS     r7,#0
        0x00001c48:    e000        ..      B        0x1c4c ; io_printf + 216
        0x00001c4a:    1c7f        ..      ADDS     r7,r7,#1
        0x00001c4c:    7801        .x      LDRB     r1,[r0,#0]
        0x00001c4e:    1c40        @.      ADDS     r0,r0,#1
        0x00001c50:    2900        .)      CMP      r1,#0
        0x00001c52:    d1fa        ..      BNE      0x1c4a ; io_printf + 214
        0x00001c54:    e003        ..      B        0x1c5e ; io_printf + 234
        0x00001c56:    980e        ..      LDR      r0,[sp,#0x38]
        0x00001c58:    2120         !      MOVS     r1,#0x20
        0x00001c5a:    f000f889    ....    BL       io_put_char ; 0x1d70
        0x00001c5e:    0030        0.      MOVS     r0,r6
        0x00001c60:    1e76        v.      SUBS     r6,r6,#1
        0x00001c62:    42b8        .B      CMP      r0,r7
        0x00001c64:    dcf7        ..      BGT      0x1c56 ; io_printf + 226
        0x00001c66:    e004        ..      B        0x1c72 ; io_printf + 254
        0x00001c68:    e079        y.      B        0x1d5e ; io_printf + 490
        0x00001c6a:    980e        ..      LDR      r0,[sp,#0x38]
        0x00001c6c:    1c6d        m.      ADDS     r5,r5,#1
        0x00001c6e:    f000f87f    ....    BL       io_put_char ; 0x1d70
        0x00001c72:    7829        )x      LDRB     r1,[r5,#0]
        0x00001c74:    2900        .)      CMP      r1,#0
        0x00001c76:    d1f8        ..      BNE      0x1c6a ; io_printf + 246
        0x00001c78:    e789        ..      B        0x1b8e ; io_printf + 26
        0x00001c7a:    cc02        ..      LDM      r4!,{r1}
        0x00001c7c:    980e        ..      LDR      r0,[sp,#0x38]
        0x00001c7e:    003b        ;.      MOVS     r3,r7
        0x00001c80:    0032        2.      MOVS     r2,r6
        0x00001c82:    f000f941    ..A.    BL       io_put_int ; 0x1f08
        0x00001c86:    e782        ..      B        0x1b8e ; io_printf + 26
        0x00001c88:    cc02        ..      LDM      r4!,{r1}
        0x00001c8a:    2500        .%      MOVS     r5,#0
        0x00001c8c:    a801        ..      ADD      r0,sp,#4
        0x00001c8e:    f7ffea26    ..&.    BLX      sark_div10 ; 0x10dc
        0x00001c92:    9902        ..      LDR      r1,[sp,#8]
        0x00001c94:    a803        ..      ADD      r0,sp,#0xc
        0x00001c96:    3130        01      ADDS     r1,r1,#0x30
        0x00001c98:    5541        AU      STRB     r1,[r0,r5]
        0x00001c9a:    9901        ..      LDR      r1,[sp,#4]
        0x00001c9c:    1c6d        m.      ADDS     r5,r5,#1
        0x00001c9e:    2900        .)      CMP      r1,#0
        0x00001ca0:    d1f4        ..      BNE      0x1c8c ; io_printf + 280
        0x00001ca2:    2d00        .-      CMP      r5,#0
        0x00001ca4:    dd04        ..      BLE      0x1cb0 ; io_printf + 316
        0x00001ca6:    1e6d        m.      SUBS     r5,r5,#1
        0x00001ca8:    a803        ..      ADD      r0,sp,#0xc
        0x00001caa:    5d40        @]      LDRB     r0,[r0,r5]
        0x00001cac:    2830        0(      CMP      r0,#0x30
        0x00001cae:    d0f8        ..      BEQ      0x1ca2 ; io_printf + 302
        0x00001cb0:    1c68        h.      ADDS     r0,r5,#1
        0x00001cb2:    9008        ..      STR      r0,[sp,#0x20]
        0x00001cb4:    e003        ..      B        0x1cbe ; io_printf + 330
        0x00001cb6:    980e        ..      LDR      r0,[sp,#0x38]
        0x00001cb8:    0039        9.      MOVS     r1,r7
        0x00001cba:    f000f859    ..Y.    BL       io_put_char ; 0x1d70
        0x00001cbe:    9908        ..      LDR      r1,[sp,#0x20]
        0x00001cc0:    0030        0.      MOVS     r0,r6
        0x00001cc2:    1e76        v.      SUBS     r6,r6,#1
        0x00001cc4:    4288        .B      CMP      r0,r1
        0x00001cc6:    d8f6        ..      BHI      0x1cb6 ; io_printf + 322
        0x00001cc8:    ae03        ..      ADD      r6,sp,#0xc
        0x00001cca:    e004        ..      B        0x1cd6 ; io_printf + 354
        0x00001ccc:    5d71        q]      LDRB     r1,[r6,r5]
        0x00001cce:    980e        ..      LDR      r0,[sp,#0x38]
        0x00001cd0:    1e6d        m.      SUBS     r5,r5,#1
        0x00001cd2:    f000f84d    ..M.    BL       io_put_char ; 0x1d70
        0x00001cd6:    2d00        .-      CMP      r5,#0
        0x00001cd8:    daf8        ..      BGE      0x1ccc ; io_printf + 344
        0x00001cda:    e758        X.      B        0x1b8e ; io_printf + 26
        0x00001cdc:    e7ff        ..      B        0x1cde ; io_printf + 362
        0x00001cde:    9700        ..      STR      r7,[sp,#0]
        0x00001ce0:    cc02        ..      LDM      r4!,{r1}
        0x00001ce2:    980e        ..      LDR      r0,[sp,#0x38]
        0x00001ce4:    002b        +.      MOVS     r3,r5
        0x00001ce6:    0032        2.      MOVS     r2,r6
        0x00001ce8:    f000f940    ..@.    BL       io_put_sfixed ; 0x1f6c
        0x00001cec:    e74f        O.      B        0x1b8e ; io_printf + 26
        0x00001cee:    cc01        ..      LDM      r4!,{r0}
        0x00001cf0:    4b1e        .K      LDR      r3,[pc,#120] ; [0x1d6c] = 0x30ec
        0x00001cf2:    2500        .%      MOVS     r5,#0
        0x00001cf4:    a903        ..      ADD      r1,sp,#0xc
        0x00001cf6:    0702        ..      LSLS     r2,r0,#28
        0x00001cf8:    0f12        ..      LSRS     r2,r2,#28
        0x00001cfa:    5c9a        .\      LDRB     r2,[r3,r2]
        0x00001cfc:    554a        JU      STRB     r2,[r1,r5]
        0x00001cfe:    1c6d        m.      ADDS     r5,r5,#1
        0x00001d00:    0900        ..      LSRS     r0,r0,#4
        0x00001d02:    d1f8        ..      BNE      0x1cf6 ; io_printf + 386
        0x00001d04:    2d00        .-      CMP      r5,#0
        0x00001d06:    dd04        ..      BLE      0x1d12 ; io_printf + 414
        0x00001d08:    1e6d        m.      SUBS     r5,r5,#1
        0x00001d0a:    a803        ..      ADD      r0,sp,#0xc
        0x00001d0c:    5d40        @]      LDRB     r0,[r0,r5]
        0x00001d0e:    2830        0(      CMP      r0,#0x30
        0x00001d10:    d0f8        ..      BEQ      0x1d04 ; io_printf + 400
        0x00001d12:    1c68        h.      ADDS     r0,r5,#1
        0x00001d14:    9007        ..      STR      r0,[sp,#0x1c]
        0x00001d16:    e003        ..      B        0x1d20 ; io_printf + 428
        0x00001d18:    980e        ..      LDR      r0,[sp,#0x38]
        0x00001d1a:    0039        9.      MOVS     r1,r7
        0x00001d1c:    f000f828    ..(.    BL       io_put_char ; 0x1d70
        0x00001d20:    9907        ..      LDR      r1,[sp,#0x1c]
        0x00001d22:    0030        0.      MOVS     r0,r6
        0x00001d24:    1e76        v.      SUBS     r6,r6,#1
        0x00001d26:    4288        .B      CMP      r0,r1
        0x00001d28:    d8f6        ..      BHI      0x1d18 ; io_printf + 420
        0x00001d2a:    ae03        ..      ADD      r6,sp,#0xc
        0x00001d2c:    e004        ..      B        0x1d38 ; io_printf + 452
        0x00001d2e:    5d71        q]      LDRB     r1,[r6,r5]
        0x00001d30:    980e        ..      LDR      r0,[sp,#0x38]
        0x00001d32:    1e6d        m.      SUBS     r5,r5,#1
        0x00001d34:    f000f81c    ....    BL       io_put_char ; 0x1d70
        0x00001d38:    2d00        .-      CMP      r5,#0
        0x00001d3a:    daf8        ..      BGE      0x1d2e ; io_printf + 442
        0x00001d3c:    e727        '.      B        0x1b8e ; io_printf + 26
        0x00001d3e:    cc20         .      LDM      r4!,{r5}
        0x00001d40:    1e76        v.      SUBS     r6,r6,#1
        0x00001d42:    d499        ..      BMI      0x1c78 ; io_printf + 260
        0x00001d44:    4f09        .O      LDR      r7,[pc,#36] ; [0x1d6c] = 0x30ec
        0x00001d46:    00b1        ..      LSLS     r1,r6,#2
        0x00001d48:    0028        (.      MOVS     r0,r5
        0x00001d4a:    40c8        .@      LSRS     r0,r0,r1
        0x00001d4c:    0700        ..      LSLS     r0,r0,#28
        0x00001d4e:    0f00        ..      LSRS     r0,r0,#28
        0x00001d50:    5c39        9\      LDRB     r1,[r7,r0]
        0x00001d52:    980e        ..      LDR      r0,[sp,#0x38]
        0x00001d54:    f000f80c    ....    BL       io_put_char ; 0x1d70
        0x00001d58:    1e76        v.      SUBS     r6,r6,#1
        0x00001d5a:    d5f4        ..      BPL      0x1d46 ; io_printf + 466
        0x00001d5c:    e717        ..      B        0x1b8e ; io_printf + 26
        0x00001d5e:    b009        ..      ADD      sp,sp,#0x24
        0x00001d60:    bcf0        ..      POP      {r4-r7}
        0x00001d62:    bc08        ..      POP      {r3}
        0x00001d64:    b004        ..      ADD      sp,sp,#0x10
        0x00001d66:    4718        .G      BX       r3
    $d
        0x00001d68:    004000a0    ..@.    DCD    4194464
        0x00001d6c:    000030ec    .0..    DCD    12524
    $t
    i.io_put_char
    io_put_char
        0x00001d70:    b5f8        ..      PUSH     {r3-r7,lr}
        0x00001d72:    000d        ..      MOVS     r5,r1
        0x00001d74:    060e        ..      LSLS     r6,r1,#24
        0x00001d76:    4f33        3O      LDR      r7,[pc,#204] ; [0x1e44] = 0x4000a0
        0x00001d78:    0e36        6.      LSRS     r6,r6,#24
        0x00001d7a:    2803        .(      CMP      r0,#3
        0x00001d7c:    d906        ..      BLS      0x1d8c ; io_put_char + 28
        0x00001d7e:    6839        9h      LDR      r1,[r7,#0]
        0x00001d80:    5446        FT      STRB     r6,[r0,r1]
        0x00001d82:    1c49        I.      ADDS     r1,r1,#1
        0x00001d84:    2200        ."      MOVS     r2,#0
        0x00001d86:    6039        9`      STR      r1,[r7,#0]
        0x00001d88:    5442        BT      STRB     r2,[r0,r1]
        0x00001d8a:    bdf8        ..      POP      {r3-r7,pc}
        0x00001d8c:    2800        .(      CMP      r0,#0
        0x00001d8e:    d136        6.      BNE      0x1dfe ; io_put_char + 142
        0x00001d90:    68b8        .h      LDR      r0,[r7,#8]
        0x00001d92:    2800        .(      CMP      r0,#0
        0x00001d94:    d11c        ..      BNE      0x1dd0 ; io_put_char + 96
        0x00001d96:    21ff        .!      MOVS     r1,#0xff
        0x00001d98:    3125        %1      ADDS     r1,r1,#0x25
        0x00001d9a:    2001        .       MOVS     r0,#1
        0x00001d9c:    f000fa02    ....    BL       sark_alloc ; 0x21a4
        0x00001da0:    0004        ..      MOVS     r4,r0
        0x00001da2:    d102        ..      BNE      0x1daa ; io_put_char + 58
        0x00001da4:    200e        .       MOVS     r0,#0xe
        0x00001da6:    f7fee9c0    ....    BLX      rt_error ; 0x128
        0x00001daa:    2007        .       MOVS     r0,#7
        0x00001dac:    7220         r      STRB     r0,[r4,#8]
        0x00001dae:    2000        .       MOVS     r0,#0
        0x00001db0:    7260        `r      STRB     r0,[r4,#9]
        0x00001db2:    4925        %I      LDR      r1,[pc,#148] ; [0x1e48] = 0xe5007f00
        0x00001db4:    20ff        .       MOVS     r0,#0xff
        0x00001db6:    72a0        .r      STRB     r0,[r4,#0xa]
        0x00001db8:    8888        ..      LDRH     r0,[r1,#4]
        0x00001dba:    81a0        ..      STRH     r0,[r4,#0xc]
        0x00001dbc:    4823        #H      LDR      r0,[pc,#140] ; [0x1e4c] = 0x4001f8
        0x00001dbe:    6800        .h      LDR      r0,[r0,#0]
        0x00001dc0:    72e0        .r      STRB     r0,[r4,#0xb]
        0x00001dc2:    8808        ..      LDRH     r0,[r1,#0]
        0x00001dc4:    81e0        ..      STRH     r0,[r4,#0xe]
        0x00001dc6:    2040        @       MOVS     r0,#0x40
        0x00001dc8:    8220         .      STRH     r0,[r4,#0x10]
        0x00001dca:    200c        .       MOVS     r0,#0xc
        0x00001dcc:    80a0        ..      STRH     r0,[r4,#4]
        0x00001dce:    60bc        .`      STR      r4,[r7,#8]
        0x00001dd0:    68b8        .h      LDR      r0,[r7,#8]
        0x00001dd2:    8881        ..      LDRH     r1,[r0,#4]
        0x00001dd4:    0002        ..      MOVS     r2,r0
        0x00001dd6:    1c4b        K.      ADDS     r3,r1,#1
        0x00001dd8:    3208        .2      ADDS     r2,r2,#8
        0x00001dda:    8083        ..      STRH     r3,[r0,#4]
        0x00001ddc:    2d0a        .-      CMP      r5,#0xa
        0x00001dde:    5456        VT      STRB     r6,[r2,r1]
        0x00001de0:    d006        ..      BEQ      0x1df0 ; io_put_char + 128
        0x00001de2:    2d00        .-      CMP      r5,#0
        0x00001de4:    d004        ..      BEQ      0x1df0 ; io_put_char + 128
        0x00001de6:    8882        ..      LDRH     r2,[r0,#4]
        0x00001de8:    0011        ..      MOVS     r1,r2
        0x00001dea:    39ff        .9      SUBS     r1,r1,#0xff
        0x00001dec:    390d        .9      SUBS     r1,r1,#0xd
        0x00001dee:    d1cc        ..      BNE      0x1d8a ; io_put_char + 26
        0x00001df0:    210a        .!      MOVS     r1,#0xa
        0x00001df2:    f000fbf9    ....    BL       sark_msg_send ; 0x25e8
        0x00001df6:    68b9        .h      LDR      r1,[r7,#8]
        0x00001df8:    200c        .       MOVS     r0,#0xc
        0x00001dfa:    8088        ..      STRH     r0,[r1,#4]
        0x00001dfc:    bdf8        ..      POP      {r3-r7,pc}
        0x00001dfe:    2802        .(      CMP      r0,#2
        0x00001e00:    d1fc        ..      BNE      0x1dfc ; io_put_char + 140
        0x00001e02:    68f8        .h      LDR      r0,[r7,#0xc]
        0x00001e04:    2800        .(      CMP      r0,#0
        0x00001e06:    d105        ..      BNE      0x1e14 ; io_put_char + 164
        0x00001e08:    f7fffe8e    ....    BL       io_buf_init ; 0x1b28
        0x00001e0c:    490f        .I      LDR      r1,[pc,#60] ; [0x1e4c] = 0x4001f8
        0x00001e0e:    69c9        .i      LDR      r1,[r1,#0x1c]
        0x00001e10:    6588        .e      STR      r0,[r1,#0x58]
        0x00001e12:    60f8        .`      STR      r0,[r7,#0xc]
        0x00001e14:    0001        ..      MOVS     r1,r0
        0x00001e16:    6878        xh      LDR      r0,[r7,#4]
        0x00001e18:    180a        ..      ADDS     r2,r1,r0
        0x00001e1a:    7416        .t      STRB     r6,[r2,#0x10]
        0x00001e1c:    4a0a        .J      LDR      r2,[pc,#40] ; [0x1e48] = 0xe5007f00
        0x00001e1e:    1c40        @.      ADDS     r0,r0,#1
        0x00001e20:    3240        @2      ADDS     r2,r2,#0x40
        0x00001e22:    6078        x`      STR      r0,[r7,#4]
        0x00001e24:    6912        .i      LDR      r2,[r2,#0x10]
        0x00001e26:    4282        .B      CMP      r2,r0
        0x00001e28:    d106        ..      BNE      0x1e38 ; io_put_char + 200
        0x00001e2a:    60c8        .`      STR      r0,[r1,#0xc]
        0x00001e2c:    f7fffe7c    ..|.    BL       io_buf_init ; 0x1b28
        0x00001e30:    68f9        .h      LDR      r1,[r7,#0xc]
        0x00001e32:    6008        .`      STR      r0,[r1,#0]
        0x00001e34:    60f8        .`      STR      r0,[r7,#0xc]
        0x00001e36:    bdf8        ..      POP      {r3-r7,pc}
        0x00001e38:    2d0a        .-      CMP      r5,#0xa
        0x00001e3a:    d001        ..      BEQ      0x1e40 ; io_put_char + 208
        0x00001e3c:    2d00        .-      CMP      r5,#0
        0x00001e3e:    d1fa        ..      BNE      0x1e36 ; io_put_char + 198
        0x00001e40:    60c8        .`      STR      r0,[r1,#0xc]
        0x00001e42:    bdf8        ..      POP      {r3-r7,pc}
    $d
        0x00001e44:    004000a0    ..@.    DCD    4194464
        0x00001e48:    e5007f00    ....    DCD    3842014976
        0x00001e4c:    004001f8    ..@.    DCD    4194808
    $t
    i.io_put_fixed
    io_put_fixed
        0x00001e50:    b5ff        ..      PUSH     {r0-r7,lr}
        0x00001e52:    b089        ..      SUB      sp,sp,#0x24
        0x00001e54:    2400        .$      MOVS     r4,#0
        0x00001e56:    0015        ..      MOVS     r5,r2
        0x00001e58:    468c        .F      MOV      r12,r1
        0x00001e5a:    2b0c        .+      CMP      r3,#0xc
        0x00001e5c:    4660        `F      MOV      r0,r12
        0x00001e5e:    ae02        ..      ADD      r6,sp,#8
        0x00001e60:    d909        ..      BLS      0x1e76 ; io_put_fixed + 38
        0x00001e62:    230c        .#      MOVS     r3,#0xc
        0x00001e64:    0400        ..      LSLS     r0,r0,#16
        0x00001e66:    0c00        ..      LSRS     r0,r0,#16
        0x00001e68:    210a        .!      MOVS     r1,#0xa
        0x00001e6a:    4348        HC      MULS     r0,r1,r0
        0x00001e6c:    1c64        d.      ADDS     r4,r4,#1
        0x00001e6e:    0c01        ..      LSRS     r1,r0,#16
        0x00001e70:    3130        01      ADDS     r1,r1,#0x30
        0x00001e72:    1b1a        ..      SUBS     r2,r3,r4
        0x00001e74:    54b1        .T      STRB     r1,[r6,r2]
        0x00001e76:    429c        .B      CMP      r4,r3
        0x00001e78:    d3f4        ..      BCC      0x1e64 ; io_put_fixed + 20
        0x00001e7a:    0400        ..      LSLS     r0,r0,#16
        0x00001e7c:    0c00        ..      LSRS     r0,r0,#16
        0x00001e7e:    210a        .!      MOVS     r1,#0xa
        0x00001e80:    4348        HC      MULS     r0,r1,r0
        0x00001e82:    2201        ."      MOVS     r2,#1
        0x00001e84:    0c00        ..      LSRS     r0,r0,#16
        0x00001e86:    2804        .(      CMP      r0,#4
        0x00001e88:    d800        ..      BHI      0x1e8c ; io_put_fixed + 60
        0x00001e8a:    2200        ."      MOVS     r2,#0
        0x00001e8c:    2000        .       MOVS     r0,#0
        0x00001e8e:    2730        0'      MOVS     r7,#0x30
        0x00001e90:    e004        ..      B        0x1e9c ; io_put_fixed + 76
        0x00001e92:    5c31        1\      LDRB     r1,[r6,r0]
        0x00001e94:    2939        9)      CMP      r1,#0x39
        0x00001e96:    d30e        ..      BCC      0x1eb6 ; io_put_fixed + 102
        0x00001e98:    5437        7T      STRB     r7,[r6,r0]
        0x00001e9a:    1c40        @.      ADDS     r0,r0,#1
        0x00001e9c:    2a00        .*      CMP      r2,#0
        0x00001e9e:    d001        ..      BEQ      0x1ea4 ; io_put_fixed + 84
        0x00001ea0:    4298        .B      CMP      r0,r3
        0x00001ea2:    d3f6        ..      BCC      0x1e92 ; io_put_fixed + 66
        0x00001ea4:    2b00        .+      CMP      r3,#0
        0x00001ea6:    d002        ..      BEQ      0x1eae ; io_put_fixed + 94
        0x00001ea8:    202e        .       MOVS     r0,#0x2e
        0x00001eaa:    5530        0U      STRB     r0,[r6,r4]
        0x00001eac:    1c64        d.      ADDS     r4,r4,#1
        0x00001eae:    4660        `F      MOV      r0,r12
        0x00001eb0:    0c00        ..      LSRS     r0,r0,#16
        0x00001eb2:    1881        ..      ADDS     r1,r0,r2
        0x00001eb4:    e004        ..      B        0x1ec0 ; io_put_fixed + 112
        0x00001eb6:    5c31        1\      LDRB     r1,[r6,r0]
        0x00001eb8:    1c49        I.      ADDS     r1,r1,#1
        0x00001eba:    2200        ."      MOVS     r2,#0
        0x00001ebc:    5431        1T      STRB     r1,[r6,r0]
        0x00001ebe:    e7f1        ..      B        0x1ea4 ; io_put_fixed + 84
        0x00001ec0:    4668        hF      MOV      r0,sp
        0x00001ec2:    f7ffe90c    ....    BLX      sark_div10 ; 0x10dc
        0x00001ec6:    9801        ..      LDR      r0,[sp,#4]
        0x00001ec8:    3030        00      ADDS     r0,r0,#0x30
        0x00001eca:    5530        0U      STRB     r0,[r6,r4]
        0x00001ecc:    9900        ..      LDR      r1,[sp,#0]
        0x00001ece:    1c64        d.      ADDS     r4,r4,#1
        0x00001ed0:    2900        .)      CMP      r1,#0
        0x00001ed2:    d1f5        ..      BNE      0x1ec0 ; io_put_fixed + 112
        0x00001ed4:    9813        ..      LDR      r0,[sp,#0x4c]
        0x00001ed6:    2800        .(      CMP      r0,#0
        0x00001ed8:    d002        ..      BEQ      0x1ee0 ; io_put_fixed + 144
        0x00001eda:    212d        -!      MOVS     r1,#0x2d
        0x00001edc:    5531        1U      STRB     r1,[r6,r4]
        0x00001ede:    1c64        d.      ADDS     r4,r4,#1
        0x00001ee0:    1c67        g.      ADDS     r7,r4,#1
        0x00001ee2:    e003        ..      B        0x1eec ; io_put_fixed + 156
        0x00001ee4:    9912        ..      LDR      r1,[sp,#0x48]
        0x00001ee6:    9809        ..      LDR      r0,[sp,#0x24]
        0x00001ee8:    f7ffff42    ..B.    BL       io_put_char ; 0x1d70
        0x00001eec:    0028        (.      MOVS     r0,r5
        0x00001eee:    1e6d        m.      SUBS     r5,r5,#1
        0x00001ef0:    42b8        .B      CMP      r0,r7
        0x00001ef2:    d8f7        ..      BHI      0x1ee4 ; io_put_fixed + 148
        0x00001ef4:    e004        ..      B        0x1f00 ; io_put_fixed + 176
        0x00001ef6:    1e64        d.      SUBS     r4,r4,#1
        0x00001ef8:    5d31        1]      LDRB     r1,[r6,r4]
        0x00001efa:    9809        ..      LDR      r0,[sp,#0x24]
        0x00001efc:    f7ffff38    ..8.    BL       io_put_char ; 0x1d70
        0x00001f00:    2c00        .,      CMP      r4,#0
        0x00001f02:    dcf8        ..      BGT      0x1ef6 ; io_put_fixed + 166
        0x00001f04:    b00d        ..      ADD      sp,sp,#0x34
        0x00001f06:    bdf0        ..      POP      {r4-r7,pc}
    i.io_put_int
    io_put_int
        0x00001f08:    b5ff        ..      PUSH     {r0-r7,lr}
        0x00001f0a:    b087        ..      SUB      sp,sp,#0x1c
        0x00001f0c:    2400        .$      MOVS     r4,#0
        0x00001f0e:    0015        ..      MOVS     r5,r2
        0x00001f10:    0026        &.      MOVS     r6,r4
        0x00001f12:    2900        .)      CMP      r1,#0
        0x00001f14:    da01        ..      BGE      0x1f1a ; io_put_int + 18
        0x00001f16:    4249        IB      RSBS     r1,r1,#0
        0x00001f18:    262d        -&      MOVS     r6,#0x2d
        0x00001f1a:    af03        ..      ADD      r7,sp,#0xc
        0x00001f1c:    a801        ..      ADD      r0,sp,#4
        0x00001f1e:    f7ffe8de    ....    BLX      sark_div10 ; 0x10dc
        0x00001f22:    9802        ..      LDR      r0,[sp,#8]
        0x00001f24:    3030        00      ADDS     r0,r0,#0x30
        0x00001f26:    5538        8U      STRB     r0,[r7,r4]
        0x00001f28:    9901        ..      LDR      r1,[sp,#4]
        0x00001f2a:    1c64        d.      ADDS     r4,r4,#1
        0x00001f2c:    2900        .)      CMP      r1,#0
        0x00001f2e:    d1f5        ..      BNE      0x1f1c ; io_put_int + 20
        0x00001f30:    2c00        .,      CMP      r4,#0
        0x00001f32:    dd03        ..      BLE      0x1f3c ; io_put_int + 52
        0x00001f34:    1e64        d.      SUBS     r4,r4,#1
        0x00001f36:    5d38        8]      LDRB     r0,[r7,r4]
        0x00001f38:    2830        0(      CMP      r0,#0x30
        0x00001f3a:    d0f9        ..      BEQ      0x1f30 ; io_put_int + 40
        0x00001f3c:    2e00        ..      CMP      r6,#0
        0x00001f3e:    d001        ..      BEQ      0x1f44 ; io_put_int + 60
        0x00001f40:    1c64        d.      ADDS     r4,r4,#1
        0x00001f42:    553e        >U      STRB     r6,[r7,r4]
        0x00001f44:    1c66        f.      ADDS     r6,r4,#1
        0x00001f46:    e003        ..      B        0x1f50 ; io_put_int + 72
        0x00001f48:    9807        ..      LDR      r0,[sp,#0x1c]
        0x00001f4a:    2120         !      MOVS     r1,#0x20
        0x00001f4c:    f7ffff10    ....    BL       io_put_char ; 0x1d70
        0x00001f50:    0028        (.      MOVS     r0,r5
        0x00001f52:    1e6d        m.      SUBS     r5,r5,#1
        0x00001f54:    42b0        .B      CMP      r0,r6
        0x00001f56:    d8f7        ..      BHI      0x1f48 ; io_put_int + 64
        0x00001f58:    e004        ..      B        0x1f64 ; io_put_int + 92
        0x00001f5a:    5d39        9]      LDRB     r1,[r7,r4]
        0x00001f5c:    9807        ..      LDR      r0,[sp,#0x1c]
        0x00001f5e:    1e64        d.      SUBS     r4,r4,#1
        0x00001f60:    f7ffff06    ....    BL       io_put_char ; 0x1d70
        0x00001f64:    2c00        .,      CMP      r4,#0
        0x00001f66:    daf8        ..      BGE      0x1f5a ; io_put_int + 82
        0x00001f68:    b00b        ..      ADD      sp,sp,#0x2c
        0x00001f6a:    bdf0        ..      POP      {r4-r7,pc}
    i.io_put_sfixed
    io_put_sfixed
        0x00001f6c:    b57c        |.      PUSH     {r2-r6,lr}
        0x00001f6e:    000c        ..      MOVS     r4,r1
        0x00001f70:    0015        ..      MOVS     r5,r2
        0x00001f72:    9906        ..      LDR      r1,[sp,#0x18]
        0x00001f74:    0fe2        ..      LSRS     r2,r4,#31
        0x00001f76:    9100        ..      STR      r1,[sp,#0]
        0x00001f78:    4261        aB      RSBS     r1,r4,#0
        0x00001f7a:    2c00        .,      CMP      r4,#0
        0x00001f7c:    9201        ..      STR      r2,[sp,#4]
        0x00001f7e:    db00        ..      BLT      0x1f82 ; io_put_sfixed + 22
        0x00001f80:    0021        !.      MOVS     r1,r4
        0x00001f82:    0049        I.      LSLS     r1,r1,#1
        0x00001f84:    002a        *.      MOVS     r2,r5
        0x00001f86:    f7ffff63    ..c.    BL       io_put_fixed ; 0x1e50
        0x00001f8a:    bd7c        |.      POP      {r2-r6,pc}
    i.io_put_ufixed
    io_put_ufixed
        0x00001f8c:    b57c        |.      PUSH     {r2-r6,lr}
        0x00001f8e:    000c        ..      MOVS     r4,r1
        0x00001f90:    0015        ..      MOVS     r5,r2
        0x00001f92:    9906        ..      LDR      r1,[sp,#0x18]
        0x00001f94:    2200        ."      MOVS     r2,#0
        0x00001f96:    9201        ..      STR      r2,[sp,#4]
        0x00001f98:    9100        ..      STR      r1,[sp,#0]
        0x00001f9a:    002a        *.      MOVS     r2,r5
        0x00001f9c:    0021        !.      MOVS     r1,r4
        0x00001f9e:    f7ffff57    ..W.    BL       io_put_fixed ; 0x1e50
        0x00001fa2:    bd7c        |.      POP      {r2-r6,pc}
    i.report_warns
    report_warns
        0x00001fa4:    b510        ..      PUSH     {r4,lr}
        0x00001fa6:    4c11        .L      LDR      r4,[pc,#68] ; [0x1fec] = 0x4000b0
        0x00001fa8:    6d20         m      LDR      r0,[r4,#0x50]
        0x00001faa:    07c0        ..      LSLS     r0,r0,#31
        0x00001fac:    d007        ..      BEQ      0x1fbe ; report_warns + 26
        0x00001fae:    6d62        bm      LDR      r2,[r4,#0x54]
        0x00001fb0:    2000        .       MOVS     r0,#0
        0x00001fb2:    a10f        ..      ADR      r1,{pc}+0x3e ; 0x1ff0
        0x00001fb4:    f7fffdde    ....    BL       io_printf ; 0x1b74
        0x00001fb8:    20c8        .       MOVS     r0,#0xc8
        0x00001fba:    f7fff885    ....    BL       sark_delay_us ; 0x10c8
        0x00001fbe:    6d20         m      LDR      r0,[r4,#0x50]
        0x00001fc0:    0780        ..      LSLS     r0,r0,#30
        0x00001fc2:    d507        ..      BPL      0x1fd4 ; report_warns + 48
        0x00001fc4:    6de2        .m      LDR      r2,[r4,#0x5c]
        0x00001fc6:    2000        .       MOVS     r0,#0
        0x00001fc8:    a114        ..      ADR      r1,{pc}+0x54 ; 0x201c
        0x00001fca:    f7fffdd3    ....    BL       io_printf ; 0x1b74
        0x00001fce:    20c8        .       MOVS     r0,#0xc8
        0x00001fd0:    f7fff87a    ..z.    BL       sark_delay_us ; 0x10c8
        0x00001fd4:    6d20         m      LDR      r0,[r4,#0x50]
        0x00001fd6:    0740        @.      LSLS     r0,r0,#29
        0x00001fd8:    d507        ..      BPL      0x1fea ; report_warns + 70
        0x00001fda:    6da2        .m      LDR      r2,[r4,#0x58]
        0x00001fdc:    2000        .       MOVS     r0,#0
        0x00001fde:    a11a        ..      ADR      r1,{pc}+0x6a ; 0x2048
        0x00001fe0:    f7fffdc8    ....    BL       io_printf ; 0x1b74
        0x00001fe4:    20c8        .       MOVS     r0,#0xc8
        0x00001fe6:    f7fff86f    ..o.    BL       sark_delay_us ; 0x10c8
        0x00001fea:    bd10        ..      POP      {r4,pc}
    $d
        0x00001fec:    004000b0    ..@.    DCD    4194480
        0x00001ff0:    615b0909    ..[a    DCD    1633356041
        0x00001ff4:    775f6970    pi_w    DCD    2002741616
        0x00001ff8:    5d6e7261    arn]    DCD    1567519329
        0x00001ffc:    72617720     war    DCD    1918990112
        0x00002000:    676e696e    ning    DCD    1735289198
        0x00002004:    6174203a    : ta    DCD    1635000378
        0x00002008:    71206b73    sk q    DCD    1897950067
        0x0000200c:    65756575    ueue    DCD    1702192501
        0x00002010:    6c756620     ful    DCD    1819633184
        0x00002014:    2528206c    l (%    DCD    623386732
        0x00002018:    000a2975    u)..    DCD    665973
        0x0000201c:    615b0909    ..[a    DCD    1633356041
        0x00002020:    775f6970    pi_w    DCD    2002741616
        0x00002024:    5d6e7261    arn]    DCD    1567519329
        0x00002028:    72617720     war    DCD    1918990112
        0x0000202c:    676e696e    ning    DCD    1735289198
        0x00002030:    4d44203a    : DM    DCD    1296310330
        0x00002034:    75712041    A qu    DCD    1970348097
        0x00002038:    20657565    eue     DCD    543520101
        0x0000203c:    6c6c7566    full    DCD    1819047270
        0x00002040:    75252820     (%u    DCD    1965369376
        0x00002044:    00000a29    )...    DCD    2601
        0x00002048:    615b0909    ..[a    DCD    1633356041
        0x0000204c:    775f6970    pi_w    DCD    2002741616
        0x00002050:    5d6e7261    arn]    DCD    1567519329
        0x00002054:    72617720     war    DCD    1918990112
        0x00002058:    676e696e    ning    DCD    1735289198
        0x0000205c:    6170203a    : pa    DCD    1634738234
        0x00002060:    74656b63    cket    DCD    1952803683
        0x00002064:    65757120     que    DCD    1702195488
        0x00002068:    66206575    ue f    DCD    1713399157
        0x0000206c:    206c6c75    ull     DCD    543976565
        0x00002070:    29752528    (%u)    DCD    695543080
        0x00002074:    0000000a    ....    DCD    10
    $t
    i.rte_handler
    rte_handler
        0x00002078:    4901        .I      LDR      r1,[pc,#4] ; [0x2080] = 0xe5007f20
        0x0000207a:    2008        .       MOVS     r0,#8
        0x0000207c:    72c8        .r      STRB     r0,[r1,#0xb]
        0x0000207e:    4770        pG      BX       lr
    $d
        0x00002080:    e5007f20     ...    DCD    3842015008
    $t
    i.rtr_alloc
    rtr_alloc
        0x00002084:    b5f8        ..      PUSH     {r3-r7,lr}
        0x00002086:    0006        ..      MOVS     r6,r0
        0x00002088:    d100        ..      BNE      0x208c ; rtr_alloc + 8
        0x0000208a:    bdf8        ..      POP      {r3-r7,pc}
        0x0000208c:    0a08        ..      LSRS     r0,r1,#8
        0x0000208e:    0789        ..      LSLS     r1,r1,#30
        0x00002090:    d401        ..      BMI      0x2096 ; rtr_alloc + 18
        0x00002092:    2040        @       MOVS     r0,#0x40
        0x00002094:    7e40        @~      LDRB     r0,[r0,#0x19]
        0x00002096:    9000        ..      STR      r0,[sp,#0]
        0x00002098:    481c        .H      LDR      r0,[pc,#112] ; [0x210c] = 0xe5007fc0
        0x0000209a:    6945        Ei      LDR      r5,[r0,#0x14]
        0x0000209c:    2007        .       MOVS     r0,#7
        0x0000209e:    f7ffe85e    ..^.    BLX      sark_lock_get ; 0x115c
        0x000020a2:    491a        .I      LDR      r1,[pc,#104] ; [0x210c] = 0xe5007fc0
        0x000020a4:    2300        .#      MOVS     r3,#0
        0x000020a6:    3120         1      ADDS     r1,r1,#0x20
        0x000020a8:    880c        ..      LDRH     r4,[r1,#0]
        0x000020aa:    e007        ..      B        0x20bc ; rtr_alloc + 56
        0x000020ac:    0127        '.      LSLS     r7,r4,#4
        0x000020ae:    5bea        .[      LDRH     r2,[r5,r7]
        0x000020b0:    19a1        ..      ADDS     r1,r4,r6
        0x000020b2:    4291        .B      CMP      r1,r2
        0x000020b4:    d909        ..      BLS      0x20ca ; rtr_alloc + 70
        0x000020b6:    0023        #.      MOVS     r3,r4
        0x000020b8:    1979        y.      ADDS     r1,r7,r5
        0x000020ba:    884c        L.      LDRH     r4,[r1,#2]
        0x000020bc:    2c00        .,      CMP      r4,#0
        0x000020be:    d1f5        ..      BNE      0x20ac ; rtr_alloc + 40
        0x000020c0:    2107        .!      MOVS     r1,#7
        0x000020c2:    f7ffe85e    ..^.    BLX      sark_lock_free ; 0x1180
        0x000020c6:    0020         .      MOVS     r0,r4
        0x000020c8:    bdf8        ..      POP      {r3-r7,pc}
        0x000020ca:    4291        .B      CMP      r1,r2
        0x000020cc:    d208        ..      BCS      0x20e0 ; rtr_alloc + 92
        0x000020ce:    010e        ..      LSLS     r6,r1,#4
        0x000020d0:    53aa        .S      STRH     r2,[r5,r6]
        0x000020d2:    0122        ".      LSLS     r2,r4,#4
        0x000020d4:    52a9        .R      STRH     r1,[r5,r2]
        0x000020d6:    197a        z.      ADDS     r2,r7,r5
        0x000020d8:    8857        W.      LDRH     r7,[r2,#2]
        0x000020da:    1976        v.      ADDS     r6,r6,r5
        0x000020dc:    8077        w.      STRH     r7,[r6,#2]
        0x000020de:    8051        Q.      STRH     r1,[r2,#2]
        0x000020e0:    2b00        .+      CMP      r3,#0
        0x000020e2:    d006        ..      BEQ      0x20f2 ; rtr_alloc + 110
        0x000020e4:    0121        !.      LSLS     r1,r4,#4
        0x000020e6:    1949        I.      ADDS     r1,r1,r5
        0x000020e8:    011a        ..      LSLS     r2,r3,#4
        0x000020ea:    8849        I.      LDRH     r1,[r1,#2]
        0x000020ec:    1952        R.      ADDS     r2,r2,r5
        0x000020ee:    8051        Q.      STRH     r1,[r2,#2]
        0x000020f0:    e005        ..      B        0x20fe ; rtr_alloc + 122
        0x000020f2:    0121        !.      LSLS     r1,r4,#4
        0x000020f4:    1949        I.      ADDS     r1,r1,r5
        0x000020f6:    884a        J.      LDRH     r2,[r1,#2]
        0x000020f8:    4904        .I      LDR      r1,[pc,#16] ; [0x210c] = 0xe5007fc0
        0x000020fa:    3120         1      ADDS     r1,r1,#0x20
        0x000020fc:    800a        ..      STRH     r2,[r1,#0]
        0x000020fe:    9900        ..      LDR      r1,[sp,#0]
        0x00002100:    0122        ".      LSLS     r2,r4,#4
        0x00002102:    43c9        .C      MVNS     r1,r1
        0x00002104:    1952        R.      ADDS     r2,r2,r5
        0x00002106:    8051        Q.      STRH     r1,[r2,#2]
        0x00002108:    e7da        ..      B        0x20c0 ; rtr_alloc + 60
    $d
        0x0000210a:    0000        ..      DCW    0
        0x0000210c:    e5007fc0    ....    DCD    3842015168
    $t
    i.rtr_mc_set
    rtr_mc_set
        0x00002110:    b5ff        ..      PUSH     {r0-r7,lr}
        0x00002112:    000e        ..      MOVS     r6,r1
        0x00002114:    0007        ..      MOVS     r7,r0
        0x00002116:    2001        .       MOVS     r0,#1
        0x00002118:    0280        ..      LSLS     r0,r0,#10
        0x0000211a:    4287        .B      CMP      r7,r0
        0x0000211c:    d302        ..      BCC      0x2124 ; rtr_mc_set + 20
        0x0000211e:    2000        .       MOVS     r0,#0
        0x00002120:    b004        ..      ADD      sp,sp,#0x10
        0x00002122:    bdf0        ..      POP      {r4-r7,pc}
        0x00002124:    4810        .H      LDR      r0,[pc,#64] ; [0x2168] = 0xe5007fc0
        0x00002126:    0139        9.      LSLS     r1,r7,#4
        0x00002128:    6940        @i      LDR      r0,[r0,#0x14]
        0x0000212a:    021d        ..      LSLS     r5,r3,#8
        0x0000212c:    1844        D.      ADDS     r4,r0,r1
        0x0000212e:    2040        @       MOVS     r0,#0x40
        0x00002130:    7e40        @~      LDRB     r0,[r0,#0x19]
        0x00002132:    0a2d        -.      LSRS     r5,r5,#8
        0x00002134:    0600        ..      LSLS     r0,r0,#24
        0x00002136:    1940        @.      ADDS     r0,r0,r5
        0x00002138:    6060        ``      STR      r0,[r4,#4]
        0x0000213a:    09a8        ..      LSRS     r0,r5,#6
        0x0000213c:    f000fedc    ....    BL       v2p_mask ; 0x2ef8
        0x00002140:    06aa        ..      LSLS     r2,r5,#26
        0x00002142:    0e92        ..      LSRS     r2,r2,#26
        0x00002144:    0181        ..      LSLS     r1,r0,#6
        0x00002146:    4311        .C      ORRS     r1,r1,r2
        0x00002148:    4a08        .J      LDR      r2,[pc,#32] ; [0x216c] = 0xe1004000
        0x0000214a:    00b8        ..      LSLS     r0,r7,#2
        0x0000214c:    1882        ..      ADDS     r2,r0,r2
        0x0000214e:    6011        .`      STR      r1,[r2,#0]
        0x00002150:    4907        .I      LDR      r1,[pc,#28] ; [0x2170] = 0xe1008000
        0x00002152:    4a08        .J      LDR      r2,[pc,#32] ; [0x2174] = 0xe100c000
        0x00002154:    1841        A.      ADDS     r1,r0,r1
        0x00002156:    600e        .`      STR      r6,[r1,#0]
        0x00002158:    60a6        .`      STR      r6,[r4,#8]
        0x0000215a:    9902        ..      LDR      r1,[sp,#8]
        0x0000215c:    1880        ..      ADDS     r0,r0,r2
        0x0000215e:    6001        .`      STR      r1,[r0,#0]
        0x00002160:    2001        .       MOVS     r0,#1
        0x00002162:    60e1        .`      STR      r1,[r4,#0xc]
        0x00002164:    e7dc        ..      B        0x2120 ; rtr_mc_set + 16
    $d
        0x00002166:    0000        ..      DCW    0
        0x00002168:    e5007fc0    ....    DCD    3842015168
        0x0000216c:    e1004000    .@..    DCD    3774889984
        0x00002170:    e1008000    ....    DCD    3774906368
        0x00002174:    e100c000    ....    DCD    3774922752
    $t
    i.rtr_p2p_get
    rtr_p2p_get
        0x00002178:    2201        ."      MOVS     r2,#1
        0x0000217a:    08c1        ..      LSRS     r1,r0,#3
        0x0000217c:    0352        R.      LSLS     r2,r2,#13
        0x0000217e:    4291        .B      CMP      r1,r2
        0x00002180:    d301        ..      BCC      0x2186 ; rtr_p2p_get + 14
        0x00002182:    2006        .       MOVS     r0,#6
        0x00002184:    4770        pG      BX       lr
        0x00002186:    0740        @.      LSLS     r0,r0,#29
        0x00002188:    0f40        @.      LSRS     r0,r0,#29
        0x0000218a:    0042        B.      LSLS     r2,r0,#1
        0x0000218c:    1880        ..      ADDS     r0,r0,r2
        0x0000218e:    4a04        .J      LDR      r2,[pc,#16] ; [0x21a0] = 0xe1010000
        0x00002190:    0089        ..      LSLS     r1,r1,#2
        0x00002192:    1889        ..      ADDS     r1,r1,r2
        0x00002194:    6809        .h      LDR      r1,[r1,#0]
        0x00002196:    40c1        .@      LSRS     r1,r1,r0
        0x00002198:    0748        H.      LSLS     r0,r1,#29
        0x0000219a:    0f40        @.      LSRS     r0,r0,#29
        0x0000219c:    4770        pG      BX       lr
    $d
        0x0000219e:    0000        ..      DCW    0
        0x000021a0:    e1010000    ....    DCD    3774939136
    $t
    i.sark_alloc
    sark_alloc
        0x000021a4:    4341        AC      MULS     r1,r0,r1
        0x000021a6:    4804        .H      LDR      r0,[pc,#16] ; [0x21b8] = 0x4001f8
        0x000021a8:    2200        ."      MOVS     r2,#0
        0x000021aa:    b510        ..      PUSH     {r4,lr}
        0x000021ac:    6980        .i      LDR      r0,[r0,#0x18]
        0x000021ae:    0013        ..      MOVS     r3,r2
        0x000021b0:    f000fb64    ..d.    BL       sark_xalloc ; 0x287c
        0x000021b4:    bd10        ..      POP      {r4,pc}
    $d
        0x000021b6:    0000        ..      DCW    0
        0x000021b8:    004001f8    ..@.    DCD    4194808
    $t
    i.sark_block_init
    sark_block_init
        0x000021bc:    0003        ..      MOVS     r3,r0
        0x000021be:    1e49        I.      SUBS     r1,r1,#1
        0x000021c0:    d002        ..      BEQ      0x21c8 ; sark_block_init + 12
        0x000021c2:    1880        ..      ADDS     r0,r0,r2
        0x000021c4:    6018        .`      STR      r0,[r3,#0]
        0x000021c6:    e7f9        ..      B        sark_block_init ; 0x21bc
        0x000021c8:    2100        .!      MOVS     r1,#0
        0x000021ca:    6019        .`      STR      r1,[r3,#0]
        0x000021cc:    4770        pG      BX       lr
    i.sark_cmd_fill
    sark_cmd_fill
        0x000021ce:    3014        .0      ADDS     r0,r0,#0x14
        0x000021d0:    b510        ..      PUSH     {r4,lr}
        0x000021d2:    c807        ..      LDM      r0,{r0-r2}
        0x000021d4:    f7ffe84e    ..N.    BLX      sark_word_set ; 0x1274
        0x000021d8:    2000        .       MOVS     r0,#0
        0x000021da:    bd10        ..      POP      {r4,pc}
    i.sark_cmd_read
    sark_cmd_read
        0x000021dc:    b570        p.      PUSH     {r4-r6,lr}
        0x000021de:    0003        ..      MOVS     r3,r0
        0x000021e0:    6980        .i      LDR      r0,[r0,#0x18]
        0x000021e2:    22ff        ."      MOVS     r2,#0xff
        0x000021e4:    69d9        .i      LDR      r1,[r3,#0x1c]
        0x000021e6:    3201        .2      ADDS     r2,#1
        0x000021e8:    4290        .B      CMP      r0,r2
        0x000021ea:    d801        ..      BHI      0x21f0 ; sark_cmd_read + 20
        0x000021ec:    2902        .)      CMP      r1,#2
        0x000021ee:    d903        ..      BLS      0x21f8 ; sark_cmd_read + 28
        0x000021f0:    2084        .       MOVS     r0,#0x84
        0x000021f2:    8218        ..      STRH     r0,[r3,#0x10]
        0x000021f4:    2000        .       MOVS     r0,#0
        0x000021f6:    bd70        p.      POP      {r4-r6,pc}
        0x000021f8:    695c        \i      LDR      r4,[r3,#0x14]
        0x000021fa:    3314        .3      ADDS     r3,r3,#0x14
        0x000021fc:    2900        .)      CMP      r1,#0
        0x000021fe:    d106        ..      BNE      0x220e ; sark_cmd_read + 50
        0x00002200:    e002        ..      B        0x2208 ; sark_cmd_read + 44
        0x00002202:    5c62        b\      LDRB     r2,[r4,r1]
        0x00002204:    545a        ZT      STRB     r2,[r3,r1]
        0x00002206:    1c49        I.      ADDS     r1,r1,#1
        0x00002208:    4281        .B      CMP      r1,r0
        0x0000220a:    d3fa        ..      BCC      0x2202 ; sark_cmd_read + 38
        0x0000220c:    bd70        p.      POP      {r4-r6,pc}
        0x0000220e:    2901        .)      CMP      r1,#1
        0x00002210:    d109        ..      BNE      0x2226 ; sark_cmd_read + 74
        0x00002212:    2100        .!      MOVS     r1,#0
        0x00002214:    0845        E.      LSRS     r5,r0,#1
        0x00002216:    e003        ..      B        0x2220 ; sark_cmd_read + 68
        0x00002218:    004a        J.      LSLS     r2,r1,#1
        0x0000221a:    5aa6        .Z      LDRH     r6,[r4,r2]
        0x0000221c:    1c49        I.      ADDS     r1,r1,#1
        0x0000221e:    529e        .R      STRH     r6,[r3,r2]
        0x00002220:    428d        .B      CMP      r5,r1
        0x00002222:    d8f9        ..      BHI      0x2218 ; sark_cmd_read + 60
        0x00002224:    bd70        p.      POP      {r4-r6,pc}
        0x00002226:    2100        .!      MOVS     r1,#0
        0x00002228:    0885        ..      LSRS     r5,r0,#2
        0x0000222a:    e003        ..      B        0x2234 ; sark_cmd_read + 88
        0x0000222c:    008a        ..      LSLS     r2,r1,#2
        0x0000222e:    58a6        .X      LDR      r6,[r4,r2]
        0x00002230:    1c49        I.      ADDS     r1,r1,#1
        0x00002232:    509e        .P      STR      r6,[r3,r2]
        0x00002234:    428d        .B      CMP      r5,r1
        0x00002236:    d8f9        ..      BHI      0x222c ; sark_cmd_read + 80
        0x00002238:    bd70        p.      POP      {r4-r6,pc}
        0x0000223a:    0000        ..      MOVS     r0,r0
    i.sark_cmd_ver
    sark_cmd_ver
        0x0000223c:    490a        .I      LDR      r1,[pc,#40] ; [0x2268] = 0xe5007f00
        0x0000223e:    b510        ..      PUSH     {r4,lr}
        0x00002240:    8809        ..      LDRH     r1,[r1,#0]
        0x00002242:    040a        ..      LSLS     r2,r1,#16
        0x00002244:    4909        .I      LDR      r1,[pc,#36] ; [0x226c] = 0x4001f8
        0x00002246:    684b        Kh      LDR      r3,[r1,#4]
        0x00002248:    6809        .h      LDR      r1,[r1,#0]
        0x0000224a:    021b        ..      LSLS     r3,r3,#8
        0x0000224c:    18d2        ..      ADDS     r2,r2,r3
        0x0000224e:    1851        Q.      ADDS     r1,r2,r1
        0x00002250:    6141        Aa      STR      r1,[r0,#0x14]
        0x00002252:    4907        .I      LDR      r1,[pc,#28] ; [0x2270] = 0x780100
        0x00002254:    6181        .a      STR      r1,[r0,#0x18]
        0x00002256:    4907        .I      LDR      r1,[pc,#28] ; [0x2274] = 0x30e0
        0x00002258:    6809        .h      LDR      r1,[r1,#0]
        0x0000225a:    61c1        .a      STR      r1,[r0,#0x1c]
        0x0000225c:    3020         0      ADDS     r0,r0,#0x20
        0x0000225e:    a106        ..      ADR      r1,{pc}+0x1a ; 0x2278
        0x00002260:    f7feefc8    ....    BLX      sark_str_cpy ; 0x11f4
        0x00002264:    201b        .       MOVS     r0,#0x1b
        0x00002266:    bd10        ..      POP      {r4,pc}
    $d
        0x00002268:    e5007f00    ....    DCD    3842014976
        0x0000226c:    004001f8    ..@.    DCD    4194808
        0x00002270:    00780100    ..x.    DCD    7864576
        0x00002274:    000030e0    .0..    DCD    12512
        0x00002278:    4b524153    SARK    DCD    1263681875
        0x0000227c:    6970532f    /Spi    DCD    1768969007
        0x00002280:    6b614e4e    NNak    DCD    1801539150
        0x00002284:    00007265    er..    DCD    29285
    $t
    i.sark_cmd_write
    sark_cmd_write
        0x00002288:    b530        0.      PUSH     {r4,r5,lr}
        0x0000228a:    23ff        .#      MOVS     r3,#0xff
        0x0000228c:    6982        .i      LDR      r2,[r0,#0x18]
        0x0000228e:    69c1        .i      LDR      r1,[r0,#0x1c]
        0x00002290:    3301        .3      ADDS     r3,#1
        0x00002292:    429a        .B      CMP      r2,r3
        0x00002294:    d801        ..      BHI      0x229a ; sark_cmd_write + 18
        0x00002296:    2902        .)      CMP      r1,#2
        0x00002298:    d902        ..      BLS      0x22a0 ; sark_cmd_write + 24
        0x0000229a:    2184        .!      MOVS     r1,#0x84
        0x0000229c:    8201        ..      STRH     r1,[r0,#0x10]
        0x0000229e:    e01f        ..      B        0x22e0 ; sark_cmd_write + 88
        0x000022a0:    6943        Ci      LDR      r3,[r0,#0x14]
        0x000022a2:    3020         0      ADDS     r0,r0,#0x20
        0x000022a4:    2900        .)      CMP      r1,#0
        0x000022a6:    d106        ..      BNE      0x22b6 ; sark_cmd_write + 46
        0x000022a8:    e002        ..      B        0x22b0 ; sark_cmd_write + 40
        0x000022aa:    5c44        D\      LDRB     r4,[r0,r1]
        0x000022ac:    545c        \T      STRB     r4,[r3,r1]
        0x000022ae:    1c49        I.      ADDS     r1,r1,#1
        0x000022b0:    4291        .B      CMP      r1,r2
        0x000022b2:    d3fa        ..      BCC      0x22aa ; sark_cmd_write + 34
        0x000022b4:    e014        ..      B        0x22e0 ; sark_cmd_write + 88
        0x000022b6:    2901        .)      CMP      r1,#1
        0x000022b8:    d109        ..      BNE      0x22ce ; sark_cmd_write + 70
        0x000022ba:    2100        .!      MOVS     r1,#0
        0x000022bc:    0854        T.      LSRS     r4,r2,#1
        0x000022be:    e003        ..      B        0x22c8 ; sark_cmd_write + 64
        0x000022c0:    004a        J.      LSLS     r2,r1,#1
        0x000022c2:    5a85        .Z      LDRH     r5,[r0,r2]
        0x000022c4:    1c49        I.      ADDS     r1,r1,#1
        0x000022c6:    529d        .R      STRH     r5,[r3,r2]
        0x000022c8:    428c        .B      CMP      r4,r1
        0x000022ca:    d8f9        ..      BHI      0x22c0 ; sark_cmd_write + 56
        0x000022cc:    e008        ..      B        0x22e0 ; sark_cmd_write + 88
        0x000022ce:    2100        .!      MOVS     r1,#0
        0x000022d0:    0894        ..      LSRS     r4,r2,#2
        0x000022d2:    e003        ..      B        0x22dc ; sark_cmd_write + 84
        0x000022d4:    008a        ..      LSLS     r2,r1,#2
        0x000022d6:    5885        .X      LDR      r5,[r0,r2]
        0x000022d8:    1c49        I.      ADDS     r1,r1,#1
        0x000022da:    509d        .P      STR      r5,[r3,r2]
        0x000022dc:    428c        .B      CMP      r4,r1
        0x000022de:    d8f9        ..      BHI      0x22d4 ; sark_cmd_write + 76
        0x000022e0:    2000        .       MOVS     r0,#0
        0x000022e2:    bd30        0.      POP      {r4,r5,pc}
    i.sark_config
    sark_config
        0x000022e4:    2001        .       MOVS     r0,#1
        0x000022e6:    2140        @!      MOVS     r1,#0x40
        0x000022e8:    7688        .v      STRB     r0,[r1,#0x1a]
        0x000022ea:    4770        pG      BX       lr
    i.sark_heap_init
    sark_heap_init
        0x000022ec:    0002        ..      MOVS     r2,r0
        0x000022ee:    320c        .2      ADDS     r2,r2,#0xc
        0x000022f0:    3908        .9      SUBS     r1,r1,#8
        0x000022f2:    6042        B`      STR      r2,[r0,#4]
        0x000022f4:    60c1        .`      STR      r1,[r0,#0xc]
        0x000022f6:    6002        .`      STR      r2,[r0,#0]
        0x000022f8:    2300        .#      MOVS     r3,#0
        0x000022fa:    6081        .`      STR      r1,[r0,#8]
        0x000022fc:    600b        .`      STR      r3,[r1,#0]
        0x000022fe:    6103        .a      STR      r3,[r0,#0x10]
        0x00002300:    604b        K`      STR      r3,[r1,#4]
        0x00002302:    4770        pG      BX       lr
    i.sark_init
    sark_init
        0x00002304:    b570        p.      PUSH     {r4-r6,lr}
        0x00002306:    2540        @%      MOVS     r5,#0x40
        0x00002308:    8829        ).      LDRH     r1,[r5,#0]
        0x0000230a:    886a        j.      LDRH     r2,[r5,#2]
        0x0000230c:    0089        ..      LSLS     r1,r1,#2
        0x0000230e:    1a40        @.      SUBS     r0,r0,r1
        0x00002310:    21d2        .!      MOVS     r1,#0xd2
        0x00002312:    f7feeefc    ....    BLX      cpu_init_mode ; 0x110c
        0x00002316:    88aa        ..      LDRH     r2,[r5,#4]
        0x00002318:    21d1        .!      MOVS     r1,#0xd1
        0x0000231a:    f7feeef8    ....    BLX      cpu_init_mode ; 0x110c
        0x0000231e:    88ea        ..      LDRH     r2,[r5,#6]
        0x00002320:    21df        .!      MOVS     r1,#0xdf
        0x00002322:    f7feeef4    ....    BLX      cpu_init_mode ; 0x110c
        0x00002326:    4c28        (L      LDR      r4,[pc,#160] ; [0x23c8] = 0x4001f8
        0x00002328:    0001        ..      MOVS     r1,r0
        0x0000232a:    6120         a      STR      r0,[r4,#0x10]
        0x0000232c:    2000        .       MOVS     r0,#0
        0x0000232e:    6cc0        .l      LDR      r0,[r0,#0x4c]
        0x00002330:    6160        `a      STR      r0,[r4,#0x14]
        0x00002332:    f7ffffdb    ....    BL       sark_heap_init ; 0x22ec
        0x00002336:    61a0        .a      STR      r0,[r4,#0x18]
        0x00002338:    0628        (.      LSLS     r0,r5,#24
        0x0000233a:    6940        @i      LDR      r0,[r0,#0x14]
        0x0000233c:    4923        #I      LDR      r1,[pc,#140] ; [0x23cc] = 0xe5007f80
        0x0000233e:    0e00        ..      LSRS     r0,r0,#24
        0x00002340:    6060        ``      STR      r0,[r4,#4]
        0x00002342:    1840        @.      ADDS     r0,r0,r1
        0x00002344:    7d00        .}      LDRB     r0,[r0,#0x14]
        0x00002346:    6020         `      STR      r0,[r4,#0]
        0x00002348:    4820         H      LDR      r0,[pc,#128] ; [0x23cc] = 0xe5007f80
        0x0000234a:    26ff        .&      MOVS     r6,#0xff
        0x0000234c:    3860        `8      SUBS     r0,r0,#0x60
        0x0000234e:    8880        ..      LDRH     r0,[r0,#4]
        0x00002350:    8620         .      STRH     r0,[r4,#0x30]
        0x00002352:    481f        .H      LDR      r0,[pc,#124] ; [0x23d0] = 0xdeaddead
        0x00002354:    3625        %6      ADDS     r6,r6,#0x25
        0x00002356:    60a0        .`      STR      r0,[r4,#8]
        0x00002358:    7da8        .}      LDRB     r0,[r5,#0x16]
        0x0000235a:    0031        1.      MOVS     r1,r6
        0x0000235c:    f7ffff22    ..".    BL       sark_alloc ; 0x21a4
        0x00002360:    6220         b      STR      r0,[r4,#0x20]
        0x00002362:    7da9        .}      LDRB     r1,[r5,#0x16]
        0x00002364:    0032        2.      MOVS     r2,r6
        0x00002366:    f7ffff29    ..).    BL       sark_block_init ; 0x21bc
        0x0000236a:    6821        !h      LDR      r1,[r4,#0]
        0x0000236c:    2912        .)      CMP      r1,#0x12
        0x0000236e:    d21e        ..      BCS      0x23ae ; sark_init + 170
        0x00002370:    4a18        .J      LDR      r2,[pc,#96] ; [0x23d4] = 0xe5007000
        0x00002372:    01c8        ..      LSLS     r0,r1,#7
        0x00002374:    1880        ..      ADDS     r0,r0,r2
        0x00002376:    4a15        .J      LDR      r2,[pc,#84] ; [0x23cc] = 0xe5007f80
        0x00002378:    61e0        .a      STR      r0,[r4,#0x1c]
        0x0000237a:    3a40        @:      SUBS     r2,r2,#0x40
        0x0000237c:    6993        .i      LDR      r3,[r2,#0x18]
        0x0000237e:    6952        Ri      LDR      r2,[r2,#0x14]
        0x00002380:    434b        KC      MULS     r3,r1,r3
        0x00002382:    0099        ..      LSLS     r1,r3,#2
        0x00002384:    1889        ..      ADDS     r1,r1,r2
        0x00002386:    6361        ac      STR      r1,[r4,#0x34]
        0x00002388:    2270        p"      MOVS     r2,#0x70
        0x0000238a:    2100        .!      MOVS     r1,#0
        0x0000238c:    f7feef72    ..r.    BLX      sark_word_set ; 0x1274
        0x00002390:    69e0        .i      LDR      r0,[r4,#0x1c]
        0x00002392:    7e6a        j~      LDRB     r2,[r5,#0x19]
        0x00002394:    0001        ..      MOVS     r1,r0
        0x00002396:    3120         1      ADDS     r1,r1,#0x20
        0x00002398:    73ca        .s      STRB     r2,[r1,#0xf]
        0x0000239a:    2204        ."      MOVS     r2,#4
        0x0000239c:    738a        .s      STRB     r2,[r1,#0xe]
        0x0000239e:    490b        .I      LDR      r1,[pc,#44] ; [0x23cc] = 0xe5007f80
        0x000023a0:    3980        .9      SUBS     r1,r1,#0x80
        0x000023a2:    69c9        .i      LDR      r1,[r1,#0x1c]
        0x000023a4:    6441        Ad      STR      r1,[r0,#0x44]
        0x000023a6:    490c        .I      LDR      r1,[pc,#48] ; [0x23d8] = 0x30e4
        0x000023a8:    3048        H0      ADDS     r0,r0,#0x48
        0x000023aa:    f7feef24    ..$.    BLX      sark_str_cpy ; 0x11f4
        0x000023ae:    f000fa2f    ../.    BL       sark_vic_init ; 0x2810
        0x000023b2:    7de8        .}      LDRB     r0,[r5,#0x17]
        0x000023b4:    4b09        .K      LDR      r3,[pc,#36] ; [0x23dc] = 0x1194
        0x000023b6:    2201        ."      MOVS     r2,#1
        0x000023b8:    2112        .!      MOVS     r1,#0x12
        0x000023ba:    f000fa49    ..I.    BL       sark_vic_set ; 0x2850
        0x000023be:    7e28        (~      LDRB     r0,[r5,#0x18]
        0x000023c0:    f7fffb64    ..d.    BL       event_alloc ; 0x1a8c
        0x000023c4:    201f        .       MOVS     r0,#0x1f
        0x000023c6:    bd70        p.      POP      {r4-r6,pc}
    $d
        0x000023c8:    004001f8    ..@.    DCD    4194808
        0x000023cc:    e5007f80    ....    DCD    3842015104
        0x000023d0:    deaddead    ....    DCD    3735936685
        0x000023d4:    e5007000    .p..    DCD    3842011136
        0x000023d8:    000030e4    .0..    DCD    12516
        0x000023dc:    00001194    ....    DCD    4500
    $t
    i.sark_int
    sark_int
        0x000023e0:    b5f8        ..      PUSH     {r3-r7,lr}
        0x000023e2:    2101        .!      MOVS     r1,#1
        0x000023e4:    4f52        RO      LDR      r7,[pc,#328] ; [0x2530] = 0x4001f8
        0x000023e6:    687a        zh      LDR      r2,[r7,#4]
        0x000023e8:    4091        .@      LSLS     r1,r1,r2
        0x000023ea:    4a52        RJ      LDR      r2,[pc,#328] ; [0x2534] = 0x5ec00000
        0x000023ec:    1889        ..      ADDS     r1,r1,r2
        0x000023ee:    2271        q"      MOVS     r2,#0x71
        0x000023f0:    0652        R.      LSLS     r2,r2,#25
        0x000023f2:    60d1        .`      STR      r1,[r2,#0xc]
        0x000023f4:    69fa        .i      LDR      r2,[r7,#0x1c]
        0x000023f6:    0013        ..      MOVS     r3,r2
        0x000023f8:    3320         3      ADDS     r3,r3,#0x20
        0x000023fa:    7e19        .~      LDRB     r1,[r3,#0x18]
        0x000023fc:    6b16        .k      LDR      r6,[r2,#0x30]
        0x000023fe:    2903        .)      CMP      r1,#3
        0x00002400:    d100        ..      BNE      0x2404 ; sark_int + 36
        0x00002402:    6310        .c      STR      r0,[r2,#0x30]
        0x00002404:    2500        .%      MOVS     r5,#0
        0x00002406:    761d        .v      STRB     r5,[r3,#0x18]
        0x00002408:    2901        .)      CMP      r1,#1
        0x0000240a:    d169        i.      BNE      0x24e0 ; sark_int + 256
        0x0000240c:    f000f8d2    ....    BL       sark_msg_get ; 0x25b4
        0x00002410:    0004        ..      MOVS     r4,r0
        0x00002412:    d061        a.      BEQ      0x24d8 ; sark_int + 248
        0x00002414:    0031        1.      MOVS     r1,r6
        0x00002416:    0020         .      MOVS     r0,r4
        0x00002418:    f7feeefa    ....    BLX      sark_msg_cpy ; 0x1210
        0x0000241c:    0030        0.      MOVS     r0,r6
        0x0000241e:    f000f9cb    ....    BL       sark_shmsg_free ; 0x27b8
        0x00002422:    6ab8        .j      LDR      r0,[r7,#0x28]
        0x00002424:    1c40        @.      ADDS     r0,r0,#1
        0x00002426:    62b8        .b      STR      r0,[r7,#0x28]
        0x00002428:    7aa6        .z      LDRB     r6,[r4,#0xa]
        0x0000242a:    0630        0.      LSLS     r0,r6,#24
        0x0000242c:    0f40        @.      LSRS     r0,r0,#29
        0x0000242e:    d131        1.      BNE      0x2494 ; sark_int + 180
        0x00002430:    88a0        ..      LDRH     r0,[r4,#4]
        0x00002432:    2818        .(      CMP      r0,#0x18
        0x00002434:    d201        ..      BCS      0x243a ; sark_int + 90
        0x00002436:    2081        .       MOVS     r0,#0x81
        0x00002438:    e01b        ..      B        0x2472 ; sark_int + 146
        0x0000243a:    8a20         .      LDRH     r0,[r4,#0x10]
        0x0000243c:    2180        .!      MOVS     r1,#0x80
        0x0000243e:    2800        .(      CMP      r0,#0
        0x00002440:    8221        !.      STRH     r1,[r4,#0x10]
        0x00002442:    d103        ..      BNE      0x244c ; sark_int + 108
        0x00002444:    0020         .      MOVS     r0,r4
        0x00002446:    f7fffef9    ....    BL       sark_cmd_ver ; 0x223c
        0x0000244a:    e014        ..      B        0x2476 ; sark_int + 150
        0x0000244c:    2802        .(      CMP      r0,#2
        0x0000244e:    d103        ..      BNE      0x2458 ; sark_int + 120
        0x00002450:    0020         .      MOVS     r0,r4
        0x00002452:    f7fffec3    ....    BL       sark_cmd_read ; 0x21dc
        0x00002456:    e00e        ..      B        0x2476 ; sark_int + 150
        0x00002458:    2803        .(      CMP      r0,#3
        0x0000245a:    d103        ..      BNE      0x2464 ; sark_int + 132
        0x0000245c:    0020         .      MOVS     r0,r4
        0x0000245e:    f7ffff13    ....    BL       sark_cmd_write ; 0x2288
        0x00002462:    e008        ..      B        0x2476 ; sark_int + 150
        0x00002464:    2805        .(      CMP      r0,#5
        0x00002466:    d103        ..      BNE      0x2470 ; sark_int + 144
        0x00002468:    0020         .      MOVS     r0,r4
        0x0000246a:    f7fffeb0    ....    BL       sark_cmd_fill ; 0x21ce
        0x0000246e:    e002        ..      B        0x2476 ; sark_int + 150
        0x00002470:    2083        .       MOVS     r0,#0x83
        0x00002472:    8220         .      STRH     r0,[r4,#0x10]
        0x00002474:    0028        (.      MOVS     r0,r5
        0x00002476:    300c        .0      ADDS     r0,r0,#0xc
        0x00002478:    80a0        ..      STRH     r0,[r4,#4]
        0x0000247a:    7aa1        .z      LDRB     r1,[r4,#0xa]
        0x0000247c:    89a0        ..      LDRH     r0,[r4,#0xc]
        0x0000247e:    7ae2        .z      LDRB     r2,[r4,#0xb]
        0x00002480:    72a2        .r      STRB     r2,[r4,#0xa]
        0x00002482:    72e1        .r      STRB     r1,[r4,#0xb]
        0x00002484:    89e1        ..      LDRH     r1,[r4,#0xe]
        0x00002486:    81a1        ..      STRH     r1,[r4,#0xc]
        0x00002488:    81e0        ..      STRH     r0,[r4,#0xe]
        0x0000248a:    210a        .!      MOVS     r1,#0xa
        0x0000248c:    0020         .      MOVS     r0,r4
        0x0000248e:    f000f8ab    ....    BL       sark_msg_send ; 0x25e8
        0x00002492:    e013        ..      B        0x24bc ; sark_int + 220
        0x00002494:    2040        @       MOVS     r0,#0x40
        0x00002496:    7e80        .~      LDRB     r0,[r0,#0x1a]
        0x00002498:    2800        .(      CMP      r0,#0
        0x0000249a:    d013        ..      BEQ      0x24c4 ; sark_int + 228
        0x0000249c:    4826        &H      LDR      r0,[pc,#152] ; [0x2538] = 0x4007fc
        0x0000249e:    6980        .i      LDR      r0,[r0,#0x18]
        0x000024a0:    2800        .(      CMP      r0,#0
        0x000024a2:    d00b        ..      BEQ      0x24bc ; sark_int + 220
        0x000024a4:    f7feee3e    ..>.    BLX      cpu_int_disable ; 0x1124
        0x000024a8:    0005        ..      MOVS     r5,r0
        0x000024aa:    0972        r.      LSRS     r2,r6,#5
        0x000024ac:    0021        !.      MOVS     r1,r4
        0x000024ae:    2003        .       MOVS     r0,#3
        0x000024b0:    f000fa46    ..F.    BL       schedule_sysmode ; 0x2940
        0x000024b4:    0028        (.      MOVS     r0,r5
        0x000024b6:    f7feee3e    ..>.    BLX      cpu_int_restore ; 0x1134
        0x000024ba:    bdf8        ..      POP      {r3-r7,pc}
        0x000024bc:    0020         .      MOVS     r0,r4
        0x000024be:    f000f869    ..i.    BL       sark_msg_free ; 0x2594
        0x000024c2:    bdf8        ..      POP      {r3-r7,pc}
        0x000024c4:    202f        /       MOVS     r0,#0x2f
        0x000024c6:    0600        ..      LSLS     r0,r0,#24
        0x000024c8:    6901        .i      LDR      r1,[r0,#0x10]
        0x000024ca:    00c9        ..      LSLS     r1,r1,#3
        0x000024cc:    d5f6        ..      BPL      0x24bc ; sark_int + 220
        0x000024ce:    491b        .I      LDR      r1,[pc,#108] ; [0x253c] = 0x400230
        0x000024d0:    628c        .b      STR      r4,[r1,#0x28]
        0x000024d2:    2101        .!      MOVS     r1,#1
        0x000024d4:    0709        ..      LSLS     r1,r1,#28
        0x000024d6:    e029        ).      B        0x252c ; sark_int + 332
        0x000024d8:    0030        0.      MOVS     r0,r6
        0x000024da:    f000f96d    ..m.    BL       sark_shmsg_free ; 0x27b8
        0x000024de:    bdf8        ..      POP      {r3-r7,pc}
        0x000024e0:    2902        .)      CMP      r1,#2
        0x000024e2:    d108        ..      BNE      0x24f6 ; sark_int + 278
        0x000024e4:    f7feee1e    ....    BLX      cpu_int_disable ; 0x1124
        0x000024e8:    69f8        .i      LDR      r0,[r7,#0x1c]
        0x000024ea:    3020         0      ADDS     r0,r0,#0x20
        0x000024ec:    7bc1        .{      LDRB     r1,[r0,#0xf]
        0x000024ee:    0030        0.      MOVS     r0,r6
        0x000024f0:    f7fefdbe    ....    BL       sark_aplx ; 0x1070
        0x000024f4:    bdf8        ..      POP      {r3-r7,pc}
        0x000024f6:    2905        .)      CMP      r1,#5
        0x000024f8:    d101        ..      BNE      0x24fe ; sark_int + 286
        0x000024fa:    2001        .       MOVS     r0,#1
        0x000024fc:    e002        ..      B        0x2504 ; sark_int + 292
        0x000024fe:    2906        .)      CMP      r1,#6
        0x00002500:    d103        ..      BNE      0x250a ; sark_int + 298
        0x00002502:    2000        .       MOVS     r0,#0
        0x00002504:    f7fffae2    ....    BL       event_pause ; 0x1acc
        0x00002508:    bdf8        ..      POP      {r3-r7,pc}
        0x0000250a:    2904        .)      CMP      r1,#4
        0x0000250c:    d103        ..      BNE      0x2516 ; sark_int + 310
        0x0000250e:    20ff        .       MOVS     r0,#0xff
        0x00002510:    f7fffaf4    ....    BL       event_stop ; 0x1afc
        0x00002514:    bdf8        ..      POP      {r3-r7,pc}
        0x00002516:    2907        .)      CMP      r1,#7
        0x00002518:    d1fc        ..      BNE      0x2514 ; sark_int + 308
        0x0000251a:    202f        /       MOVS     r0,#0x2f
        0x0000251c:    0600        ..      LSLS     r0,r0,#24
        0x0000251e:    6901        .i      LDR      r1,[r0,#0x10]
        0x00002520:    0089        ..      LSLS     r1,r1,#2
        0x00002522:    d5f7        ..      BPL      0x2514 ; sark_int + 308
        0x00002524:    4905        .I      LDR      r1,[pc,#20] ; [0x253c] = 0x400230
        0x00002526:    62ce        .b      STR      r6,[r1,#0x2c]
        0x00002528:    2101        .!      MOVS     r1,#1
        0x0000252a:    0749        I.      LSLS     r1,r1,#29
        0x0000252c:    6181        .a      STR      r1,[r0,#0x18]
        0x0000252e:    bdf8        ..      POP      {r3-r7,pc}
    $d
        0x00002530:    004001f8    ..@.    DCD    4194808
        0x00002534:    5ec00000    ...^    DCD    1589641216
        0x00002538:    004007fc    ..@.    DCD    4196348
        0x0000253c:    00400230    0.@.    DCD    4194864
    $t
    i.sark_led_set
    sark_led_set
        0x00002540:    b5f8        ..      PUSH     {r3-r7,lr}
        0x00002542:    0004        ..      MOVS     r4,r0
        0x00002544:    2100        .!      MOVS     r1,#0
        0x00002546:    4811        .H      LDR      r0,[pc,#68] ; [0x258c] = 0xe5007f30
        0x00002548:    f7fffae4    ....    BL       get4 ; 0x1b14
        0x0000254c:    0007        ..      MOVS     r7,r0
        0x0000254e:    4e10        .N      LDR      r6,[pc,#64] ; [0x2590] = 0xe2000040
        0x00002550:    2501        .%      MOVS     r5,#1
        0x00002552:    e018        ..      B        0x2586 ; sark_led_set + 70
        0x00002554:    480d        .H      LDR      r0,[pc,#52] ; [0x258c] = 0xe5007f30
        0x00002556:    0029        ).      MOVS     r1,r5
        0x00002558:    f7fffadc    ....    BL       get4 ; 0x1b14
        0x0000255c:    0001        ..      MOVS     r1,r0
        0x0000255e:    2001        .       MOVS     r0,#1
        0x00002560:    4088        .@      LSLS     r0,r0,r1
        0x00002562:    07e1        ..      LSLS     r1,r4,#31
        0x00002564:    0022        ".      MOVS     r2,r4
        0x00002566:    2302        .#      MOVS     r3,#2
        0x00002568:    0fc9        ..      LSRS     r1,r1,#31
        0x0000256a:    401a        .@      ANDS     r2,r2,r3
        0x0000256c:    08a4        ..      LSRS     r4,r4,#2
        0x0000256e:    2a00        .*      CMP      r2,#0
        0x00002570:    d103        ..      BNE      0x257a ; sark_led_set + 58
        0x00002572:    2900        .)      CMP      r1,#0
        0x00002574:    d006        ..      BEQ      0x2584 ; sark_led_set + 68
        0x00002576:    6831        1h      LDR      r1,[r6,#0]
        0x00002578:    4001        .@      ANDS     r1,r1,r0
        0x0000257a:    2900        .)      CMP      r1,#0
        0x0000257c:    d001        ..      BEQ      0x2582 ; sark_led_set + 66
        0x0000257e:    60f0        .`      STR      r0,[r6,#0xc]
        0x00002580:    e000        ..      B        0x2584 ; sark_led_set + 68
        0x00002582:    60b0        .`      STR      r0,[r6,#8]
        0x00002584:    1c6d        m.      ADDS     r5,r5,#1
        0x00002586:    42bd        .B      CMP      r5,r7
        0x00002588:    d9e4        ..      BLS      0x2554 ; sark_led_set + 20
        0x0000258a:    bdf8        ..      POP      {r3-r7,pc}
    $d
        0x0000258c:    e5007f30    0...    DCD    3842015024
        0x00002590:    e2000040    @...    DCD    3791650880
    $t
    i.sark_msg_free
    sark_msg_free
        0x00002594:    b570        p.      PUSH     {r4-r6,lr}
        0x00002596:    0005        ..      MOVS     r5,r0
        0x00002598:    4c05        .L      LDR      r4,[pc,#20] ; [0x25b0] = 0x4001f8
        0x0000259a:    f7feedc4    ....    BLX      cpu_int_disable ; 0x1124
        0x0000259e:    6a21        !j      LDR      r1,[r4,#0x20]
        0x000025a0:    6029        )`      STR      r1,[r5,#0]
        0x000025a2:    6225        %b      STR      r5,[r4,#0x20]
        0x000025a4:    8ca1        ..      LDRH     r1,[r4,#0x24]
        0x000025a6:    1e49        I.      SUBS     r1,r1,#1
        0x000025a8:    84a1        ..      STRH     r1,[r4,#0x24]
        0x000025aa:    f7feedc4    ....    BLX      cpu_int_restore ; 0x1134
        0x000025ae:    bd70        p.      POP      {r4-r6,pc}
    $d
        0x000025b0:    004001f8    ..@.    DCD    4194808
    $t
    i.sark_msg_get
    sark_msg_get
        0x000025b4:    b570        p.      PUSH     {r4-r6,lr}
        0x000025b6:    4c0b        .L      LDR      r4,[pc,#44] ; [0x25e4] = 0x4001f8
        0x000025b8:    f7feedb4    ....    BLX      cpu_int_disable ; 0x1124
        0x000025bc:    6a25        %j      LDR      r5,[r4,#0x20]
        0x000025be:    3420         4      ADDS     r4,r4,#0x20
        0x000025c0:    2d00        .-      CMP      r5,#0
        0x000025c2:    d00a        ..      BEQ      0x25da ; sark_msg_get + 38
        0x000025c4:    6829        )h      LDR      r1,[r5,#0]
        0x000025c6:    6021        !`      STR      r1,[r4,#0]
        0x000025c8:    88a1        ..      LDRH     r1,[r4,#4]
        0x000025ca:    1c49        I.      ADDS     r1,r1,#1
        0x000025cc:    0409        ..      LSLS     r1,r1,#16
        0x000025ce:    0c09        ..      LSRS     r1,r1,#16
        0x000025d0:    80a1        ..      STRH     r1,[r4,#4]
        0x000025d2:    88e2        ..      LDRH     r2,[r4,#6]
        0x000025d4:    4291        .B      CMP      r1,r2
        0x000025d6:    d900        ..      BLS      0x25da ; sark_msg_get + 38
        0x000025d8:    80e1        ..      STRH     r1,[r4,#6]
        0x000025da:    f7feedac    ....    BLX      cpu_int_restore ; 0x1134
        0x000025de:    0028        (.      MOVS     r0,r5
        0x000025e0:    bd70        p.      POP      {r4-r6,pc}
    $d
        0x000025e2:    0000        ..      DCW    0
        0x000025e4:    004001f8    ..@.    DCD    4194808
    $t
    i.sark_msg_send
    sark_msg_send
        0x000025e8:    b5f8        ..      PUSH     {r3-r7,lr}
        0x000025ea:    000d        ..      MOVS     r5,r1
        0x000025ec:    0006        ..      MOVS     r6,r0
        0x000025ee:    f000f8f5    ....    BL       sark_shmsg_get ; 0x27dc
        0x000025f2:    0004        ..      MOVS     r4,r0
        0x000025f4:    d101        ..      BNE      0x25fa ; sark_msg_send + 18
        0x000025f6:    2000        .       MOVS     r0,#0
        0x000025f8:    bdf8        ..      POP      {r3-r7,pc}
        0x000025fa:    0031        1.      MOVS     r1,r6
        0x000025fc:    0020         .      MOVS     r0,r4
        0x000025fe:    f7feee08    ....    BLX      sark_msg_cpy ; 0x1210
        0x00002602:    4e1c        .N      LDR      r6,[pc,#112] ; [0x2674] = 0x4001f8
        0x00002604:    2701        .'      MOVS     r7,#1
        0x00002606:    69f0        .i      LDR      r0,[r6,#0x1c]
        0x00002608:    6344        Dc      STR      r4,[r0,#0x34]
        0x0000260a:    3020         0      ADDS     r0,r0,#0x20
        0x0000260c:    7647        Gv      STRB     r7,[r0,#0x19]
        0x0000260e:    0038        8.      MOVS     r0,r7
        0x00002610:    f7feeda4    ....    BLX      sark_lock_get ; 0x115c
        0x00002614:    6832        2h      LDR      r2,[r6,#0]
        0x00002616:    4918        .I      LDR      r1,[pc,#96] ; [0x2678] = 0xe5007f40
        0x00002618:    003b        ;.      MOVS     r3,r7
        0x0000261a:    4093        .@      LSLS     r3,r3,r2
        0x0000261c:    6849        Ih      LDR      r1,[r1,#4]
        0x0000261e:    4a16        .J      LDR      r2,[pc,#88] ; [0x2678] = 0xe5007f40
        0x00002620:    430b        .C      ORRS     r3,r3,r1
        0x00002622:    2900        .)      CMP      r1,#0
        0x00002624:    6053        S`      STR      r3,[r2,#4]
        0x00002626:    d108        ..      BNE      0x263a ; sark_msg_send + 82
        0x00002628:    4913        .I      LDR      r1,[pc,#76] ; [0x2678] = 0xe5007f40
        0x0000262a:    2271        q"      MOVS     r2,#0x71
        0x0000262c:    3160        `1      ADDS     r1,r1,#0x60
        0x0000262e:    7a09        .z      LDRB     r1,[r1,#8]
        0x00002630:    408f        .@      LSLS     r7,r7,r1
        0x00002632:    4912        .I      LDR      r1,[pc,#72] ; [0x267c] = 0x5ec00000
        0x00002634:    1879        y.      ADDS     r1,r7,r1
        0x00002636:    0652        R.      LSLS     r2,r2,#25
        0x00002638:    6091        .`      STR      r1,[r2,#8]
        0x0000263a:    2101        .!      MOVS     r1,#1
        0x0000263c:    f7feeda0    ....    BLX      sark_lock_free ; 0x1180
        0x00002640:    490d        .I      LDR      r1,[pc,#52] ; [0x2678] = 0xe5007f40
        0x00002642:    3930        09      SUBS     r1,r1,#0x30
        0x00002644:    680a        .h      LDR      r2,[r1,#0]
        0x00002646:    69f0        .i      LDR      r0,[r6,#0x1c]
        0x00002648:    3020         0      ADDS     r0,r0,#0x20
        0x0000264a:    e003        ..      B        0x2654 ; sark_msg_send + 108
        0x0000264c:    680b        .h      LDR      r3,[r1,#0]
        0x0000264e:    1a9b        ..      SUBS     r3,r3,r2
        0x00002650:    42ab        .B      CMP      r3,r5
        0x00002652:    d802        ..      BHI      0x265a ; sark_msg_send + 114
        0x00002654:    7e43        C~      LDRB     r3,[r0,#0x19]
        0x00002656:    2b00        .+      CMP      r3,#0
        0x00002658:    d1f8        ..      BNE      0x264c ; sark_msg_send + 100
        0x0000265a:    7e40        @~      LDRB     r0,[r0,#0x19]
        0x0000265c:    2800        .(      CMP      r0,#0
        0x0000265e:    d003        ..      BEQ      0x2668 ; sark_msg_send + 128
        0x00002660:    0020         .      MOVS     r0,r4
        0x00002662:    f000f8a9    ....    BL       sark_shmsg_free ; 0x27b8
        0x00002666:    e7c6        ..      B        0x25f6 ; sark_msg_send + 14
        0x00002668:    6af0        .j      LDR      r0,[r6,#0x2c]
        0x0000266a:    1c40        @.      ADDS     r0,r0,#1
        0x0000266c:    62f0        .b      STR      r0,[r6,#0x2c]
        0x0000266e:    2001        .       MOVS     r0,#1
        0x00002670:    bdf8        ..      POP      {r3-r7,pc}
    $d
        0x00002672:    0000        ..      DCW    0
        0x00002674:    004001f8    ..@.    DCD    4194808
        0x00002678:    e5007f40    @...    DCD    3842015040
        0x0000267c:    5ec00000    ...^    DCD    1589641216
    $t
    i.sark_post_main
    sark_post_main
        0x00002680:    4906        .I      LDR      r1,[pc,#24] ; [0x269c] = 0xe5007f60
        0x00002682:    2000        .       MOVS     r0,#0
        0x00002684:    7108        .q      STRB     r0,[r1,#4]
        0x00002686:    4806        .H      LDR      r0,[pc,#24] ; [0x26a0] = 0x4000b0
        0x00002688:    7840        @x      LDRB     r0,[r0,#1]
        0x0000268a:    2800        .(      CMP      r0,#0
        0x0000268c:    d001        ..      BEQ      0x2692 ; sark_post_main + 18
        0x0000268e:    4805        .H      LDR      r0,[pc,#20] ; [0x26a4] = 0xe2000190
        0x00002690:    6800        .h      LDR      r0,[r0,#0]
        0x00002692:    2040        @       MOVS     r0,#0x40
        0x00002694:    212f        /!      MOVS     r1,#0x2f
        0x00002696:    0609        ..      LSLS     r1,r1,#24
        0x00002698:    6108        .a      STR      r0,[r1,#0x10]
        0x0000269a:    4770        pG      BX       lr
    $d
        0x0000269c:    e5007f60    `...    DCD    3842015072
        0x000026a0:    004000b0    ..@.    DCD    4194480
        0x000026a4:    e2000190    ....    DCD    3791651216
    $t
    i.sark_pre_main
    sark_pre_main
        0x000026a8:    482b        +H      LDR      r0,[pc,#172] ; [0x2758] = 0xe2000110
        0x000026aa:    b570        p.      PUSH     {r4-r6,lr}
        0x000026ac:    2310        .#      MOVS     r3,#0x10
        0x000026ae:    6800        .h      LDR      r0,[r0,#0]
        0x000026b0:    4c2a        *L      LDR      r4,[pc,#168] ; [0x275c] = 0x4000b0
        0x000026b2:    17c0        ..      ASRS     r0,r0,#31
        0x000026b4:    1c40        @.      ADDS     r0,r0,#1
        0x000026b6:    7060        `p      STRB     r0,[r4,#1]
        0x000026b8:    7860        `x      LDRB     r0,[r4,#1]
        0x000026ba:    4d29        )M      LDR      r5,[pc,#164] ; [0x2760] = 0xe5007f60
        0x000026bc:    2800        .(      CMP      r0,#0
        0x000026be:    d014        ..      BEQ      0x26ea ; sark_pre_main + 66
        0x000026c0:    2100        .!      MOVS     r1,#0
        0x000026c2:    2004        .       MOVS     r0,#4
        0x000026c4:    f7fffcde    ....    BL       rtr_alloc ; 0x2084
        0x000026c8:    4926        &I      LDR      r1,[pc,#152] ; [0x2764] = 0x4001f8
        0x000026ca:    6460        `d      STR      r0,[r4,#0x44]
        0x000026cc:    6809        .h      LDR      r1,[r1,#0]
        0x000026ce:    2601        .&      MOVS     r6,#1
        0x000026d0:    1d89        ..      ADDS     r1,r1,#6
        0x000026d2:    0033        3.      MOVS     r3,r6
        0x000026d4:    408b        .@      LSLS     r3,r3,r1
        0x000026d6:    4924        $I      LDR      r1,[pc,#144] ; [0x2768] = 0xffff802
        0x000026d8:    176a        j.      ASRS     r2,r5,#29
        0x000026da:    1c80        ..      ADDS     r0,r0,#2
        0x000026dc:    f7fffd18    ....    BL       rtr_mc_set ; 0x2110
        0x000026e0:    20ad        .       MOVS     r0,#0xad
        0x000026e2:    7128        (q      STRB     r0,[r5,#4]
        0x000026e4:    63a6        .c      STR      r6,[r4,#0x38]
        0x000026e6:    63e6        .c      STR      r6,[r4,#0x3c]
        0x000026e8:    e017        ..      B        0x271a ; sark_pre_main + 114
        0x000026ea:    4a1d        .J      LDR      r2,[pc,#116] ; [0x2760] = 0xe5007f60
        0x000026ec:    3a50        P:      SUBS     r2,r2,#0x50
        0x000026ee:    6810        .h      LDR      r0,[r2,#0]
        0x000026f0:    491e        .I      LDR      r1,[pc,#120] ; [0x276c] = 0x1388
        0x000026f2:    6816        .h      LDR      r6,[r2,#0]
        0x000026f4:    1a36        6.      SUBS     r6,r6,r0
        0x000026f6:    428e        .B      CMP      r6,r1
        0x000026f8:    d202        ..      BCS      0x2700 ; sark_pre_main + 88
        0x000026fa:    792e        .y      LDRB     r6,[r5,#4]
        0x000026fc:    2ead        ..      CMP      r6,#0xad
        0x000026fe:    d3f8        ..      BCC      0x26f2 ; sark_pre_main + 74
        0x00002700:    7928        (y      LDRB     r0,[r5,#4]
        0x00002702:    28ad        .(      CMP      r0,#0xad
        0x00002704:    d209        ..      BCS      0x271a ; sark_pre_main + 114
        0x00002706:    6d20         m      LDR      r0,[r4,#0x50]
        0x00002708:    a119        ..      ADR      r1,{pc}+0x68 ; 0x2770
        0x0000270a:    4318        .C      ORRS     r0,r0,r3
        0x0000270c:    6520         e      STR      r0,[r4,#0x50]
        0x0000270e:    2000        .       MOVS     r0,#0
        0x00002710:    f7fffa30    ..0.    BL       io_printf ; 0x1b74
        0x00002714:    20c8        .       MOVS     r0,#0xc8
        0x00002716:    f7fefcd7    ....    BL       sark_delay_us ; 0x10c8
        0x0000271a:    4923        #I      LDR      r1,[pc,#140] ; [0x27a8] = 0x400824
        0x0000271c:    2000        .       MOVS     r0,#0
        0x0000271e:    6008        .`      STR      r0,[r1,#0]
        0x00002720:    6048        H`      STR      r0,[r1,#4]
        0x00002722:    6088        .`      STR      r0,[r1,#8]
        0x00002724:    60c8        .`      STR      r0,[r1,#0xc]
        0x00002726:    6108        .a      STR      r0,[r1,#0x10]
        0x00002728:    6148        Ha      STR      r0,[r1,#0x14]
        0x0000272a:    6188        .a      STR      r0,[r1,#0x18]
        0x0000272c:    61c8        .a      STR      r0,[r1,#0x1c]
        0x0000272e:    6208        .b      STR      r0,[r1,#0x20]
        0x00002730:    6248        Hb      STR      r0,[r1,#0x24]
        0x00002732:    6288        .b      STR      r0,[r1,#0x28]
        0x00002734:    2240        @"      MOVS     r2,#0x40
        0x00002736:    212f        /!      MOVS     r1,#0x2f
        0x00002738:    0609        ..      LSLS     r1,r1,#24
        0x0000273a:    614a        Ja      STR      r2,[r1,#0x14]
        0x0000273c:    4d1c        .M      LDR      r5,[pc,#112] ; [0x27b0] = 0x2f000100
        0x0000273e:    4b1b        .K      LDR      r3,[pc,#108] ; [0x27ac] = 0x12b0
        0x00002740:    60eb        .`      STR      r3,[r5,#0xc]
        0x00002742:    4d1c        .M      LDR      r5,[pc,#112] ; [0x27b4] = 0x2f000200
        0x00002744:    2326        &#      MOVS     r3,#0x26
        0x00002746:    60eb        .`      STR      r3,[r5,#0xc]
        0x00002748:    68cb        .h      LDR      r3,[r1,#0xc]
        0x0000274a:    4393        .C      BICS     r3,r3,r2
        0x0000274c:    60cb        .`      STR      r3,[r1,#0xc]
        0x0000274e:    610a        .a      STR      r2,[r1,#0x10]
        0x00002750:    6bc0        .k      LDR      r0,[r0,#0x3c]
        0x00002752:    6420         d      STR      r0,[r4,#0x40]
        0x00002754:    bd70        p.      POP      {r4-r6,pc}
    $d
        0x00002756:    0000        ..      DCW    0
        0x00002758:    e2000110    ....    DCD    3791651088
        0x0000275c:    004000b0    ..@.    DCD    4194480
        0x00002760:    e5007f60    `...    DCD    3842015072
        0x00002764:    004001f8    ..@.    DCD    4194808
        0x00002768:    0ffff802    ....    DCD    268433410
        0x0000276c:    00001388    ....    DCD    5000
        0x00002770:    615b0909    ..[a    DCD    1633356041
        0x00002774:    775f6970    pi_w    DCD    2002741616
        0x00002778:    5d6e7261    arn]    DCD    1567519329
        0x0000277c:    72617720     war    DCD    1918990112
        0x00002780:    676e696e    ning    DCD    1735289198
        0x00002784:    6177203a    : wa    DCD    1635196986
        0x00002788:    6e697469    itin    DCD    1852404841
        0x0000278c:    6f662067    g fo    DCD    1868963943
        0x00002790:    6f722072    r ro    DCD    1869750386
        0x00002794:    72657475    uter    DCD    1919251573
        0x00002798:    696e6920     ini    DCD    1768843552
        0x0000279c:    61662074    t fa    DCD    1634082932
        0x000027a0:    64656c69    iled    DCD    1684368489
        0x000027a4:    00000a2e    ....    DCD    2606
        0x000027a8:    00400824    $.@.    DCD    4196388
        0x000027ac:    000012b0    ....    DCD    4784
        0x000027b0:    2f000100    .../    DCD    788529408
        0x000027b4:    2f000200    .../    DCD    788529664
    $t
    i.sark_shmsg_free
    sark_shmsg_free
        0x000027b8:    b510        ..      PUSH     {r4,lr}
        0x000027ba:    0004        ..      MOVS     r4,r0
        0x000027bc:    2000        .       MOVS     r0,#0
        0x000027be:    f7feecce    ....    BLX      sark_lock_get ; 0x115c
        0x000027c2:    4905        .I      LDR      r1,[pc,#20] ; [0x27d8] = 0xe5007f68
        0x000027c4:    680a        .h      LDR      r2,[r1,#0]
        0x000027c6:    6022        "`      STR      r2,[r4,#0]
        0x000027c8:    600c        .`      STR      r4,[r1,#0]
        0x000027ca:    888a        ..      LDRH     r2,[r1,#4]
        0x000027cc:    1e52        R.      SUBS     r2,r2,#1
        0x000027ce:    808a        ..      STRH     r2,[r1,#4]
        0x000027d0:    2100        .!      MOVS     r1,#0
        0x000027d2:    f7feecd6    ....    BLX      sark_lock_free ; 0x1180
        0x000027d6:    bd10        ..      POP      {r4,pc}
    $d
        0x000027d8:    e5007f68    h...    DCD    3842015080
    $t
    i.sark_shmsg_get
    sark_shmsg_get
        0x000027dc:    2000        .       MOVS     r0,#0
        0x000027de:    b510        ..      PUSH     {r4,lr}
        0x000027e0:    f7feecbc    ....    BLX      sark_lock_get ; 0x115c
        0x000027e4:    4909        .I      LDR      r1,[pc,#36] ; [0x280c] = 0xe5007f68
        0x000027e6:    680c        .h      LDR      r4,[r1,#0]
        0x000027e8:    2c00        .,      CMP      r4,#0
        0x000027ea:    d00a        ..      BEQ      0x2802 ; sark_shmsg_get + 38
        0x000027ec:    6822        "h      LDR      r2,[r4,#0]
        0x000027ee:    600a        .`      STR      r2,[r1,#0]
        0x000027f0:    888a        ..      LDRH     r2,[r1,#4]
        0x000027f2:    1c52        R.      ADDS     r2,r2,#1
        0x000027f4:    0412        ..      LSLS     r2,r2,#16
        0x000027f6:    0c12        ..      LSRS     r2,r2,#16
        0x000027f8:    808a        ..      STRH     r2,[r1,#4]
        0x000027fa:    88cb        ..      LDRH     r3,[r1,#6]
        0x000027fc:    429a        .B      CMP      r2,r3
        0x000027fe:    d900        ..      BLS      0x2802 ; sark_shmsg_get + 38
        0x00002800:    80ca        ..      STRH     r2,[r1,#6]
        0x00002802:    2100        .!      MOVS     r1,#0
        0x00002804:    f7feecbc    ....    BLX      sark_lock_free ; 0x1180
        0x00002808:    0020         .      MOVS     r0,r4
        0x0000280a:    bd10        ..      POP      {r4,pc}
    $d
        0x0000280c:    e5007f68    h...    DCD    3842015080
    $t
    i.sark_vic_init
    sark_vic_init
        0x00002810:    2000        .       MOVS     r0,#0
        0x00002812:    b5f0        ..      PUSH     {r4-r7,lr}
        0x00002814:    43c0        .C      MVNS     r0,r0
        0x00002816:    242f        /$      MOVS     r4,#0x2f
        0x00002818:    0624        $.      LSLS     r4,r4,#24
        0x0000281a:    6160        `a      STR      r0,[r4,#0x14]
        0x0000281c:    2200        ."      MOVS     r2,#0
        0x0000281e:    60e2        .`      STR      r2,[r4,#0xc]
        0x00002820:    6322        "c      STR      r2,[r4,#0x30]
        0x00002822:    4b07        .K      LDR      r3,[pc,#28] ; [0x2840] = 0x2f000200
        0x00002824:    4d07        .M      LDR      r5,[pc,#28] ; [0x2844] = 0x104
        0x00002826:    4f08        .O      LDR      r7,[pc,#32] ; [0x2848] = 0x2f000100
        0x00002828:    0010        ..      MOVS     r0,r2
        0x0000282a:    0081        ..      LSLS     r1,r0,#2
        0x0000282c:    18ce        ..      ADDS     r6,r1,r3
        0x0000282e:    6032        2`      STR      r2,[r6,#0]
        0x00002830:    19c9        ..      ADDS     r1,r1,r7
        0x00002832:    600d        .`      STR      r5,[r1,#0]
        0x00002834:    1c40        @.      ADDS     r0,r0,#1
        0x00002836:    2810        .(      CMP      r0,#0x10
        0x00002838:    d3f7        ..      BCC      0x282a ; sark_vic_init + 26
        0x0000283a:    4804        .H      LDR      r0,[pc,#16] ; [0x284c] = 0x11c4
        0x0000283c:    6360        `c      STR      r0,[r4,#0x34]
        0x0000283e:    bdf0        ..      POP      {r4-r7,pc}
    $d
        0x00002840:    2f000200    .../    DCD    788529664
        0x00002844:    00000104    ....    DCD    260
        0x00002848:    2f000100    .../    DCD    788529408
        0x0000284c:    000011c4    ....    DCD    4548
    $t
    i.sark_vic_set
    sark_vic_set
        0x00002850:    b510        ..      PUSH     {r4,lr}
        0x00002852:    4c08        .L      LDR      r4,[pc,#32] ; [0x2874] = 0x2f000100
        0x00002854:    0080        ..      LSLS     r0,r0,#2
        0x00002856:    1904        ..      ADDS     r4,r0,r4
        0x00002858:    6023        #`      STR      r3,[r4,#0]
        0x0000285a:    4c07        .L      LDR      r4,[pc,#28] ; [0x2878] = 0x2f000200
        0x0000285c:    2320         #      MOVS     r3,#0x20
        0x0000285e:    430b        .C      ORRS     r3,r3,r1
        0x00002860:    1900        ..      ADDS     r0,r0,r4
        0x00002862:    6003        .`      STR      r3,[r0,#0]
        0x00002864:    2a00        .*      CMP      r2,#0
        0x00002866:    d004        ..      BEQ      0x2872 ; sark_vic_set + 34
        0x00002868:    2001        .       MOVS     r0,#1
        0x0000286a:    4088        .@      LSLS     r0,r0,r1
        0x0000286c:    212f        /!      MOVS     r1,#0x2f
        0x0000286e:    0609        ..      LSLS     r1,r1,#24
        0x00002870:    6108        .a      STR      r0,[r1,#0x10]
        0x00002872:    bd10        ..      POP      {r4,pc}
    $d
        0x00002874:    2f000100    .../    DCD    788529408
        0x00002878:    2f000200    .../    DCD    788529664
    $t
    i.sark_xalloc
    sark_xalloc
        0x0000287c:    b5ff        ..      PUSH     {r0-r7,lr}
        0x0000287e:    b081        ..      SUB      sp,sp,#4
        0x00002880:    0016        ..      MOVS     r6,r2
        0x00002882:    001d        ..      MOVS     r5,r3
        0x00002884:    2900        .)      CMP      r1,#0
        0x00002886:    d030        0.      BEQ      0x28ea ; sark_xalloc + 110
        0x00002888:    2eff        ..      CMP      r6,#0xff
        0x0000288a:    d82e        ..      BHI      0x28ea ; sark_xalloc + 110
        0x0000288c:    0a28        (.      LSRS     r0,r5,#8
        0x0000288e:    07aa        ..      LSLS     r2,r5,#30
        0x00002890:    d401        ..      BMI      0x2896 ; sark_xalloc + 26
        0x00002892:    2040        @       MOVS     r0,#0x40
        0x00002894:    7e40        @~      LDRB     r0,[r0,#0x19]
        0x00002896:    0200        ..      LSLS     r0,r0,#8
        0x00002898:    1987        ..      ADDS     r7,r0,r6
        0x0000289a:    2e00        ..      CMP      r6,#0
        0x0000289c:    d005        ..      BEQ      0x28aa ; sark_xalloc + 46
        0x0000289e:    4827        'H      LDR      r0,[pc,#156] ; [0x293c] = 0xe5007fc0
        0x000028a0:    00ba        ..      LSLS     r2,r7,#2
        0x000028a2:    69c0        .i      LDR      r0,[r0,#0x1c]
        0x000028a4:    5880        .X      LDR      r0,[r0,r2]
        0x000028a6:    2800        .(      CMP      r0,#0
        0x000028a8:    d11f        ..      BNE      0x28ea ; sark_xalloc + 110
        0x000028aa:    1cc9        ..      ADDS     r1,r1,#3
        0x000028ac:    0888        ..      LSRS     r0,r1,#2
        0x000028ae:    0080        ..      LSLS     r0,r0,#2
        0x000028b0:    3008        .0      ADDS     r0,r0,#8
        0x000028b2:    9002        ..      STR      r0,[sp,#8]
        0x000028b4:    07e8        ..      LSLS     r0,r5,#31
        0x000028b6:    d003        ..      BEQ      0x28c0 ; sark_xalloc + 68
        0x000028b8:    2006        .       MOVS     r0,#6
        0x000028ba:    f7feec50    ..P.    BLX      sark_lock_get ; 0x115c
        0x000028be:    4684        .F      MOV      r12,r0
        0x000028c0:    9801        ..      LDR      r0,[sp,#4]
        0x000028c2:    2200        ."      MOVS     r2,#0
        0x000028c4:    6804        .h      LDR      r4,[r0,#0]
        0x000028c6:    e008        ..      B        0x28da ; sark_xalloc + 94
        0x000028c8:    9802        ..      LDR      r0,[sp,#8]
        0x000028ca:    6821        !h      LDR      r1,[r4,#0]
        0x000028cc:    1820         .      ADDS     r0,r4,r0
        0x000028ce:    42a0        .B      CMP      r0,r4
        0x000028d0:    d905        ..      BLS      0x28de ; sark_xalloc + 98
        0x000028d2:    4288        .B      CMP      r0,r1
        0x000028d4:    d90c        ..      BLS      0x28f0 ; sark_xalloc + 116
        0x000028d6:    0022        ".      MOVS     r2,r4
        0x000028d8:    6864        dh      LDR      r4,[r4,#4]
        0x000028da:    2c00        .,      CMP      r4,#0
        0x000028dc:    d1f4        ..      BNE      0x28c8 ; sark_xalloc + 76
        0x000028de:    07e8        ..      LSLS     r0,r5,#31
        0x000028e0:    d003        ..      BEQ      0x28ea ; sark_xalloc + 110
        0x000028e2:    2106        .!      MOVS     r1,#6
        0x000028e4:    4660        `F      MOV      r0,r12
        0x000028e6:    f7feec4c    ..L.    BLX      sark_lock_free ; 0x1180
        0x000028ea:    2000        .       MOVS     r0,#0
        0x000028ec:    b005        ..      ADD      sp,sp,#0x14
        0x000028ee:    bdf0        ..      POP      {r4-r7,pc}
        0x000028f0:    0003        ..      MOVS     r3,r0
        0x000028f2:    3308        .3      ADDS     r3,r3,#8
        0x000028f4:    428b        .B      CMP      r3,r1
        0x000028f6:    d204        ..      BCS      0x2902 ; sark_xalloc + 134
        0x000028f8:    6001        .`      STR      r1,[r0,#0]
        0x000028fa:    6020         `      STR      r0,[r4,#0]
        0x000028fc:    6861        ah      LDR      r1,[r4,#4]
        0x000028fe:    6041        A`      STR      r1,[r0,#4]
        0x00002900:    6060        ``      STR      r0,[r4,#4]
        0x00002902:    2a00        .*      CMP      r2,#0
        0x00002904:    d002        ..      BEQ      0x290c ; sark_xalloc + 144
        0x00002906:    6860        `h      LDR      r0,[r4,#4]
        0x00002908:    6050        P`      STR      r0,[r2,#4]
        0x0000290a:    e002        ..      B        0x2912 ; sark_xalloc + 150
        0x0000290c:    9801        ..      LDR      r0,[sp,#4]
        0x0000290e:    6861        ah      LDR      r1,[r4,#4]
        0x00002910:    6001        .`      STR      r1,[r0,#0]
        0x00002912:    07e8        ..      LSLS     r0,r5,#31
        0x00002914:    d003        ..      BEQ      0x291e ; sark_xalloc + 162
        0x00002916:    2106        .!      MOVS     r1,#6
        0x00002918:    4660        `F      MOV      r0,r12
        0x0000291a:    f7feec32    ..2.    BLX      sark_lock_free ; 0x1180
        0x0000291e:    2001        .       MOVS     r0,#1
        0x00002920:    0400        ..      LSLS     r0,r0,#16
        0x00002922:    1a38        8.      SUBS     r0,r7,r0
        0x00002924:    2e00        ..      CMP      r6,#0
        0x00002926:    6060        ``      STR      r0,[r4,#4]
        0x00002928:    d005        ..      BEQ      0x2936 ; sark_xalloc + 186
        0x0000292a:    4904        .I      LDR      r1,[pc,#16] ; [0x293c] = 0xe5007fc0
        0x0000292c:    0020         .      MOVS     r0,r4
        0x0000292e:    69c9        .i      LDR      r1,[r1,#0x1c]
        0x00002930:    3008        .0      ADDS     r0,r0,#8
        0x00002932:    00ba        ..      LSLS     r2,r7,#2
        0x00002934:    5088        .P      STR      r0,[r1,r2]
        0x00002936:    0020         .      MOVS     r0,r4
        0x00002938:    3008        .0      ADDS     r0,r0,#8
        0x0000293a:    e7d7        ..      B        0x28ec ; sark_xalloc + 112
    $d
        0x0000293c:    e5007fc0    ....    DCD    3842015168
    $t
    i.schedule_sysmode
    schedule_sysmode
        0x00002940:    0003        ..      MOVS     r3,r0
        0x00002942:    b4f0        ..      PUSH     {r4-r7}
        0x00002944:    0008        ..      MOVS     r0,r1
        0x00002946:    4e1a        .N      LDR      r6,[pc,#104] ; [0x29b0] = 0x4007fc
        0x00002948:    0011        ..      MOVS     r1,r2
        0x0000294a:    00dc        ..      LSLS     r4,r3,#3
        0x0000294c:    19a2        ..      ADDS     r2,r4,r6
        0x0000294e:    6853        Sh      LDR      r3,[r2,#4]
        0x00002950:    2b00        .+      CMP      r3,#0
        0x00002952:    dc02        ..      BGT      0x295a ; schedule_sysmode + 26
        0x00002954:    5932        2Y      LDR      r2,[r6,r4]
        0x00002956:    bcf0        ..      POP      {r4-r7}
        0x00002958:    4710        .G      BX       r2
        0x0000295a:    22c8        ."      MOVS     r2,#0xc8
        0x0000295c:    4353        SC      MULS     r3,r2,r3
        0x0000295e:    4a15        .J      LDR      r2,[pc,#84] ; [0x29b4] = 0x4004dc
        0x00002960:    189b        ..      ADDS     r3,r3,r2
        0x00002962:    3bc8        .;      SUBS     r3,r3,#0xc8
        0x00002964:    685d        ]h      LDR      r5,[r3,#4]
        0x00002966:    681f        .h      LDR      r7,[r3,#0]
        0x00002968:    1c6a        j.      ADDS     r2,r5,#1
        0x0000296a:    0712        ..      LSLS     r2,r2,#28
        0x0000296c:    0f12        ..      LSRS     r2,r2,#28
        0x0000296e:    42ba        .B      CMP      r2,r7
        0x00002970:    d014        ..      BEQ      0x299c ; schedule_sysmode + 92
        0x00002972:    5932        2Y      LDR      r2,[r6,r4]
        0x00002974:    240c        .$      MOVS     r4,#0xc
        0x00002976:    4365        eC      MULS     r5,r4,r5
        0x00002978:    18ec        ..      ADDS     r4,r5,r3
        0x0000297a:    60a2        .`      STR      r2,[r4,#8]
        0x0000297c:    685a        Zh      LDR      r2,[r3,#4]
        0x0000297e:    240c        .$      MOVS     r4,#0xc
        0x00002980:    4362        bC      MULS     r2,r4,r2
        0x00002982:    18d2        ..      ADDS     r2,r2,r3
        0x00002984:    60d0        .`      STR      r0,[r2,#0xc]
        0x00002986:    6858        Xh      LDR      r0,[r3,#4]
        0x00002988:    4360        `C      MULS     r0,r4,r0
        0x0000298a:    18c0        ..      ADDS     r0,r0,r3
        0x0000298c:    6101        .a      STR      r1,[r0,#0x10]
        0x0000298e:    6858        Xh      LDR      r0,[r3,#4]
        0x00002990:    1c40        @.      ADDS     r0,r0,#1
        0x00002992:    0700        ..      LSLS     r0,r0,#28
        0x00002994:    0f00        ..      LSRS     r0,r0,#28
        0x00002996:    6058        X`      STR      r0,[r3,#4]
        0x00002998:    bcf0        ..      POP      {r4-r7}
        0x0000299a:    4770        pG      BX       lr
        0x0000299c:    4806        .H      LDR      r0,[pc,#24] ; [0x29b8] = 0x4000b0
        0x0000299e:    2201        ."      MOVS     r2,#1
        0x000029a0:    6d01        .m      LDR      r1,[r0,#0x50]
        0x000029a2:    4311        .C      ORRS     r1,r1,r2
        0x000029a4:    6501        .e      STR      r1,[r0,#0x50]
        0x000029a6:    6d41        Am      LDR      r1,[r0,#0x54]
        0x000029a8:    1c49        I.      ADDS     r1,r1,#1
        0x000029aa:    6541        Ae      STR      r1,[r0,#0x54]
        0x000029ac:    e7f4        ..      B        0x2998 ; schedule_sysmode + 88
    $d
        0x000029ae:    0000        ..      DCW    0
        0x000029b0:    004007fc    ..@.    DCD    4196348
        0x000029b4:    004004dc    ..@.    DCD    4195548
        0x000029b8:    004000b0    ..@.    DCD    4194480
    $t
    i.send_mc_packet_fulfil
    send_mc_packet_fulfil
        0x000029bc:    2301        .#      MOVS     r3,#1
        0x000029be:    075b        [.      LSLS     r3,r3,#29
        0x000029c0:    2a00        .*      CMP      r2,#0
        0x000029c2:    d000        ..      BEQ      0x29c6 ; send_mc_packet_fulfil + 10
        0x000029c4:    6059        Y`      STR      r1,[r3,#4]
        0x000029c6:    6098        .`      STR      r0,[r3,#8]
        0x000029c8:    4770        pG      BX       lr
        0x000029ca:    0000        ..      MOVS     r0,r0
    $a
    i.soft_int_fiqsr
    soft_int_fiqsr
        0x000029cc:    e92d500f    .P-.    PUSH     {r0-r3,r12,lr}
        0x000029d0:    e3a00002    ....    MOV      r0,#2
        0x000029d4:    e3a0142f    /...    MOV      r1,#0x2f000000
        0x000029d8:    e581001c    ....    STR      r0,[r1,#0x1c]
        0x000029dc:    e59f0028    (...    LDR      r0,[pc,#40] ; [0x2a0c] = 0x4007fc
        0x000029e0:    e5902020      ..    LDR      r2,[r0,#0x20]
        0x000029e4:    e59f0024    $...    LDR      r0,[pc,#36] ; [0x2a10] = 0x4000fc
        0x000029e8:    e5901000    ....    LDR      r1,[r0,#0]
        0x000029ec:    e59f0020     ...    LDR      r0,[pc,#32] ; [0x2a14] = 0x4000f8
        0x000029f0:    e5900000    ....    LDR      r0,[r0,#0]
        0x000029f4:    e12fff32    2./.    BLX      r2
        0x000029f8:    e59f1018    ....    LDR      r1,[pc,#24] ; [0x2a18] = 0x4000b0
        0x000029fc:    e3a00000    ....    MOV      r0,#0
        0x00002a00:    e5c10000    ....    STRB     r0,[r1,#0]
        0x00002a04:    e8bd500f    .P..    POP      {r0-r3,r12,lr}
        0x00002a08:    e25ef004    ..^.    SUBS     pc,lr,#4
    $d
        0x00002a0c:    004007fc    ..@.    DCD    4196348
        0x00002a10:    004000fc    ..@.    DCD    4194556
        0x00002a14:    004000f8    ..@.    DCD    4194552
        0x00002a18:    004000b0    ..@.    DCD    4194480
    $a
    i.soft_int_isr
    soft_int_isr
        0x00002a1c:    e92d503f    ?P-.    PUSH     {r0-r5,r12,lr}
        0x00002a20:    e3a00002    ....    MOV      r0,#2
        0x00002a24:    e3a0442f    /D..    MOV      r4,#0x2f000000
        0x00002a28:    e584001c    ....    STR      r0,[r4,#0x1c]
        0x00002a2c:    e59f1038    8...    LDR      r1,[pc,#56] ; [0x2a6c] = 0x4000b0
        0x00002a30:    e3a00000    ....    MOV      r0,#0
        0x00002a34:    e5c10000    ....    STRB     r0,[r1,#0]
        0x00002a38:    e59f0030    0...    LDR      r0,[pc,#48] ; [0x2a70] = 0x4007fc
        0x00002a3c:    e5900020     ...    LDR      r0,[r0,#0x20]
        0x00002a40:    e3500000    ..P.    CMP      r0,#0
        0x00002a44:    159f0028    (...    LDRNE    r0,[pc,#40] ; [0x2a74] = 0x4000fc
        0x00002a48:    15902000    . ..    LDRNE    r2,[r0,#0]
        0x00002a4c:    159f0024    $...    LDRNE    r0,[pc,#36] ; [0x2a78] = 0x4000f8
        0x00002a50:    15901000    ....    LDRNE    r1,[r0,#0]
        0x00002a54:    13a00004    ....    MOVNE    r0,#4
        0x00002a58:    1bfff9da    ....    BLNE     schedule ; 0x11c8
        0x00002a5c:    e3a00001    ....    MOV      r0,#1
        0x00002a60:    e5840030    0...    STR      r0,[r4,#0x30]
        0x00002a64:    e8bd503f    ?P..    POP      {r0-r5,r12,lr}
        0x00002a68:    e25ef004    ..^.    SUBS     pc,lr,#4
    $d
        0x00002a6c:    004000b0    ..@.    DCD    4194480
        0x00002a70:    004007fc    ..@.    DCD    4196348
        0x00002a74:    004000fc    ..@.    DCD    4194556
        0x00002a78:    004000f8    ..@.    DCD    4194552
    $t
    i.spin1_callback_on
    spin1_callback_on
        0x00002a7c:    b5f8        ..      PUSH     {r3-r7,lr}
        0x00002a7e:    0013        ..      MOVS     r3,r2
        0x00002a80:    00c2        ..      LSLS     r2,r0,#3
        0x00002a82:    4c0f        .L      LDR      r4,[pc,#60] ; [0x2ac0] = 0x4007fc
        0x00002a84:    50a1        .P      STR      r1,[r4,r2]
        0x00002a86:    0021        !.      MOVS     r1,r4
        0x00002a88:    1851        Q.      ADDS     r1,r2,r1
        0x00002a8a:    2b00        .+      CMP      r3,#0
        0x00002a8c:    da16        ..      BGE      0x2abc ; spin1_callback_on + 64
        0x00002a8e:    4e0d        .N      LDR      r6,[pc,#52] ; [0x2ac4] = 0x4000b0
        0x00002a90:    2501        .%      MOVS     r5,#1
        0x00002a92:    6b32        2k      LDR      r2,[r6,#0x30]
        0x00002a94:    002c        ,.      MOVS     r4,r5
        0x00002a96:    1c57        W.      ADDS     r7,r2,#1
        0x00002a98:    d000        ..      BEQ      0x2a9c ; spin1_callback_on + 32
        0x00002a9a:    2400        .$      MOVS     r4,#0
        0x00002a9c:    4282        .B      CMP      r2,r0
        0x00002a9e:    d000        ..      BEQ      0x2aa2 ; spin1_callback_on + 38
        0x00002aa0:    2500        .%      MOVS     r5,#0
        0x00002aa2:    432c        ,C      ORRS     r4,r4,r5
        0x00002aa4:    d002        ..      BEQ      0x2aac ; spin1_callback_on + 48
        0x00002aa6:    604b        K`      STR      r3,[r1,#4]
        0x00002aa8:    6330        0c      STR      r0,[r6,#0x30]
        0x00002aaa:    bdf8        ..      POP      {r3-r7,pc}
        0x00002aac:    2300        .#      MOVS     r3,#0
        0x00002aae:    604b        K`      STR      r3,[r1,#4]
        0x00002ab0:    0003        ..      MOVS     r3,r0
        0x00002ab2:    2000        .       MOVS     r0,#0
        0x00002ab4:    a104        ..      ADR      r1,{pc}+0x14 ; 0x2ac8
        0x00002ab6:    f7fff85d    ..].    BL       io_printf ; 0x1b74
        0x00002aba:    bdf8        ..      POP      {r3-r7,pc}
        0x00002abc:    604b        K`      STR      r3,[r1,#4]
        0x00002abe:    bdf8        ..      POP      {r3-r7,pc}
    $d
        0x00002ac0:    004007fc    ..@.    DCD    4196348
        0x00002ac4:    004000b0    ..@.    DCD    4194480
        0x00002ac8:    615b0909    ..[a    DCD    1633356041
        0x00002acc:    775f6970    pi_w    DCD    2002741616
        0x00002ad0:    5d6e7261    arn]    DCD    1567519329
        0x00002ad4:    72617720     war    DCD    1918990112
        0x00002ad8:    676e696e    ning    DCD    1735289198
        0x00002adc:    6f74203a    : to    DCD    1869881402
        0x00002ae0:    616d206f    o ma    DCD    1634541679
        0x00002ae4:    4620796e    ny F    DCD    1176533358
        0x00002ae8:    65205149    IQ e    DCD    1696616777
        0x00002aec:    746e6576    vent    DCD    1953391990
        0x00002af0:    25282073    s (%    DCD    623386739
        0x00002af4:    64252064    d %d    DCD    1680154724
        0x00002af8:    00000a29    )...    DCD    2601
    $t
    i.spin1_delay_us
    spin1_delay_us
        0x00002afc:    b510        ..      PUSH     {r4,lr}
        0x00002afe:    f7fefae3    ....    BL       sark_delay_us ; 0x10c8
        0x00002b02:    bd10        ..      POP      {r4,pc}
    i.spin1_get_chip_id
    spin1_get_chip_id
        0x00002b04:    4801        .H      LDR      r0,[pc,#4] ; [0x2b0c] = 0xe5007f00
        0x00002b06:    8800        ..      LDRH     r0,[r0,#0]
        0x00002b08:    4770        pG      BX       lr
    $d
        0x00002b0a:    0000        ..      DCW    0
        0x00002b0c:    e5007f00    ....    DCD    3842014976
    $t
    i.spin1_get_core_id
    spin1_get_core_id
        0x00002b10:    4801        .H      LDR      r0,[pc,#4] ; [0x2b18] = 0x4001f8
        0x00002b12:    6800        .h      LDR      r0,[r0,#0]
        0x00002b14:    4770        pG      BX       lr
    $d
        0x00002b16:    0000        ..      DCW    0
        0x00002b18:    004001f8    ..@.    DCD    4194808
    $a
    $Ven$AT$I$$spin1_kill
        0x00002b1c:    e28fc001    ....    ADR      r12,{pc}+9 ; 0x2b25
        0x00002b20:    e12fff1c    ../.    BX       r12
    $t
    i.spin1_kill
    spin1_kill
        0x00002b24:    b510        ..      PUSH     {r4,lr}
        0x00002b26:    0004        ..      MOVS     r4,r0
        0x00002b28:    212f        /!      MOVS     r1,#0x2f
        0x00002b2a:    4805        .H      LDR      r0,[pc,#20] ; [0x2b40] = 0x3052
        0x00002b2c:    0609        ..      LSLS     r1,r1,#24
        0x00002b2e:    6148        Ha      STR      r0,[r1,#0x14]
        0x00002b30:    200c        .       MOVS     r0,#0xc
        0x00002b32:    f7fffd05    ....    BL       sark_led_set ; 0x2540
        0x00002b36:    4803        .H      LDR      r0,[pc,#12] ; [0x2b44] = 0x4000b0
        0x00002b38:    6244        Db      STR      r4,[r0,#0x24]
        0x00002b3a:    2100        .!      MOVS     r1,#0
        0x00002b3c:    60c1        .`      STR      r1,[r0,#0xc]
        0x00002b3e:    bd10        ..      POP      {r4,pc}
    $d
        0x00002b40:    00003052    R0..    DCD    12370
        0x00002b44:    004000b0    ..@.    DCD    4194480
    $t
    i.spin1_malloc
    spin1_malloc
        0x00002b48:    2101        .!      MOVS     r1,#1
        0x00002b4a:    b510        ..      PUSH     {r4,lr}
        0x00002b4c:    f7fffb2a    ..*.    BL       sark_alloc ; 0x21a4
        0x00002b50:    bd10        ..      POP      {r4,pc}
    i.spin1_memcpy
    spin1_memcpy
        0x00002b52:    e003        ..      B        0x2b5c ; spin1_memcpy + 10
        0x00002b54:    780b        .x      LDRB     r3,[r1,#0]
        0x00002b56:    1c49        I.      ADDS     r1,r1,#1
        0x00002b58:    7003        .p      STRB     r3,[r0,#0]
        0x00002b5a:    1c40        @.      ADDS     r0,r0,#1
        0x00002b5c:    1e52        R.      SUBS     r2,r2,#1
        0x00002b5e:    d2f9        ..      BCS      0x2b54 ; spin1_memcpy + 2
        0x00002b60:    4770        pG      BX       lr
        0x00002b62:    0000        ..      MOVS     r0,r0
    $a
    $Ven$AT$I$$spin1_schedule_callback
        0x00002b64:    e28fc001    ....    ADR      r12,{pc}+9 ; 0x2b6d
        0x00002b68:    e12fff1c    ../.    BX       r12
    $t
    i.spin1_schedule_callback
    spin1_schedule_callback
        0x00002b6c:    b5ff        ..      PUSH     {r0-r7,lr}
        0x00002b6e:    b081        ..      SUB      sp,sp,#4
        0x00002b70:    2401        .$      MOVS     r4,#1
        0x00002b72:    0005        ..      MOVS     r5,r0
        0x00002b74:    000e        ..      MOVS     r6,r1
        0x00002b76:    001f        ..      MOVS     r7,r3
        0x00002b78:    f7feeae0    ....    BLX      cpu_irq_disable ; 0x113c
        0x00002b7c:    21c8        .!      MOVS     r1,#0xc8
        0x00002b7e:    434f        OC      MULS     r7,r1,r7
        0x00002b80:    4915        .I      LDR      r1,[pc,#84] ; [0x2bd8] = 0x4004dc
        0x00002b82:    1879        y.      ADDS     r1,r7,r1
        0x00002b84:    39c8        .9      SUBS     r1,r1,#0xc8
        0x00002b86:    684a        Jh      LDR      r2,[r1,#4]
        0x00002b88:    680f        .h      LDR      r7,[r1,#0]
        0x00002b8a:    1c53        S.      ADDS     r3,r2,#1
        0x00002b8c:    071b        ..      LSLS     r3,r3,#28
        0x00002b8e:    0f1b        ..      LSRS     r3,r3,#28
        0x00002b90:    42bb        .B      CMP      r3,r7
        0x00002b92:    d013        ..      BEQ      0x2bbc ; spin1_schedule_callback + 80
        0x00002b94:    230c        .#      MOVS     r3,#0xc
        0x00002b96:    435a        ZC      MULS     r2,r3,r2
        0x00002b98:    1852        R.      ADDS     r2,r2,r1
        0x00002b9a:    6095        .`      STR      r5,[r2,#8]
        0x00002b9c:    684a        Jh      LDR      r2,[r1,#4]
        0x00002b9e:    250c        .%      MOVS     r5,#0xc
        0x00002ba0:    435a        ZC      MULS     r2,r3,r2
        0x00002ba2:    1852        R.      ADDS     r2,r2,r1
        0x00002ba4:    60d6        .`      STR      r6,[r2,#0xc]
        0x00002ba6:    684a        Jh      LDR      r2,[r1,#4]
        0x00002ba8:    9b03        ..      LDR      r3,[sp,#0xc]
        0x00002baa:    436a        jC      MULS     r2,r5,r2
        0x00002bac:    1852        R.      ADDS     r2,r2,r1
        0x00002bae:    6113        .a      STR      r3,[r2,#0x10]
        0x00002bb0:    684a        Jh      LDR      r2,[r1,#4]
        0x00002bb2:    1c52        R.      ADDS     r2,r2,#1
        0x00002bb4:    0712        ..      LSLS     r2,r2,#28
        0x00002bb6:    0f12        ..      LSRS     r2,r2,#28
        0x00002bb8:    604a        J`      STR      r2,[r1,#4]
        0x00002bba:    e008        ..      B        0x2bce ; spin1_schedule_callback + 98
        0x00002bbc:    4907        .I      LDR      r1,[pc,#28] ; [0x2bdc] = 0x4000b0
        0x00002bbe:    2301        .#      MOVS     r3,#1
        0x00002bc0:    6d0a        .m      LDR      r2,[r1,#0x50]
        0x00002bc2:    2400        .$      MOVS     r4,#0
        0x00002bc4:    431a        .C      ORRS     r2,r2,r3
        0x00002bc6:    650a        .e      STR      r2,[r1,#0x50]
        0x00002bc8:    6d4a        Jm      LDR      r2,[r1,#0x54]
        0x00002bca:    1c52        R.      ADDS     r2,r2,#1
        0x00002bcc:    654a        Je      STR      r2,[r1,#0x54]
        0x00002bce:    f7feeab2    ....    BLX      cpu_int_restore ; 0x1134
        0x00002bd2:    0020         .      MOVS     r0,r4
        0x00002bd4:    b005        ..      ADD      sp,sp,#0x14
        0x00002bd6:    bdf0        ..      POP      {r4-r7,pc}
    $d
        0x00002bd8:    004004dc    ..@.    DCD    4195548
        0x00002bdc:    004000b0    ..@.    DCD    4194480
    $t
    i.spin1_send_mc_packet
    spin1_send_mc_packet
        0x00002be0:    b5fe        ..      PUSH     {r1-r7,lr}
        0x00002be2:    0004        ..      MOVS     r4,r0
        0x00002be4:    2001        .       MOVS     r0,#1
        0x00002be6:    000d        ..      MOVS     r5,r1
        0x00002be8:    0016        ..      MOVS     r6,r2
        0x00002bea:    9001        ..      STR      r0,[sp,#4]
        0x00002bec:    f7feeaa6    ....    BLX      cpu_irq_disable ; 0x113c
        0x00002bf0:    9000        ..      STR      r0,[sp,#0]
        0x00002bf2:    2100        .!      MOVS     r1,#0
        0x00002bf4:    2001        .       MOVS     r0,#1
        0x00002bf6:    0740        @.      LSLS     r0,r0,#29
        0x00002bf8:    6001        .`      STR      r1,[r0,#0]
        0x00002bfa:    6801        .h      LDR      r1,[r0,#0]
        0x00002bfc:    004a        J.      LSLS     r2,r1,#1
        0x00002bfe:    4936        6I      LDR      r1,[pc,#216] ; [0x2cd8] = 0x400414
        0x00002c00:    d528        (.      BPL      0x2c54 ; spin1_send_mc_packet + 116
        0x00002c02:    6848        Hh      LDR      r0,[r1,#4]
        0x00002c04:    680b        .h      LDR      r3,[r1,#0]
        0x00002c06:    1c42        B.      ADDS     r2,r0,#1
        0x00002c08:    0712        ..      LSLS     r2,r2,#28
        0x00002c0a:    0f12        ..      LSRS     r2,r2,#28
        0x00002c0c:    429a        .B      CMP      r2,r3
        0x00002c0e:    d10a        ..      BNE      0x2c26 ; spin1_send_mc_packet + 70
        0x00002c10:    2000        .       MOVS     r0,#0
        0x00002c12:    9001        ..      STR      r0,[sp,#4]
        0x00002c14:    4831        1H      LDR      r0,[pc,#196] ; [0x2cdc] = 0x4000b0
        0x00002c16:    2204        ."      MOVS     r2,#4
        0x00002c18:    6d01        .m      LDR      r1,[r0,#0x50]
        0x00002c1a:    4311        .C      ORRS     r1,r1,r2
        0x00002c1c:    6501        .e      STR      r1,[r0,#0x50]
        0x00002c1e:    6d81        .m      LDR      r1,[r0,#0x58]
        0x00002c20:    1c49        I.      ADDS     r1,r1,#1
        0x00002c22:    6581        .e      STR      r1,[r0,#0x58]
        0x00002c24:    e052        R.      B        0x2ccc ; spin1_send_mc_packet + 236
        0x00002c26:    220c        ."      MOVS     r2,#0xc
        0x00002c28:    4350        PC      MULS     r0,r2,r0
        0x00002c2a:    1840        @.      ADDS     r0,r0,r1
        0x00002c2c:    6084        .`      STR      r4,[r0,#8]
        0x00002c2e:    6848        Hh      LDR      r0,[r1,#4]
        0x00002c30:    4350        PC      MULS     r0,r2,r0
        0x00002c32:    1840        @.      ADDS     r0,r0,r1
        0x00002c34:    60c5        .`      STR      r5,[r0,#0xc]
        0x00002c36:    6848        Hh      LDR      r0,[r1,#4]
        0x00002c38:    4350        PC      MULS     r0,r2,r0
        0x00002c3a:    1840        @.      ADDS     r0,r0,r1
        0x00002c3c:    6106        .a      STR      r6,[r0,#0x10]
        0x00002c3e:    6848        Hh      LDR      r0,[r1,#4]
        0x00002c40:    1c40        @.      ADDS     r0,r0,#1
        0x00002c42:    0700        ..      LSLS     r0,r0,#28
        0x00002c44:    0f00        ..      LSRS     r0,r0,#28
        0x00002c46:    6048        H`      STR      r0,[r1,#4]
        0x00002c48:    2001        .       MOVS     r0,#1
        0x00002c4a:    02c0        ..      LSLS     r0,r0,#11
        0x00002c4c:    212f        /!      MOVS     r1,#0x2f
        0x00002c4e:    0609        ..      LSLS     r1,r1,#24
        0x00002c50:    6108        .a      STR      r0,[r1,#0x10]
        0x00002c52:    e03b        ;.      B        0x2ccc ; spin1_send_mc_packet + 236
        0x00002c54:    4b20         K      LDR      r3,[pc,#128] ; [0x2cd8] = 0x400414
        0x00002c56:    6859        Yh      LDR      r1,[r3,#4]
        0x00002c58:    681b        .h      LDR      r3,[r3,#0]
        0x00002c5a:    1c4a        J.      ADDS     r2,r1,#1
        0x00002c5c:    0712        ..      LSLS     r2,r2,#28
        0x00002c5e:    0f12        ..      LSRS     r2,r2,#28
        0x00002c60:    429a        .B      CMP      r2,r3
        0x00002c62:    d113        ..      BNE      0x2c8c ; spin1_send_mc_packet + 172
        0x00002c64:    220c        ."      MOVS     r2,#0xc
        0x00002c66:    435a        ZC      MULS     r2,r3,r2
        0x00002c68:    4f1b        .O      LDR      r7,[pc,#108] ; [0x2cd8] = 0x400414
        0x00002c6a:    1c5b        [.      ADDS     r3,r3,#1
        0x00002c6c:    19d2        ..      ADDS     r2,r2,r7
        0x00002c6e:    6897        .h      LDR      r7,[r2,#8]
        0x00002c70:    071b        ..      LSLS     r3,r3,#28
        0x00002c72:    46be        .F      MOV      lr,r7
        0x00002c74:    68d7        .h      LDR      r7,[r2,#0xc]
        0x00002c76:    6912        .i      LDR      r2,[r2,#0x10]
        0x00002c78:    46bc        .F      MOV      r12,r7
        0x00002c7a:    4f17        .O      LDR      r7,[pc,#92] ; [0x2cd8] = 0x400414
        0x00002c7c:    0f1b        ..      LSRS     r3,r3,#28
        0x00002c7e:    2a00        .*      CMP      r2,#0
        0x00002c80:    603b        ;`      STR      r3,[r7,#0]
        0x00002c82:    d001        ..      BEQ      0x2c88 ; spin1_send_mc_packet + 168
        0x00002c84:    4662        bF      MOV      r2,r12
        0x00002c86:    6042        B`      STR      r2,[r0,#4]
        0x00002c88:    4672        rF      MOV      r2,lr
        0x00002c8a:    6082        .`      STR      r2,[r0,#8]
        0x00002c8c:    4a12        .J      LDR      r2,[pc,#72] ; [0x2cd8] = 0x400414
        0x00002c8e:    6813        .h      LDR      r3,[r2,#0]
        0x00002c90:    428b        .B      CMP      r3,r1
        0x00002c92:    d109        ..      BNE      0x2ca8 ; spin1_send_mc_packet + 200
        0x00002c94:    2e00        ..      CMP      r6,#0
        0x00002c96:    d000        ..      BEQ      0x2c9a ; spin1_send_mc_packet + 186
        0x00002c98:    6045        E`      STR      r5,[r0,#4]
        0x00002c9a:    6084        .`      STR      r4,[r0,#8]
        0x00002c9c:    2001        .       MOVS     r0,#1
        0x00002c9e:    02c0        ..      LSLS     r0,r0,#11
        0x00002ca0:    212f        /!      MOVS     r1,#0x2f
        0x00002ca2:    0609        ..      LSLS     r1,r1,#24
        0x00002ca4:    6148        Ha      STR      r0,[r1,#0x14]
        0x00002ca6:    e011        ..      B        0x2ccc ; spin1_send_mc_packet + 236
        0x00002ca8:    200c        .       MOVS     r0,#0xc
        0x00002caa:    4341        AC      MULS     r1,r0,r1
        0x00002cac:    1888        ..      ADDS     r0,r1,r2
        0x00002cae:    6084        .`      STR      r4,[r0,#8]
        0x00002cb0:    6850        Ph      LDR      r0,[r2,#4]
        0x00002cb2:    210c        .!      MOVS     r1,#0xc
        0x00002cb4:    4348        HC      MULS     r0,r1,r0
        0x00002cb6:    1880        ..      ADDS     r0,r0,r2
        0x00002cb8:    60c5        .`      STR      r5,[r0,#0xc]
        0x00002cba:    6850        Ph      LDR      r0,[r2,#4]
        0x00002cbc:    4348        HC      MULS     r0,r1,r0
        0x00002cbe:    1880        ..      ADDS     r0,r0,r2
        0x00002cc0:    6106        .a      STR      r6,[r0,#0x10]
        0x00002cc2:    6850        Ph      LDR      r0,[r2,#4]
        0x00002cc4:    1c40        @.      ADDS     r0,r0,#1
        0x00002cc6:    0700        ..      LSLS     r0,r0,#28
        0x00002cc8:    0f00        ..      LSRS     r0,r0,#28
        0x00002cca:    6050        P`      STR      r0,[r2,#4]
        0x00002ccc:    9800        ..      LDR      r0,[sp,#0]
        0x00002cce:    f7feea32    ..2.    BLX      cpu_int_restore ; 0x1134
        0x00002cd2:    9801        ..      LDR      r0,[sp,#4]
        0x00002cd4:    bdfe        ..      POP      {r1-r7,pc}
    $d
        0x00002cd6:    0000        ..      DCW    0
        0x00002cd8:    00400414    ..@.    DCD    4195348
        0x00002cdc:    004000b0    ..@.    DCD    4194480
    $t
    i.spin1_set_core_map
    spin1_set_core_map
        0x00002ce0:    b5f8        ..      PUSH     {r3-r7,lr}
        0x00002ce2:    2500        .%      MOVS     r5,#0
        0x00002ce4:    0002        ..      MOVS     r2,r0
        0x00002ce6:    002c        ,.      MOVS     r4,r5
        0x00002ce8:    468c        .F      MOV      r12,r1
        0x00002cea:    2101        .!      MOVS     r1,#1
        0x00002cec:    e00f        ..      B        0x2d0e ; spin1_set_core_map + 46
        0x00002cee:    00a3        ..      LSLS     r3,r4,#2
        0x00002cf0:    4660        `F      MOV      r0,r12
        0x00002cf2:    58c7        .X      LDR      r7,[r0,r3]
        0x00002cf4:    481b        .H      LDR      r0,[pc,#108] ; [0x2d64] = 0xe5007fa0
        0x00002cf6:    2301        .#      MOVS     r3,#1
        0x00002cf8:    7f00        ..      LDRB     r0,[r0,#0x1c]
        0x00002cfa:    e005        ..      B        0x2d08 ; spin1_set_core_map + 40
        0x00002cfc:    000e        ..      MOVS     r6,r1
        0x00002cfe:    409e        .@      LSLS     r6,r6,r3
        0x00002d00:    423e        >B      TST      r6,r7
        0x00002d02:    d000        ..      BEQ      0x2d06 ; spin1_set_core_map + 38
        0x00002d04:    1c6d        m.      ADDS     r5,r5,#1
        0x00002d06:    1c5b        [.      ADDS     r3,r3,#1
        0x00002d08:    4298        .B      CMP      r0,r3
        0x00002d0a:    d8f7        ..      BHI      0x2cfc ; spin1_set_core_map + 28
        0x00002d0c:    1c64        d.      ADDS     r4,r4,#1
        0x00002d0e:    4294        .B      CMP      r4,r2
        0x00002d10:    d3ed        ..      BCC      0x2cee ; spin1_set_core_map + 14
        0x00002d12:    4e15        .N      LDR      r6,[pc,#84] ; [0x2d68] = 0x4000b0
        0x00002d14:    61f5        .a      STR      r5,[r6,#0x1c]
        0x00002d16:    69f0        .i      LDR      r0,[r6,#0x1c]
        0x00002d18:    2801        .(      CMP      r0,#1
        0x00002d1a:    d921        !.      BLS      0x2d60 ; spin1_set_core_map + 128
        0x00002d1c:    7870        px      LDRB     r0,[r6,#1]
        0x00002d1e:    2800        .(      CMP      r0,#0
        0x00002d20:    d01e        ..      BEQ      0x2d60 ; spin1_set_core_map + 128
        0x00002d22:    2400        .$      MOVS     r4,#0
        0x00002d24:    2301        .#      MOVS     r3,#1
        0x00002d26:    0020         .      MOVS     r0,r4
        0x00002d28:    07df        ..      LSLS     r7,r3,#31
        0x00002d2a:    003d        =.      MOVS     r5,r7
        0x00002d2c:    40c5        .@      LSRS     r5,r5,r0
        0x00002d2e:    4215        .B      TST      r5,r2
        0x00002d30:    d005        ..      BEQ      0x2d3e ; spin1_set_core_map + 94
        0x00002d32:    221f        ."      MOVS     r2,#0x1f
        0x00002d34:    1a10        ..      SUBS     r0,r2,r0
        0x00002d36:    0844        D.      LSRS     r4,r0,#1
        0x00002d38:    40a1        .@      LSLS     r1,r1,r4
        0x00002d3a:    000b        ..      MOVS     r3,r1
        0x00002d3c:    e002        ..      B        0x2d44 ; spin1_set_core_map + 100
        0x00002d3e:    1c40        @.      ADDS     r0,r0,#1
        0x00002d40:    2820         (      CMP      r0,#0x20
        0x00002d42:    d3f2        ..      BCC      0x2d2a ; spin1_set_core_map + 74
        0x00002d44:    4807        .H      LDR      r0,[pc,#28] ; [0x2d64] = 0xe5007fa0
        0x00002d46:    4662        bF      MOV      r2,r12
        0x00002d48:    38a0        .8      SUBS     r0,r0,#0xa0
        0x00002d4a:    8800        ..      LDRH     r0,[r0,#0]
        0x00002d4c:    0a01        ..      LSRS     r1,r0,#8
        0x00002d4e:    0600        ..      LSLS     r0,r0,#24
        0x00002d50:    0e00        ..      LSRS     r0,r0,#24
        0x00002d52:    40a1        .@      LSLS     r1,r1,r4
        0x00002d54:    4301        .C      ORRS     r1,r1,r0
        0x00002d56:    60b1        .`      STR      r1,[r6,#8]
        0x00002d58:    0019        ..      MOVS     r1,r3
        0x00002d5a:    0018        ..      MOVS     r0,r3
        0x00002d5c:    f7fefafa    ....    BL       barrier_setup ; 0x1354
        0x00002d60:    bdf8        ..      POP      {r3-r7,pc}
    $d
        0x00002d62:    0000        ..      DCW    0
        0x00002d64:    e5007fa0    ....    DCD    3842015136
        0x00002d68:    004000b0    ..@.    DCD    4194480
    $t
    i.spin1_set_timer_tick
    spin1_set_timer_tick
        0x00002d6c:    4901        .I      LDR      r1,[pc,#4] ; [0x2d74] = 0x4000b0
        0x00002d6e:    6148        Ha      STR      r0,[r1,#0x14]
        0x00002d70:    4770        pG      BX       lr
    $d
        0x00002d72:    0000        ..      DCW    0
        0x00002d74:    004000b0    ..@.    DCD    4194480
    $t
    i.spin1_start
    spin1_start
        0x00002d78:    b5f8        ..      PUSH     {r3-r7,lr}
        0x00002d7a:    2105        .!      MOVS     r1,#5
        0x00002d7c:    2400        .$      MOVS     r4,#0
        0x00002d7e:    4828        (H      LDR      r0,[pc,#160] ; [0x2e20] = 0x4001f8
        0x00002d80:    69c0        .i      LDR      r0,[r0,#0x1c]
        0x00002d82:    3020         0      ADDS     r0,r0,#0x20
        0x00002d84:    7381        .s      STRB     r1,[r0,#0xe]
        0x00002d86:    2001        .       MOVS     r0,#1
        0x00002d88:    0740        @.      LSLS     r0,r0,#29
        0x00002d8a:    6004        .`      STR      r4,[r0,#0]
        0x00002d8c:    213f        ?!      MOVS     r1,#0x3f
        0x00002d8e:    0040        @.      LSLS     r0,r0,#1
        0x00002d90:    6101        .a      STR      r1,[r0,#0x10]
        0x00002d92:    210d        .!      MOVS     r1,#0xd
        0x00002d94:    6101        .a      STR      r1,[r0,#0x10]
        0x00002d96:    2103        .!      MOVS     r1,#3
        0x00002d98:    0289        ..      LSLS     r1,r1,#10
        0x00002d9a:    6181        .a      STR      r1,[r0,#0x18]
        0x00002d9c:    4d21        !M      LDR      r5,[pc,#132] ; [0x2e24] = 0x4000b0
        0x00002d9e:    6968        hi      LDR      r0,[r5,#0x14]
        0x00002da0:    2621        !&      MOVS     r6,#0x21
        0x00002da2:    0636        6.      LSLS     r6,r6,#24
        0x00002da4:    60b4        .`      STR      r4,[r6,#8]
        0x00002da6:    2701        .'      MOVS     r7,#1
        0x00002da8:    60f7        .`      STR      r7,[r6,#0xc]
        0x00002daa:    491f        .I      LDR      r1,[pc,#124] ; [0x2e28] = 0xe5007f20
        0x00002dac:    8889        ..      LDRH     r1,[r1,#4]
        0x00002dae:    4341        AC      MULS     r1,r0,r1
        0x00002db0:    6031        1`      STR      r1,[r6,#0]
        0x00002db2:    61b1        .a      STR      r1,[r6,#0x18]
        0x00002db4:    f7fefd50    ..P.    BL       configure_vic ; 0x1858
        0x00002db8:    652c        ,e      STR      r4,[r5,#0x50]
        0x00002dba:    65ec        .e      STR      r4,[r5,#0x5c]
        0x00002dbc:    656c        le      STR      r4,[r5,#0x54]
        0x00002dbe:    65ac        .e      STR      r4,[r5,#0x58]
        0x00002dc0:    69e8        .i      LDR      r0,[r5,#0x1c]
        0x00002dc2:    2801        .(      CMP      r0,#1
        0x00002dc4:    d902        ..      BLS      0x2dcc ; spin1_start + 84
        0x00002dc6:    f7fefb67    ..g.    BL       barrier_wait ; 0x1498
        0x00002dca:    e00d        ..      B        0x2de8 ; spin1_start + 112
        0x00002dcc:    4817        .H      LDR      r0,[pc,#92] ; [0x2e2c] = 0x4007fc
        0x00002dce:    6840        @h      LDR      r0,[r0,#4]
        0x00002dd0:    2800        .(      CMP      r0,#0
        0x00002dd2:    da06        ..      BGE      0x2de2 ; spin1_start + 106
        0x00002dd4:    202f        /       MOVS     r0,#0x2f
        0x00002dd6:    0600        ..      LSLS     r0,r0,#24
        0x00002dd8:    68c1        .h      LDR      r1,[r0,#0xc]
        0x00002dda:    2240        @"      MOVS     r2,#0x40
        0x00002ddc:    4311        .C      ORRS     r1,r1,r2
        0x00002dde:    60c1        .`      STR      r1,[r0,#0xc]
        0x00002de0:    e002        ..      B        0x2de8 ; spin1_start + 112
        0x00002de2:    4914        .I      LDR      r1,[pc,#80] ; [0x2e34] = 0x2f000100
        0x00002de4:    4812        .H      LDR      r0,[pc,#72] ; [0x2e30] = 0x1744
        0x00002de6:    60c8        .`      STR      r0,[r1,#0xc]
        0x00002de8:    6968        hi      LDR      r0,[r5,#0x14]
        0x00002dea:    2800        .(      CMP      r0,#0
        0x00002dec:    d001        ..      BEQ      0x2df2 ; spin1_start + 122
        0x00002dee:    20e2        .       MOVS     r0,#0xe2
        0x00002df0:    60b0        .`      STR      r0,[r6,#8]
        0x00002df2:    612c        ,a      STR      r4,[r5,#0x10]
        0x00002df4:    60ef        .`      STR      r7,[r5,#0xc]
        0x00002df6:    f7fefd83    ....    BL       dispatch ; 0x1900
        0x00002dfa:    f7fefcff    ....    BL       clean_up ; 0x17fc
        0x00002dfe:    f7fee9a6    ....    BLX      cpu_irq_enable ; 0x114c
        0x00002e02:    490d        .I      LDR      r1,[pc,#52] ; [0x2e38] = 0x2710
        0x00002e04:    68a8        .h      LDR      r0,[r5,#8]
        0x00002e06:    4348        HC      MULS     r0,r1,r0
        0x00002e08:    f7fef95e    ..^.    BL       sark_delay_us ; 0x10c8
        0x00002e0c:    f7fff8ca    ....    BL       report_warns ; 0x1fa4
        0x00002e10:    4803        .H      LDR      r0,[pc,#12] ; [0x2e20] = 0x4001f8
        0x00002e12:    2108        .!      MOVS     r1,#8
        0x00002e14:    69c0        .i      LDR      r0,[r0,#0x1c]
        0x00002e16:    3020         0      ADDS     r0,r0,#0x20
        0x00002e18:    7381        .s      STRB     r1,[r0,#0xe]
        0x00002e1a:    6a68        hj      LDR      r0,[r5,#0x24]
        0x00002e1c:    bdf8        ..      POP      {r3-r7,pc}
    $d
        0x00002e1e:    0000        ..      DCW    0
        0x00002e20:    004001f8    ..@.    DCD    4194808
        0x00002e24:    004000b0    ..@.    DCD    4194480
        0x00002e28:    e5007f20     ...    DCD    3842015008
        0x00002e2c:    004007fc    ..@.    DCD    4196348
        0x00002e30:    00001744    D...    DCD    5956
        0x00002e34:    2f000100    .../    DCD    788529408
        0x00002e38:    00002710    .'..    DCD    10000
    $a
    $Ven$AT$I$$spin1_stop
        0x00002e3c:    e28fc001    ....    ADR      r12,{pc}+9 ; 0x2e45
        0x00002e40:    e12fff1c    ../.    BX       r12
    $t
    i.spin1_stop
    spin1_stop
        0x00002e44:    212f        /!      MOVS     r1,#0x2f
        0x00002e46:    4804        .H      LDR      r0,[pc,#16] ; [0x2e58] = 0x3052
        0x00002e48:    0609        ..      LSLS     r1,r1,#24
        0x00002e4a:    6148        Ha      STR      r0,[r1,#0x14]
        0x00002e4c:    4903        .I      LDR      r1,[pc,#12] ; [0x2e5c] = 0x4000b0
        0x00002e4e:    2000        .       MOVS     r0,#0
        0x00002e50:    6248        Hb      STR      r0,[r1,#0x24]
        0x00002e52:    60c8        .`      STR      r0,[r1,#0xc]
        0x00002e54:    4770        pG      BX       lr
    $d
        0x00002e56:    0000        ..      DCW    0
        0x00002e58:    00003052    R0..    DCD    12370
        0x00002e5c:    004000b0    ..@.    DCD    4194480
    $a
    i.timer1_fiqsr
    timer1_fiqsr
        0x00002e60:    e92d500f    .P-.    PUSH     {r0-r3,r12,lr}
        0x00002e64:    e3a00001    ....    MOV      r0,#1
        0x00002e68:    e3a01421    !...    MOV      r1,#0x21000000
        0x00002e6c:    e581000c    ....    STR      r0,[r1,#0xc]
        0x00002e70:    e59f0024    $...    LDR      r0,[pc,#36] ; [0x2e9c] = 0x4000c0
        0x00002e74:    e5901000    ....    LDR      r1,[r0,#0]
        0x00002e78:    e2811001    ....    ADD      r1,r1,#1
        0x00002e7c:    e5801000    ....    STR      r1,[r0,#0]
        0x00002e80:    e59f1018    ....    LDR      r1,[pc,#24] ; [0x2ea0] = 0x4007fc
        0x00002e84:    e5900000    ....    LDR      r0,[r0,#0]
        0x00002e88:    e5912010    . ..    LDR      r2,[r1,#0x10]
        0x00002e8c:    e3a01000    ....    MOV      r1,#0
        0x00002e90:    e12fff32    2./.    BLX      r2
        0x00002e94:    e8bd500f    .P..    POP      {r0-r3,r12,lr}
        0x00002e98:    e25ef004    ..^.    SUBS     pc,lr,#4
    $d
        0x00002e9c:    004000c0    ..@.    DCD    4194496
        0x00002ea0:    004007fc    ..@.    DCD    4196348
    $a
    i.timer1_isr
    timer1_isr
        0x00002ea4:    e92d503f    ?P-.    PUSH     {r0-r5,r12,lr}
        0x00002ea8:    e3a00421    !...    MOV      r0,#0x21000000
        0x00002eac:    e3a04001    .@..    MOV      r4,#1
        0x00002eb0:    e580400c    .@..    STR      r4,[r0,#0xc]
        0x00002eb4:    e59f0034    4...    LDR      r0,[pc,#52] ; [0x2ef0] = 0x4000c0
        0x00002eb8:    e5901000    ....    LDR      r1,[r0,#0]
        0x00002ebc:    e2811001    ....    ADD      r1,r1,#1
        0x00002ec0:    e5801000    ....    STR      r1,[r0,#0]
        0x00002ec4:    e59f1028    (...    LDR      r1,[pc,#40] ; [0x2ef4] = 0x4007fc
        0x00002ec8:    e5911010    ....    LDR      r1,[r1,#0x10]
        0x00002ecc:    e3510000    ..Q.    CMP      r1,#0
        0x00002ed0:    15901000    ....    LDRNE    r1,[r0,#0]
        0x00002ed4:    13a02000    . ..    MOVNE    r2,#0
        0x00002ed8:    13a00002    ....    MOVNE    r0,#2
        0x00002edc:    1bfff8b9    ....    BLNE     schedule ; 0x11c8
        0x00002ee0:    e3a0042f    /...    MOV      r0,#0x2f000000
        0x00002ee4:    e5804030    0@..    STR      r4,[r0,#0x30]
        0x00002ee8:    e8bd503f    ?P..    POP      {r0-r5,r12,lr}
        0x00002eec:    e25ef004    ..^.    SUBS     pc,lr,#4
    $d
        0x00002ef0:    004000c0    ..@.    DCD    4194496
        0x00002ef4:    004007fc    ..@.    DCD    4196348
    $t
    i.v2p_mask
    v2p_mask
        0x00002ef8:    0002        ..      MOVS     r2,r0
        0x00002efa:    b570        p.      PUSH     {r4-r6,lr}
        0x00002efc:    2000        .       MOVS     r0,#0
        0x00002efe:    4c08        .L      LDR      r4,[pc,#32] ; [0x2f20] = 0xe5007fa0
        0x00002f00:    0001        ..      MOVS     r1,r0
        0x00002f02:    2301        .#      MOVS     r3,#1
        0x00002f04:    001d        ..      MOVS     r5,r3
        0x00002f06:    408d        .@      LSLS     r5,r5,r1
        0x00002f08:    4215        .B      TST      r5,r2
        0x00002f0a:    d004        ..      BEQ      0x2f16 ; v2p_mask + 30
        0x00002f0c:    190d        ..      ADDS     r5,r1,r4
        0x00002f0e:    7a2d        -z      LDRB     r5,[r5,#8]
        0x00002f10:    001e        ..      MOVS     r6,r3
        0x00002f12:    40ae        .@      LSLS     r6,r6,r5
        0x00002f14:    4330        0C      ORRS     r0,r0,r6
        0x00002f16:    1c49        I.      ADDS     r1,r1,#1
        0x00002f18:    2912        .)      CMP      r1,#0x12
        0x00002f1a:    d3f3        ..      BCC      0x2f04 ; v2p_mask + 12
        0x00002f1c:    bd70        p.      POP      {r4-r6,pc}
    $d
        0x00002f1e:    0000        ..      DCW    0
        0x00002f20:    e5007fa0    ....    DCD    3842015136
    $d.realdata
    .constdata
        0x00002f24:    6f727265    erro    DCD    1869771365
        0x00002f28:    6e692072    r in    DCD    1852383346
        0x00002f2c:    65687420     the    DCD    1701344288
        0x00002f30:    726f6320     cor    DCD    1919902496
        0x00002f34:    79742065    e ty    DCD    2037653605
        0x00002f38:    2d206570    pe -    DCD    757097840
        0x00002f3c:    65786520     exe    DCD    1702389024
        0x00002f40:    61747563    cuta    DCD    1635022179
        0x00002f44:    3a656c62    ble:    DCD    979725410
        0x00002f48:    20632520     %c     DCD    543368480
        0x00002f4c:    65726f63    core    DCD    1701998435
        0x00002f50:    7473202c    , st    DCD    1953701932
        0x00002f54:    74637572    ruct    DCD    1952675186
        0x00002f58:    3a657275    ure:    DCD    979726965
        0x00002f5c:    74205720     W t    DCD    1948276512
        0x00002f60:    0a657079    ype.    DCD    174420089
        0x00002f64:    00000000    ....    DCD    0
        0x00002f68:    6f727265    erro    DCD    1869771365
        0x00002f6c:    6e692072    r in    DCD    1852383346
        0x00002f70:    65687420     the    DCD    1701344288
        0x00002f74:    726f6320     cor    DCD    1919902496
        0x00002f78:    79742065    e ty    DCD    2037653605
        0x00002f7c:    2d206570    pe -    DCD    757097840
        0x00002f80:    65786520     exe    DCD    1702389024
        0x00002f84:    61747563    cuta    DCD    1635022179
        0x00002f88:    3a656c62    ble:    DCD    979725410
        0x00002f8c:    20632520     %c     DCD    543368480
        0x00002f90:    65726f63    core    DCD    1701998435
        0x00002f94:    7473202c    , st    DCD    1953701932
        0x00002f98:    74637572    ruct    DCD    1952675186
        0x00002f9c:    3a657275    ure:    DCD    979726965
        0x00002fa0:    74205320     S t    DCD    1948275488
        0x00002fa4:    0a657079    ype.    DCD    174420089
        0x00002fa8:    00000000    ....    DCD    0
        0x00002fac:    6f727265    erro    DCD    1869771365
        0x00002fb0:    6e692072    r in    DCD    1852383346
        0x00002fb4:    65687420     the    DCD    1701344288
        0x00002fb8:    726f6320     cor    DCD    1919902496
        0x00002fbc:    79742065    e ty    DCD    2037653605
        0x00002fc0:    2d206570    pe -    DCD    757097840
        0x00002fc4:    65786520     exe    DCD    1702389024
        0x00002fc8:    61747563    cuta    DCD    1635022179
        0x00002fcc:    3a656c62    ble:    DCD    979725410
        0x00002fd0:    20632520     %c     DCD    543368480
        0x00002fd4:    65726f63    core    DCD    1701998435
        0x00002fd8:    7473202c    , st    DCD    1953701932
        0x00002fdc:    74637572    ruct    DCD    1952675186
        0x00002fe0:    3a657275    ure:    DCD    979726965
        0x00002fe4:    74204920     I t    DCD    1948272928
        0x00002fe8:    0a657079    ype.    DCD    174420089
        0x00002fec:    00000000    ....    DCD    0
        0x00002ff0:    6f727265    erro    DCD    1869771365
        0x00002ff4:    6e692072    r in    DCD    1852383346
        0x00002ff8:    65687420     the    DCD    1701344288
        0x00002ffc:    726f6320     cor    DCD    1919902496
        0x00003000:    79742065    e ty    DCD    2037653605
        0x00003004:    2d206570    pe -    DCD    757097840
        0x00003008:    65786520     exe    DCD    1702389024
        0x0000300c:    61747563    cuta    DCD    1635022179
        0x00003010:    3a656c62    ble:    DCD    979725410
        0x00003014:    20632520     %c     DCD    543368480
        0x00003018:    65726f63    core    DCD    1701998435
        0x0000301c:    7473202c    , st    DCD    1953701932
        0x00003020:    74637572    ruct    DCD    1952675186
        0x00003024:    3a657275    ure:    DCD    979726965
        0x00003028:    74205420     T t    DCD    1948275744
        0x0000302c:    0a657079    ype.    DCD    174420089
        0x00003030:    00000000    ....    DCD    0
        0x00003034:    6f727265    erro    DCD    1869771365
        0x00003038:    6e692072    r in    DCD    1852383346
        0x0000303c:    65687420     the    DCD    1701344288
        0x00003040:    726f6320     cor    DCD    1919902496
        0x00003044:    79742065    e ty    DCD    2037653605
        0x00003048:    2d206570    pe -    DCD    757097840
        0x0000304c:    65786520     exe    DCD    1702389024
        0x00003050:    61747563    cuta    DCD    1635022179
        0x00003054:    3a656c62    ble:    DCD    979725410
        0x00003058:    20632520     %c     DCD    543368480
        0x0000305c:    65726f63    core    DCD    1701998435
        0x00003060:    7562202c    , bu    DCD    1969365036
        0x00003064:    68742074    t th    DCD    1752440948
        0x00003068:    6f632065    e co    DCD    1868767333
        0x0000306c:    73206572    re s    DCD    1931502962
        0x00003070:    6c756f68    houl    DCD    1819635560
        0x00003074:    65622064    d be    DCD    1700929636
        0x00003078:    756e7520     unu    DCD    1970173216
        0x0000307c:    0a646573    sed.    DCD    174351731
        0x00003080:    00000000    ....    DCD    0
        0x00003084:    6f727265    erro    DCD    1869771365
        0x00003088:    6e692072    r in    DCD    1852383346
        0x0000308c:    65687420     the    DCD    1701344288
        0x00003090:    726f6320     cor    DCD    1919902496
        0x00003094:    79742065    e ty    DCD    2037653605
        0x00003098:    2d206570    pe -    DCD    757097840
        0x0000309c:    65786520     exe    DCD    1702389024
        0x000030a0:    61747563    cuta    DCD    1635022179
        0x000030a4:    3a656c62    ble:    DCD    979725410
        0x000030a8:    20632520     %c     DCD    543368480
        0x000030ac:    65726f63    core    DCD    1701998435
        0x000030b0:    7562202c    , bu    DCD    1969365036
        0x000030b4:    68632074    t ch    DCD    1751326836
        0x000030b8:    73207069    ip s    DCD    1931505769
        0x000030bc:    63757274    truc    DCD    1668641396
        0x000030c0:    65727574    ture    DCD    1701999988
        0x000030c4:    73616820     has    DCD    1935763488
        0x000030c8:    206e6120     an     DCD    544104736
        0x000030cc:    61766e69    inva    DCD    1635151465
        0x000030d0:    2064696c    lid     DCD    543451500
        0x000030d4:    72746e65    entr    DCD    1920233061
        0x000030d8:    25203a79    y: %    DCD    622869113
        0x000030dc:    00000a64    d...    DCD    2660
    .constdata
    build_date
        0x000030e0:    55350c54    T.5U    DCD    1429539924
    .constdata
    build_name
        0x000030e4:    67696577    weig    DCD    1734960503
        0x000030e8:    00007468    ht..    DCD    29800
    .constdata
    hex
        0x000030ec:    33323130    0123    DCD    858927408
        0x000030f0:    37363534    4567    DCD    926299444
        0x000030f4:    62613938    89ab    DCD    1650538808
        0x000030f8:    66656463    cdef    DCD    1717920867
        0x000030fc:    00000000    ....    DCD    0
    $d
    _alib_align
        0x00003100:    deaddead    ....    DCD    3735936685

** Section #2 'DTCM' (SHT_PROGBITS) [SHF_ALLOC + SHF_WRITE]
    Size   : 272 bytes (alignment 4)
    Address: 0x00400000

    0x400000:   00 00 00 00 00 00 00 00 00 00 00 00 00 00 00 00    ................
    0x400010:   00 00 00 00 00 00 00 00 00 00 00 00 00 00 00 00    ................
    0x400020:   00 00 00 00 00 00 00 00 00 00 00 00 00 00 00 00    ................
    0x400030:   00 00 00 00 00 00 00 00 00 00 00 00 00 00 00 00    ................
    0x400040:   00 00 00 00 00 00 00 00 00 00 00 00 00 00 00 00    ................
    0x400050:   00 00 00 00 00 00 00 00 00 00 00 00 00 00 00 00    ................
    0x400060:   00 00 00 00 00 00 00 00 00 00 00 00 00 00 00 00    ................
    0x400070:   00 00 00 00 00 00 00 00 00 00 00 00 00 00 00 00    ................
    0x400080:   00 00 00 00 00 00 00 00 00 00 00 00 00 00 00 00    ................
    0x400090:   00 00 00 00 00 00 00 00 00 00 00 00 00 00 00 00    ................
    0x4000a0:   00 00 00 00 00 00 00 00 00 00 00 00 00 00 00 00    ................
    0x4000b0:   00 00 00 00 00 00 00 00 00 00 00 00 00 00 00 00    ................
    0x4000c0:   00 00 00 00 00 00 00 00 01 00 00 00 01 00 00 00    ................
    0x4000d0:   00 00 00 00 00 00 00 00 00 00 00 00 00 00 00 00    ................
    0x4000e0:   ff ff ff ff 01 00 00 00 00 00 00 00 00 00 00 00    ................
    0x4000f0:   00 00 00 00 00 00 00 00 00 00 00 00 00 00 00 00    ................
    0x400100:   00 00 00 00 00 00 00 00 00 00 00 00 00 00 00 00    ................


** Section #3 'DTCM' (SHT_NOBITS) [SHF_ALLOC + SHF_WRITE]
    Size   : 1856 bytes (alignment 4)
    Address: 0x00400110


** Section #4 'STACK' (SHT_NOBITS) [SHF_ALLOC + SHF_WRITE]
    Size   : 2048 bytes
    Address: 0x0040f800


** Section #5 '.debug_frame' (SHT_PROGBITS)
    Size   : 3406 bytes


** Section #6 '.symtab' (SHT_SYMTAB)
    Size   : 16912 bytes (alignment 4)
    String table #7 '.strtab'
    Last local symbol no. 874

    Symbol table .symtab (1056 symbols, 874 local)

      #  Symbol Name                Value      Bind  Sec  Type  Vis  Size
    ========================================================================

      1  $a                         0x00000000   Lc    1   --   De 
      2  $d                         0x00000020   Lc    1   --   De 
      3  $a                         0x00000078   Lc    1   --   De 
      4  $d                         0x00000180   Lc    1   --   De 
      5  $a                         0x0000018c   Lc    1   --   De 
      6  $d                         0x000003f4   Lc    1   --   De 
      7  $a                         0x000004f4   Lc    1   --   De 
      8  $d                         0x00000608   Lc    1   --   De 
      9  $a                         0x0000067c   Lc    1   --   De 
     10  $d                         0x000008ac   Lc    1   --   De 
     11  $a                         0x00000900   Lc    1   --   De 
     12  $d                         0x00000a60   Lc    1   --   De 
     13  $a                         0x00000a94   Lc    1   --   De 
     14  $d                         0x0000100c   Lc    1   --   De 
     15  $t                         0x00001070   Lc    1   --   De 
     16  $d                         0x00001086   Lc    1   --   De 
     17  $t                         0x0000108c   Lc    1   --   De 
     18  $d                         0x000010d6   Lc    1   --   De 
     19  $a                         0x000010dc   Lc    1   --   De 
     20  $d                         0x00001338   Lc    1   --   De 
     21  $t                         0x00001354   Lc    1   --   De 
     22  $d                         0x00001488   Lc    1   --   De 
     23  $t                         0x00001498   Lc    1   --   De 
     24  $d                         0x000015e8   Lc    1   --   De 
     25  $a                         0x0000171c   Lc    1   --   De 
     26  $d                         0x00001740   Lc    1   --   De 
     27  $a                         0x00001744   Lc    1   --   De 
     28  $d                         0x0000177c   Lc    1   --   De 
     29  $a                         0x00001780   Lc    1   --   De 
     30  $d                         0x000017f8   Lc    1   --   De 
     31  $t                         0x000017fc   Lc    1   --   De 
     32  $d                         0x00001844   Lc    1   --   De 
     33  $t                         0x00001858   Lc    1   --   De 
     34  $d                         0x000018ca   Lc    1   --   De 
     35  $t                         0x00001900   Lc    1   --   De 
     36  $d                         0x00001976   Lc    1   --   De 
     37  $a                         0x00001980   Lc    1   --   De 
     38  $d                         0x000019f4   Lc    1   --   De 
     39  $a                         0x000019fc   Lc    1   --   De 
     40  $d                         0x00001a84   Lc    1   --   De 
     41  $t                         0x00001a8c   Lc    1   --   De 
     42  $d                         0x00001ac6   Lc    1   --   De 
     43  $t                         0x00001acc   Lc    1   --   De 
     44  $d                         0x00001af4   Lc    1   --   De 
     45  $t                         0x00001afc   Lc    1   --   De 
     46  $d                         0x00001b0e   Lc    1   --   De 
     47  $t                         0x00001b14   Lc    1   --   De 
     48  $d                         0x00001b62   Lc    1   --   De 
     49  $a                         0x00001b6c   Lc    1   --   De 
     50  $t                         0x00001b74   Lc    1   --   De 
     51  $d                         0x00001c2c   Lc    1   --   De 
     52  $t                         0x00001c38   Lc    1   --   De 
     53  $d                         0x00001d68   Lc    1   --   De 
     54  $t                         0x00001d70   Lc    1   --   De 
     55  $d                         0x00001e44   Lc    1   --   De 
     56  $t                         0x00001e50   Lc    1   --   De 
     57  $d                         0x00001fec   Lc    1   --   De 
     58  $t                         0x00002078   Lc    1   --   De 
     59  $d                         0x00002080   Lc    1   --   De 
     60  $t                         0x00002084   Lc    1   --   De 
     61  $d                         0x0000210a   Lc    1   --   De 
     62  $t                         0x00002110   Lc    1   --   De 
     63  $d                         0x00002166   Lc    1   --   De 
     64  $t                         0x00002178   Lc    1   --   De 
     65  $d                         0x0000219e   Lc    1   --   De 
     66  $t                         0x000021a4   Lc    1   --   De 
     67  $d                         0x000021b6   Lc    1   --   De 
     68  $t                         0x000021bc   Lc    1   --   De 
     69  $d                         0x00002268   Lc    1   --   De 
     70  $t                         0x00002288   Lc    1   --   De 
     71  $d                         0x000023c8   Lc    1   --   De 
     72  $t                         0x000023e0   Lc    1   --   De 
     73  $d                         0x00002530   Lc    1   --   De 
     74  $t                         0x00002540   Lc    1   --   De 
     75  $d                         0x0000258c   Lc    1   --   De 
     76  $t                         0x00002594   Lc    1   --   De 
     77  $d                         0x000025b0   Lc    1   --   De 
     78  $t                         0x000025b4   Lc    1   --   De 
     79  $d                         0x000025e2   Lc    1   --   De 
     80  $t                         0x000025e8   Lc    1   --   De 
     81  $d                         0x00002672   Lc    1   --   De 
     82  $t                         0x00002680   Lc    1   --   De 
     83  $d                         0x0000269c   Lc    1   --   De 
     84  $t                         0x000026a8   Lc    1   --   De 
     85  $d                         0x00002756   Lc    1   --   De 
     86  $t                         0x000027b8   Lc    1   --   De 
     87  $d                         0x000027d8   Lc    1   --   De 
     88  $t                         0x000027dc   Lc    1   --   De 
     89  $d                         0x0000280c   Lc    1   --   De 
     90  $t                         0x00002810   Lc    1   --   De 
     91  $d                         0x00002840   Lc    1   --   De 
     92  $t                         0x00002850   Lc    1   --   De 
     93  $d                         0x00002874   Lc    1   --   De 
     94  $t                         0x0000287c   Lc    1   --   De 
     95  $d                         0x0000293c   Lc    1   --   De 
     96  $t                         0x00002940   Lc    1   --   De 
     97  $d                         0x000029ae   Lc    1   --   De 
     98  $t                         0x000029bc   Lc    1   --   De 
     99  $a                         0x000029cc   Lc    1   --   De 
    100  $d                         0x00002a0c   Lc    1   --   De 
    101  $a                         0x00002a1c   Lc    1   --   De 
    102  $d                         0x00002a6c   Lc    1   --   De 
    103  $t                         0x00002a7c   Lc    1   --   De 
    104  $d                         0x00002ac0   Lc    1   --   De 
    105  $t                         0x00002afc   Lc    1   --   De 
    106  $d                         0x00002b0a   Lc    1   --   De 
    107  $t                         0x00002b10   Lc    1   --   De 
    108  $d                         0x00002b16   Lc    1   --   De 
    109  $a                         0x00002b1c   Lc    1   --   De 
    110  $t                         0x00002b24   Lc    1   --   De 
    111  $d                         0x00002b40   Lc    1   --   De 
    112  $t                         0x00002b48   Lc    1   --   De 
    113  $a                         0x00002b64   Lc    1   --   De 
    114  $t                         0x00002b6c   Lc    1   --   De 
    115  $d                         0x00002bd8   Lc    1   --   De 
    116  $t                         0x00002be0   Lc    1   --   De 
    117  $d                         0x00002cd6   Lc    1   --   De 
    118  $t                         0x00002ce0   Lc    1   --   De 
    119  $d                         0x00002d62   Lc    1   --   De 
    120  $t                         0x00002d6c   Lc    1   --   De 
    121  $d                         0x00002d72   Lc    1   --   De 
    122  $t                         0x00002d78   Lc    1   --   De 
    123  $d                         0x00002e1e   Lc    1   --   De 
    124  $a                         0x00002e3c   Lc    1   --   De 
    125  $t                         0x00002e44   Lc    1   --   De 
    126  $d                         0x00002e56   Lc    1   --   De 
    127  $a                         0x00002e60   Lc    1   --   De 
    128  $d                         0x00002e9c   Lc    1   --   De 
    129  $a                         0x00002ea4   Lc    1   --   De 
    130  $d                         0x00002ef0   Lc    1   --   De 
    131  $t                         0x00002ef8   Lc    1   --   De 
    132  $d                         0x00002f1e   Lc    1   --   De 
    133  $d.realdata                0x00002f24   Lc    1   --   De 
    134  $d                         0x00003100   Lc    1   --   De 
    135  $d.realdata                0x00400000   Lc    2   --   De 
    136  $d.realdata                0x0040f800   Lc    4   --   De 
    137  weight.c                   0x00000000   Lc  Abs  File  De 
    138  .text                      0x0000018c   Lc    1  Sect  De   0x4f0
    139  .bss                       0x00400110   Lc    3  Sect  De   0xc0
    140  .constdata                 0x00002f24   Lc    1  Sect  De   0x1bb
    141  .data                      0x00400000   Lc    2  Sect  De   0x4c
    142  .data                      0x0040004c   Lc    2  Sect  De   0x4
    143  .data                      0x00400050   Lc    2  Sect  De   0x4
    144  .data                      0x00400054   Lc    2  Sect  De   0x4
    145  .data                      0x00400058   Lc    2  Sect  De   0x1
    146  .data                      0x0040005c   Lc    2  Sect  De   0x4
    147  .data                      0x00400060   Lc    2  Sect  De   0x4
    148  .data                      0x00400064   Lc    2  Sect  De   0x4
    149  .data                      0x00400068   Lc    2  Sect  De   0x8
    150  .data                      0x00400070   Lc    2  Sect  De   0x8
    151  .data                      0x00400078   Lc    2  Sect  De   0x4
    152  .data                      0x0040007c   Lc    2  Sect  De   0x4
    153  .data                      0x00400080   Lc    2  Sect  De   0x4
    154  .data                      0x00400084   Lc    2  Sect  De   0x4
    155  .data                      0x00400088   Lc    2  Sect  De   0x4
    156  .data                      0x0040008c   Lc    2  Sect  De   0x4
    157  .data                      0x00400090   Lc    2  Sect  De   0x4
    158  .data                      0x00400094   Lc    2  Sect  De   0x4
    159  .data                      0x00400098   Lc    2  Sect  De   0x1
    160  .data                      0x00400099   Lc    2  Sect  De   0x1
    161  .data                      0x0040009c   Lc    2  Sect  De   0x4
    162  init_w.c                   0x00000000   Lc  Abs  File  De 
    163  .text                      0x0000067c   Lc    1  Sect  De   0x284
    164  comms_w.c                  0x00000000   Lc  Abs  File  De 
    165  .text                      0x00000900   Lc    1  Sect  De   0x194
    166  process_w.c                0x00000000   Lc  Abs  File  De 
    167  .text                      0x00000a94   Lc    1  Sect  De   0x5dc
    168  sark_build.c               0x00000000   Lc  Abs  File  De 
    169  .constdata                 0x000030e0   Lc    1  Sect  De   0x4
    170  .constdata                 0x000030e4   Lc    1  Sect  De   0x7
    171  sark_alib.s                0x00000000   Lc  Abs  File  De 
    172  sark_alloc.c               0x00000000   Lc  Abs  File  De 
    173  sark_base.c                0x00000000   Lc  Abs  File  De 
    174  sark_event.c               0x00000000   Lc  Abs  File  De 
    175  sark_hw.c                  0x00000000   Lc  Abs  File  De 
    176  sark_io.c                  0x00000000   Lc  Abs  File  De 
    177  sark_isr.c                 0x00000000   Lc  Abs  File  De 
    178  sark_pkt.c                 0x00000000   Lc  Abs  File  De 
    179  sark_timer.c               0x00000000   Lc  Abs  File  De 
    180  _alib_reset                0x00000000   Lc    1  Sect  De   0x18c
    181  undef                      0x00000004   Lc    1  Code  De   0x4
    182  reset_vec                  0x00000020   Lc    1  Data  De   0x4
    183  undef_vec                  0x00000024   Lc    1  Data  De   0x4
    184  svc_vec                    0x00000028   Lc    1  Data  De   0x4
    185  pabt_vec                   0x0000002c   Lc    1  Data  De   0x4
    186  dabt_vec                   0x00000030   Lc    1  Data  De   0x4
    187  aplx_proc                  0x00000034   Lc    1  Data  De   0x4
    188  irq_vec                    0x00000038   Lc    1  Data  De   0x4
    189  fiq_vec                    0x0000003c   Lc    1  Data  De   0x4
    190  svc_stack                  0x00000040   Lc    1  Data  De   0x2
    191  irq_stack                  0x00000042   Lc    1  Data  De   0x2
    192  fiq_stack                  0x00000044   Lc    1  Data  De   0x2
    193  sys_stack                  0x00000046   Lc    1  Data  De   0x2
    194  code_top                   0x00000048   Lc    1  Data  De   0x4
    195  heap_base                  0x0000004c   Lc    1  Data  De   0x4
    196  stack_top                  0x00000050   Lc    1  Data  De   0x4
    197  stack_size                 0x00000054   Lc    1  Data  De   0x2
    198  num_msgs                   0x00000056   Lc    1  Data  De   0x1
    199  sark_slot                  0x00000057   Lc    1  Data  De   0x1
    200  num_events                 0x00000058   Lc    1  Data  De   0x1
    201  app_id                     0x00000059   Lc    1  Data  De   0x1
    202  __PAD1                     0x0000005a   Lc    1  Data  De   0x2
    203  stack_fill                 0x0000005c   Lc    1  Data  De   0x4
    204  event_vec                  0x00000060   Lc    1  Data  De   0x18
    205  reset_entry                0x00000078   Lc    1  Code  De   0x4
    206  reset_error                0x000000cc   Lc    1  Code  De   0x4
    207  undef_error                0x000000d4   Lc    1  Code  De   0x4
    208  svc_error                  0x000000dc   Lc    1  Code  De   0x4
    209  pabt_error                 0x000000e4   Lc    1  Code  De   0x4
    210  dabt_error                 0x000000ec   Lc    1  Code  De   0x4
    211  irq_error                  0x000000f4   Lc    1  Code  De   0x4
    212  fiq_error                  0x000000fc   Lc    1  Code  De   0x4
    213  exc_error                  0x00000110   Lc    1  Code  De   0x4
    214  cc_error                   0x00000134   Lc    1  Code  De   0x4
    215  alib_init_mode             0x0000110c   Lc    1  Sect  De   0x18
    216  alib_irq_on                0x0000114c   Lc    1  Sect  De   0x10
    217  alib_irq_disable           0x0000113c   Lc    1  Sect  De   0x10
    218  alib_int_disable           0x00001124   Lc    1  Sect  De   0x10
    219  alib_int_restore           0x00001134   Lc    1  Sect  De   0x8
    220  alib_wfi                   0x00001208   Lc    1  Sect  De   0x8
    221  alib_lock                  0x0000115c   Lc    1  Sect  De   0x38
    222  lg1                        0x00001170   Lc    1  Code  De   0x4
    223  alib_strcpy                0x000011f4   Lc    1  Sect  De   0x14
    224  alib_word_set              0x00001274   Lc    1  Sect  De   0x24
    225  ws1                        0x00001278   Lc    1  Code  De   0x4
    226  alib_word_cpy              0x00001210   Lc    1  Sect  De   0x64
    227  wc1                        0x00001238   Lc    1  Code  De   0x4
    228  wc2                        0x00001250   Lc    1  Code  De   0x4
    229  alib_delay                 0x000010c8   Lc    1  Sect  De   0x14
    230  delay1                     0x000010d1   Lc    1  Code  De   0x2
    231  alib_div10                 0x000010dc   Lc    1  Sect  De   0x30
    232  alib_sark_int              0x00001194   Lc    1  Sect  De   0x34
    233  alib_schedule              0x000011c8   Lc    1  Sect  De   0x2c
    234  alib_aplx                  0x00001070   Lc    1  Sect  De   0x58
    235  aplx_l0                    0x00001079   Lc    1  Code  De   0x2
    236  aplx_buffer                0x00001088   Lc    1  Data  De   0x4
    237  aplx_loader                0x0000108d   Lc    1  Code  De   0x2
    238  aplx_rcopy                 0x000010a1   Lc    1  Code  De   0x2
    239  aplx_copy                  0x000010a5   Lc    1  Code  De   0x2
    240  aplx_fill                  0x000010b3   Lc    1  Code  De   0x2
    241  aplx_l1                    0x000010b9   Lc    1  Code  De   0x2
    242  aplx_exec                  0x000010c3   Lc    1  Code  De   0x2
    243  _alib_align                0x00003100   Lc    1  Sect  De   0x4
    244  i.rte_handler              0x00002078   Lc    1  Sect  De   0xc
    245  i.sark_block_init          0x000021bc   Lc    1  Sect  De   0x12
    246  i.sark_cmd_fill            0x000021ce   Lc    1  Sect  De   0xe
    247  i.sark_cmd_read            0x000021dc   Lc    1  Sect  De   0x5e
    248  i.sark_cmd_ver             0x0000223c   Lc    1  Sect  De   0x4c
    249  i.sark_cmd_write           0x00002288   Lc    1  Sect  De   0x5c
    250  i.sark_init                0x00002304   Lc    1  Sect  De   0xdc
    251  i.sark_int                 0x000023e0   Lc    1  Sect  De   0x160
    252  i.sark_msg_free            0x00002594   Lc    1  Sect  De   0x20
    253  i.sark_msg_get             0x000025b4   Lc    1  Sect  De   0x34
    254  i.sark_msg_send            0x000025e8   Lc    1  Sect  De   0x98
    255  i.sark_shmsg_free          0x000027b8   Lc    1  Sect  De   0x24
    256  i.sark_shmsg_get           0x000027dc   Lc    1  Sect  De   0x34
    257  .bss                       0x004001d0   Lc    3  Sect  De   0x60
    258  i.event_alloc              0x00001a8c   Lc    1  Sect  De   0x40
    259  i.event_pause              0x00001acc   Lc    1  Sect  De   0x30
    260  i.event_stop               0x00001afc   Lc    1  Sect  De   0x18
    261  .bss                       0x00400230   Lc    3  Sect  De   0x9c
    262  i.get4                     0x00001b14   Lc    1  Sect  De   0x12
    263  get4                       0x00001b15   Lc    1  Code  De   0x12
    264  i.rtr_mc_set               0x00002110   Lc    1  Sect  De   0x68
    265  i.rtr_p2p_get              0x00002178   Lc    1  Sect  De   0x2c
    266  i.sark_led_set             0x00002540   Lc    1  Sect  De   0x54
    267  i.sark_vic_init            0x00002810   Lc    1  Sect  De   0x40
    268  i.sark_vic_set             0x00002850   Lc    1  Sect  De   0x2c
    269  i.v2p_mask                 0x00002ef8   Lc    1  Sect  De   0x2c
    270  i.rtr_alloc                0x00002084   Lc    1  Sect  De   0x8c
    271  i.sark_alloc               0x000021a4   Lc    1  Sect  De   0x18
    272  i.sark_heap_init           0x000022ec   Lc    1  Sect  De   0x18
    273  i.sark_xalloc              0x0000287c   Lc    1  Sect  De   0xc4
    274  i.io_buf_init              0x00001b28   Lc    1  Sect  De   0x44
    275  io_buf_init                0x00001b29   Lc    1  Code  De   0x3a
    276  i.io_printf                0x00001b74   Lc    1  Sect  De   0x1fc
    277  i.io_put_char              0x00001d70   Lc    1  Sect  De   0xe0
    278  i.io_put_fixed             0x00001e50   Lc    1  Sect  De   0xb8
    279  io_put_fixed               0x00001e51   Lc    1  Code  De   0xb8
    280  i.io_put_int               0x00001f08   Lc    1  Sect  De   0x64
    281  io_put_int                 0x00001f09   Lc    1  Code  De   0x64
    282  i.io_put_sfixed            0x00001f6c   Lc    1  Sect  De   0x20
    283  io_put_sfixed              0x00001f6d   Lc    1  Code  De   0x20
    284  i.io_put_ufixed            0x00001f8c   Lc    1  Sect  De   0x18
    285  io_put_ufixed              0x00001f8d   Lc    1  Code  De   0x18
    286  .constdata                 0x000030ec   Lc    1  Sect  De   0x11
    287  hex                        0x000030ec   Lc    1  Data  De   0x11
    288  .data                      0x004000a0   Lc    2  Sect  De   0x10
    289  sp_ptr                     0x004000a0   Lc    2  Data  De   0x4
    290  buf_ptr                    0x004000a4   Lc    2  Data  De   0x4
    291  io_msg                     0x004000a8   Lc    2  Data  De   0x4
    292  io_buf                     0x004000ac   Lc    2  Data  De   0x4
    293  i.__ARM_common_switch8     0x00001298   Lc    1  Sect  De   0x18
    294  CC_TCR                     0x00000000   Lc  Abs   --   De 
    295  CMD_VER                    0x00000000   Lc  Abs   --   De 
    296  ETH_CONTROL                0x00000000   Lc  Abs   --   De 
    297  ITCM_BASE                  0x00000000   Lc  Abs   --   De 
    298  MC_STAT                    0x00000000   Lc  Abs   --   De 
    299  PKT_MC                     0x00000000   Lc  Abs   --   De 
    300  RST_POR                    0x00000000   Lc  Abs   --   De 
    301  RTR_CONTROL                0x00000000   Lc  Abs   --   De 
    302  SARK_VIRT_CPU              0x00000000   Lc  Abs   --   De 
    303  SC_CHIP_ID                 0x00000000   Lc  Abs   --   De 
    304  SRF_NONE                   0x00000000   Lc  Abs   --   De 
    305  T1_LOAD                    0x00000000   Lc  Abs   --   De 
    306  TAG_HOST                   0x00000000   Lc  Abs   --   De 
    307  TC_LOAD                    0x00000000   Lc  Abs   --   De 
    308  TYPE_BYTE                  0x00000000   Lc  Abs   --   De 
    309  VIC_IRQST                  0x00000000   Lc  Abs   --   De 
    310  WDOG_INT                   0x00000000   Lc  Abs   --   De 
    311  WD_LOAD                    0x00000000   Lc  Abs   --   De 
    312  ALLOC_LOCK                 0x00000001   Lc  Abs   --   De 
    313  APLX_ACOPY                 0x00000001   Lc  Abs   --   De 
    314  A_RTE_RESET                0x00000001   Lc  Abs   --   De 
    315  BUF_WRITE                  0x00000001   Lc  Abs   --   De 
    316  CMD_RUN                    0x00000001   Lc  Abs   --   De 
    317  ETH_TX_CLR                 0x00000001   Lc  Abs   --   De 
    318  LED_0                      0x00000001   Lc  Abs   --   De 
    319  PHY_CTRL_NRST              0x00000001   Lc  Abs   --   De 
    320  RST_WDT                    0x00000001   Lc  Abs   --   De 
    321  RTR_ALLOC_FIRST            0x00000001   Lc  Abs   --   De 
    322  SARK_EVENT                 0x00000001   Lc  Abs   --   De 
    323  SOFTWARE_INT               0x00000001   Lc  Abs   --   De 
    324  SRF_ETH                    0x00000001   Lc  Abs   --   De 
    325  TYPE_HALF                  0x00000001   Lc  Abs   --   De 
    326  WD_INT_B                   0x00000001   Lc  Abs   --   De 
    327  ALLOC_ID                   0x00000002   Lc  Abs   --   De 
    328  APLX_RCOPY                 0x00000002   Lc  Abs   --   De 
    329  A_RTE_UNDEF                0x00000002   Lc  Abs   --   De 
    330  A_STATE_RTE                0x00000002   Lc  Abs   --   De 
    331  CMD_READ                   0x00000002   Lc  Abs   --   De 
    332  COMM_RX_INT                0x00000002   Lc  Abs   --   De 
    333  PHY_CTRL_DIN               0x00000002   Lc  Abs   --   De 
    334  RST_USER                   0x00000002   Lc  Abs   --   De 
    335  SRF_PHY_WAIT               0x00000002   Lc  Abs   --   De 
    336  TYPE_WORD                  0x00000002   Lc  Abs   --   De 
    337  WD_RST_B                   0x00000002   Lc  Abs   --   De 
    338  APLX_FILL                  0x00000003   Lc  Abs   --   De 
    339  A_RTE_SVC                  0x00000003   Lc  Abs   --   De 
    340  CMD_WRITE                  0x00000003   Lc  Abs   --   De 
    341  COMM_TX_INT                0x00000003   Lc  Abs   --   De 
    342  P2P_BPE                    0x00000003   Lc  Abs   --   De 
    343  P2P_LOG_EPW                0x00000003   Lc  Abs   --   De 
    344  RST_SW                     0x00000003   Lc  Abs   --   De 
    345  APLX_EXEC                  0x00000004   Lc  Abs   --   De 
    346  A_RTE_PABT                 0x00000004   Lc  Abs   --   De 
    347  CC_TXDATA                  0x00000004   Lc  Abs   --   De 
    348  CMD_APLX                   0x00000004   Lc  Abs   --   De 
    349  DMA_ADRS                   0x00000004   Lc  Abs   --   De 
    350  ETH_STATUS                 0x00000004   Lc  Abs   --   De 
    351  MC_CMD                     0x00000004   Lc  Abs   --   De 
    352  NUM_SDP_MSGS               0x00000004   Lc  Abs   --   De 
    353  PHY_CTRL_DOUT              0x00000004   Lc  Abs   --   De 
    354  RST_WDI                    0x00000004   Lc  Abs   --   De 
    355  RTR_STATUS                 0x00000004   Lc  Abs   --   De 
    356  SC_CPU_DIS                 0x00000004   Lc  Abs   --   De 
    357  SERIAL_SO                  0x00000004   Lc  Abs   --   De 
    358  SRF_PHY_RST                0x00000004   Lc  Abs   --   De 
    359  T1_COUNT                   0x00000004   Lc  Abs   --   De 
    360  TC_COUNT                   0x00000004   Lc  Abs   --   De 
    361  TIMER1_INT                 0x00000004   Lc  Abs   --   De 
    362  VIC_FIQST                  0x00000004   Lc  Abs   --   De 
    363  WD_COUNT                   0x00000004   Lc  Abs   --   De 
    364  A_LOCK_SEMA                0x00000005   Lc  Abs   --   De 
    365  A_RTE_DABT                 0x00000005   Lc  Abs   --   De 
    366  CMD_FILL                   0x00000005   Lc  Abs   --   De 
    367  PORT_SHIFT                 0x00000005   Lc  Abs   --   De 
    368  TIMER2_INT                 0x00000005   Lc  Abs   --   De 
    369  A_RTE_IRQ                  0x00000006   Lc  Abs   --   De 
    370  CC_RDY_INT                 0x00000006   Lc  Abs   --   De 
    371  EVENT_COUNT                0x00000006   Lc  Abs   --   De 
    372  NUM_LINKS                  0x00000006   Lc  Abs   --   De 
    373  A_RTE_FIQ                  0x00000007   Lc  Abs   --   De 
    374  CC_RPE_INT                 0x00000007   Lc  Abs   --   De 
    375  P2P_BMASK                  0x00000007   Lc  Abs   --   De 
    376  P2P_EMASK                  0x00000007   Lc  Abs   --   De 
    377  A_RTE_VIC                  0x00000008   Lc  Abs   --   De 
    378  CC_RFE_INT                 0x00000008   Lc  Abs   --   De 
    379  CC_TXKEY                   0x00000008   Lc  Abs   --   De 
    380  DMA_ADRT                   0x00000008   Lc  Abs   --   De 
    381  ETH_TX_LEN                 0x00000008   Lc  Abs   --   De 
    382  MC_DIRC                    0x00000008   Lc  Abs   --   De 
    383  P2P_EPW                    0x00000008   Lc  Abs   --   De 
    384  PHY_CTRL_OE                0x00000008   Lc  Abs   --   De 
    385  RTR_EHDR                   0x00000008   Lc  Abs   --   De 
    386  SARK_RANDOM                0x00000008   Lc  Abs   --   De 
    387  SC_SET_IRQ                 0x00000008   Lc  Abs   --   De 
    388  SERIAL_SI                  0x00000008   Lc  Abs   --   De 
    389  SRF_PHY_INIT               0x00000008   Lc  Abs   --   De 
    390  T1_CONTROL                 0x00000008   Lc  Abs   --   De 
    391  TC_CONTROL                 0x00000008   Lc  Abs   --   De 
    392  VIC_RAW                    0x00000008   Lc  Abs   --   De 
    393  WD_CTRL                    0x00000008   Lc  Abs   --   De 
    394  CC_TFL_INT                 0x00000009   Lc  Abs   --   De 
    395  CC_TOV_INT                 0x0000000a   Lc  Abs   --   De 
    396  CLK_XTAL_MHZ               0x0000000a   Lc  Abs   --   De 
    397  CC_TMT_INT                 0x0000000b   Lc  Abs   --   De 
    398  CC_RSR                     0x0000000c   Lc  Abs   --   De 
    399  DMA_DESC                   0x0000000c   Lc  Abs   --   De 
    400  DMA_DONE_INT               0x0000000c   Lc  Abs   --   De 
    401  ETH_TX_CMD                 0x0000000c   Lc  Abs   --   De 
    402  MC_MCFG                    0x0000000c   Lc  Abs   --   De 
    403  RTR_EKEY                   0x0000000c   Lc  Abs   --   De 
    404  SC_CLR_IRQ                 0x0000000c   Lc  Abs   --   De 
    405  T1_INT_CLR                 0x0000000c   Lc  Abs   --   De 
    406  TC_INT_CLR                 0x0000000c   Lc  Abs   --   De 
    407  VIC_SELECT                 0x0000000c   Lc  Abs   --   De 
    408  WD_INTCLR                  0x0000000c   Lc  Abs   --   De 
    409  DMA_ERR_INT                0x0000000d   Lc  Abs   --   De 
    410  DMA_TO_INT                 0x0000000e   Lc  Abs   --   De 
    411  RTR_DIAG_INT               0x0000000f   Lc  Abs   --   De 
    412  SARK_SLOT                  0x0000000f   Lc  Abs   --   De 
    413  APLX_ENTRY_SIZE            0x00000010   Lc  Abs   --   De 
    414  CC_RXDATA                  0x00000010   Lc  Abs   --   De 
    415  CMD_REMAP                  0x00000010   Lc  Abs   --   De 
    416  DMA_CTRL                   0x00000010   Lc  Abs   --   De 
    417  ETH_RX_CLR                 0x00000010   Lc  Abs   --   De 
    418  ETH_RX_CMD                 0x00000010   Lc  Abs   --   De 
    419  INIT_EVENTS                0x00000010   Lc  Abs   --   De 
    420  MC_REFP                    0x00000010   Lc  Abs   --   De 
    421  MODE_USER                  0x00000010   Lc  Abs   --   De 
    422  PHY_CTRL_CLK               0x00000010   Lc  Abs   --   De 
    423  RTR_DUMP_INT               0x00000010   Lc  Abs   --   De 
    424  RTR_EDAT                   0x00000010   Lc  Abs   --   De 
    425  SC_CPU_OK                  0x00000010   Lc  Abs   --   De 
    426  SC_SET_OK                  0x00000010   Lc  Abs   --   De 
    427  SERIAL_CLK                 0x00000010   Lc  Abs   --   De 
    428  T1_RAW_INT                 0x00000010   Lc  Abs   --   De 
    429  TC_RAW_INT                 0x00000010   Lc  Abs   --   De 
    430  VIC_ENABLE                 0x00000010   Lc  Abs   --   De 
    431  WD_RAWINT                  0x00000010   Lc  Abs   --   De 
    432  CMD_LINK_READ              0x00000011   Lc  Abs   --   De 
    433  MODE_FIQ                   0x00000011   Lc  Abs   --   De 
    434  RTR_ERR_INT                0x00000011   Lc  Abs   --   De 
    435  CMD_LINK_WRITE             0x00000012   Lc  Abs   --   De 
    436  CPU_INT                    0x00000012   Lc  Abs   --   De 
    437  MODE_IRQ                   0x00000012   Lc  Abs   --   De 
    438  NUM_CPUS                   0x00000012   Lc  Abs   --   De 
    439  CMD_AR                     0x00000013   Lc  Abs   --   De 
    440  ETH_TX_INT                 0x00000013   Lc  Abs   --   De 
    441  MODE_SVC                   0x00000013   Lc  Abs   --   De 
    442  CC_RXKEY                   0x00000014   Lc  Abs   --   De 
    443  CMD_NNP                    0x00000014   Lc  Abs   --   De 
    444  DMA_STAT                   0x00000014   Lc  Abs   --   De 
    445  ETH_MAC_LO                 0x00000014   Lc  Abs   --   De 
    446  ETH_RX_INT                 0x00000014   Lc  Abs   --   De 
    447  MC_CASL                    0x00000014   Lc  Abs   --   De 
    448  RTR_ESTAT                  0x00000014   Lc  Abs   --   De 
    449  SC_CLR_OK                  0x00000014   Lc  Abs   --   De 
    450  T1_MASK_INT                0x00000014   Lc  Abs   --   De 
    451  TC_MASK_INT                0x00000014   Lc  Abs   --   De 
    452  VIC_DISABLE                0x00000014   Lc  Abs   --   De 
    453  WD_MSKINT                  0x00000014   Lc  Abs   --   De 
    454  CMD_P2PC                   0x00000015   Lc  Abs   --   De 
    455  ETH_PHY_INT                0x00000015   Lc  Abs   --   De 
    456  CMD_SIG                    0x00000016   Lc  Abs   --   De 
    457  SLOW_CLK_INT               0x00000016   Lc  Abs   --   De 
    458  CC_TNF_INT                 0x00000017   Lc  Abs   --   De 
    459  CMD_FFD                    0x00000017   Lc  Abs   --   De 
    460  MODE_ABT                   0x00000017   Lc  Abs   --   De 
    461  CC_MC_INT                  0x00000018   Lc  Abs   --   De 
    462  CC_SAR                     0x00000018   Lc  Abs   --   De 
    463  CMD_AS                     0x00000018   Lc  Abs   --   De 
    464  DMA_GCTL                   0x00000018   Lc  Abs   --   De 
    465  ETH_MAC_HI                 0x00000018   Lc  Abs   --   De 
    466  MC_DQSS                    0x00000018   Lc  Abs   --   De 
    467  MC_RAM_WIDTH               0x00000018   Lc  Abs   --   De 
    468  RTR_DHDR                   0x00000018   Lc  Abs   --   De 
    469  SC_SOFT_RST_L              0x00000018   Lc  Abs   --   De 
    470  T1_BG_LOAD                 0x00000018   Lc  Abs   --   De 
    471  TC_BG_LOAD                 0x00000018   Lc  Abs   --   De 
    472  VIC_SOFT_SET               0x00000018   Lc  Abs   --   De 
    473  CC_P2P_INT                 0x00000019   Lc  Abs   --   De 
    474  CMD_LED                    0x00000019   Lc  Abs   --   De 
    475  CC_NN_INT                  0x0000001a   Lc  Abs   --   De 
    476  CMD_IPTAG                  0x0000001a   Lc  Abs   --   De 
    477  CC_FR_INT                  0x0000001b   Lc  Abs   --   De 
    478  CMD_SROM                   0x0000001b   Lc  Abs   --   De 
    479  MODE_UND                   0x0000001b   Lc  Abs   --   De 
    480  CC_TEST                    0x0000001c   Lc  Abs   --   De 
    481  CMD_ALLOC                  0x0000001c   Lc  Abs   --   De 
    482  DMA_CRCC                   0x0000001c   Lc  Abs   --   De 
    483  ETH_PHY_CTRL               0x0000001c   Lc  Abs   --   De 
    484  INT0_INT                   0x0000001c   Lc  Abs   --   De 
    485  MC_MRD                     0x0000001c   Lc  Abs   --   De 
    486  RTR_DKEY                   0x0000001c   Lc  Abs   --   De 
    487  SARK_MSG_INT               0x0000001c   Lc  Abs   --   De 
    488  SC_HARD_RST_L              0x0000001c   Lc  Abs   --   De 
    489  VIC_SOFT_CLR               0x0000001c   Lc  Abs   --   De 
    490  CMD_RTR                    0x0000001d   Lc  Abs   --   De 
    491  INT1_INT                   0x0000001d   Lc  Abs   --   De 
    492  SARK_SIG_INT               0x0000001d   Lc  Abs   --   De 
    493  GPIO8_INT                  0x0000001e   Lc  Abs   --   De 
    494  CPU_MASK                   0x0000001f   Lc  Abs   --   De 
    495  GPIO9_INT                  0x0000001f   Lc  Abs   --   De 
    496  MODE_SYS                   0x0000001f   Lc  Abs   --   De 
    497  DMA_CRCR                   0x00000020   Lc  Abs   --   De 
    498  ETH_INT_CLR                0x00000020   Lc  Abs   --   De 
    499  MC_CAM_WIDTH               0x00000020   Lc  Abs   --   De 
    500  MC_RAS                     0x00000020   Lc  Abs   --   De 
    501  RTR_DDAT                   0x00000020   Lc  Abs   --   De 
    502  SC_SUBS_RST_L              0x00000020   Lc  Abs   --   De 
    503  SERIAL_NCS                 0x00000020   Lc  Abs   --   De 
    504  SV_SSIZE                   0x00000020   Lc  Abs   --   De 
    505  SV_VSIZE                   0x00000020   Lc  Abs   --   De 
    506  T2_LOAD                    0x00000020   Lc  Abs   --   De 
    507  THUMB_BIT                  0x00000020   Lc  Abs   --   De 
    508  TIMER_OFFSET               0x00000020   Lc  Abs   --   De 
    509  VIC_PROTECT                0x00000020   Lc  Abs   --   De 
    510  DMA_TMTV                   0x00000024   Lc  Abs   --   De 
    511  ETH_RX_BUF_RP              0x00000024   Lc  Abs   --   De 
    512  MC_RC                      0x00000024   Lc  Abs   --   De 
    513  RTR_DLINK                  0x00000024   Lc  Abs   --   De 
    514  SC_SOFT_RST_P              0x00000024   Lc  Abs   --   De 
    515  T2_COUNT                   0x00000024   Lc  Abs   --   De 
    516  DMA_SCTL                   0x00000028   Lc  Abs   --   De 
    517  MC_RCD                     0x00000028   Lc  Abs   --   De 
    518  RTR_DSTAT                  0x00000028   Lc  Abs   --   De 
    519  SC_HARD_RST_P              0x00000028   Lc  Abs   --   De 
    520  T2_CONTROL                 0x00000028   Lc  Abs   --   De 
    521  ETH_RX_DESC_RP             0x0000002c   Lc  Abs   --   De 
    522  MC_RFC                     0x0000002c   Lc  Abs   --   De 
    523  RTR_DGEN                   0x0000002c   Lc  Abs   --   De 
    524  SC_SUBS_RST_P              0x0000002c   Lc  Abs   --   De 
    525  T2_INT_CLR                 0x0000002c   Lc  Abs   --   De 
    526  VCPU_RT_CODE               0x0000002c   Lc  Abs   --   De 
    527  VCPU_CPU_FLAGS             0x0000002d   Lc  Abs   --   De 
    528  VCPU_CPU_STATE             0x0000002e   Lc  Abs   --   De 
    529  VCPU_APP_ID                0x0000002f   Lc  Abs   --   De 
    530  MC_RP                      0x00000030   Lc  Abs   --   De 
    531  SARK_CPU_CLK               0x00000030   Lc  Abs   --   De 
    532  SC_RST_CODE                0x00000030   Lc  Abs   --   De 
    533  T2_RAW_INT                 0x00000030   Lc  Abs   --   De 
    534  VIC_VADDR                  0x00000030   Lc  Abs   --   De 
    535  MC_RRD                     0x00000034   Lc  Abs   --   De 
    536  SC_MON_ID                  0x00000034   Lc  Abs   --   De 
    537  T2_MASK_INT                0x00000034   Lc  Abs   --   De 
    538  VIC_DEFADDR                0x00000034   Lc  Abs   --   De 
    539  MC_WR                      0x00000038   Lc  Abs   --   De 
    540  SC_MISC_CTRL               0x00000038   Lc  Abs   --   De 
    541  SERIAL_OE                  0x00000038   Lc  Abs   --   De 
    542  T2_BG_LOAD                 0x00000038   Lc  Abs   --   De 
    543  GPIO_RES                   0x0000003c   Lc  Abs   --   De 
    544  MC_WTR                     0x0000003c   Lc  Abs   --   De 
    545  APLX_BUF_SIZE              0x00000040   Lc  Abs   --   De 
    546  CMD_TUBE                   0x00000040   Lc  Abs   --   De 
    547  DMA_STAT0                  0x00000040   Lc  Abs   --   De 
    548  FIQ_STACK                  0x00000040   Lc  Abs   --   De 
    549  GPIO_PORT                  0x00000040   Lc  Abs   --   De 
    550  IMASK_FIQ                  0x00000040   Lc  Abs   --   De 
    551  IRQ_STACK                  0x00000040   Lc  Abs   --   De 
    552  MC_XP                      0x00000040   Lc  Abs   --   De 
    553  SV_RSIZE                   0x00000040   Lc  Abs   --   De 
    554  DMA_STAT1                  0x00000044   Lc  Abs   --   De 
    555  GPIO_DIR                   0x00000044   Lc  Abs   --   De 
    556  MC_XSR                     0x00000044   Lc  Abs   --   De 
    557  DMA_STAT2                  0x00000048   Lc  Abs   --   De 
    558  GPIO_READ                  0x00000048   Lc  Abs   --   De 
    559  GPIO_SET                   0x00000048   Lc  Abs   --   De 
    560  MC_ESR                     0x00000048   Lc  Abs   --   De 
    561  DMA_STAT3                  0x0000004c   Lc  Abs   --   De 
    562  GPIO_CLR                   0x0000004c   Lc  Abs   --   De 
    563  MC_MCFG2                   0x0000004c   Lc  Abs   --   De 
    564  DMA_STAT4                  0x00000050   Lc  Abs   --   De 
    565  MC_MCFG3                   0x00000050   Lc  Abs   --   De 
    566  PLL_LOCK_TIME              0x00000050   Lc  Abs   --   De 
    567  SC_PLL1                    0x00000050   Lc  Abs   --   De 
    568  DMA_STAT5                  0x00000054   Lc  Abs   --   De 
    569  SC_PLL2                    0x00000054   Lc  Abs   --   De 
    570  DMA_STAT6                  0x00000058   Lc  Abs   --   De 
    571  SC_FLAG                    0x00000058   Lc  Abs   --   De 
    572  SC_SETFLAG                 0x00000058   Lc  Abs   --   De 
    573  DMA_STAT7                  0x0000005c   Lc  Abs   --   De 
    574  SC_CLRFLAG                 0x0000005c   Lc  Abs   --   De 
    575  SC_CLKMUX                  0x00000060   Lc  Abs   --   De 
    576  SVC_STACK                  0x00000060   Lc  Abs   --   De 
    577  SV_USIZE                   0x00000060   Lc  Abs   --   De 
    578  SC_SLEEP                   0x00000064   Lc  Abs   --   De 
    579  SC_TS0                     0x00000068   Lc  Abs   --   De 
    580  SC_TS1                     0x0000006c   Lc  Abs   --   De 
    581  SC_TS2                     0x00000070   Lc  Abs   --   De 
    582  IMASK_IRQ                  0x00000080   Lc  Abs   --   De 
    583  RC_OK                      0x00000080   Lc  Abs   --   De 
    584  SC_ARB0                    0x00000080   Lc  Abs   --   De 
    585  SV_ISIZE                   0x00000080   Lc  Abs   --   De 
    586  VCPU_SIZE                  0x00000080   Lc  Abs   --   De 
    587  RC_LEN                     0x00000081   Lc  Abs   --   De 
    588  RC_SUM                     0x00000082   Lc  Abs   --   De 
    589  RC_CMD                     0x00000083   Lc  Abs   --   De 
    590  RC_ARG                     0x00000084   Lc  Abs   --   De 
    591  RC_PORT                    0x00000085   Lc  Abs   --   De 
    592  RC_TIMEOUT                 0x00000086   Lc  Abs   --   De 
    593  RC_ROUTE                   0x00000087   Lc  Abs   --   De 
    594  RC_CPU                     0x00000088   Lc  Abs   --   De 
    595  RC_DEAD                    0x00000089   Lc  Abs   --   De 
    596  RC_BUF                     0x0000008a   Lc  Abs   --   De 
    597  RC_P2P_NOREPLY             0x0000008b   Lc  Abs   --   De 
    598  RC_P2P_REJECT              0x0000008c   Lc  Abs   --   De 
    599  RC_P2P_BUSY                0x0000008d   Lc  Abs   --   De 
    600  RC_P2P_TIMEOUT             0x0000008e   Lc  Abs   --   De 
    601  RC_PKT_TX                  0x0000008f   Lc  Abs   --   De 
    602  IMASK_ALL                  0x000000c0   Lc  Abs   --   De 
    603  PORT_MASK                  0x000000e0   Lc  Abs   --   De 
    604  SRF_HW_VER                 0x000000f0   Lc  Abs   --   De 
    605  APLX_END                   0x000000ff   Lc  Abs   --   De 
    606  PORT_ETH                   0x000000ff   Lc  Abs   --   De 
    607  TAG_NONE                   0x000000ff   Lc  Abs   --   De 
    608  MC_QOS0                    0x00000100   Lc  Abs   --   De 
    609  SC_TAS0                    0x00000100   Lc  Abs   --   De 
    610  SDP_BUF_SIZE               0x00000100   Lc  Abs   --   De 
    611  SYS_BOOT                   0x00000100   Lc  Abs   --   De 
    612  VIC_ADDR                   0x00000100   Lc  Abs   --   De 
    613  VIC_ADDR0                  0x00000100   Lc  Abs   --   De 
    614  DMA_AD2S                   0x00000104   Lc  Abs   --   De 
    615  MC_QOS1                    0x00000104   Lc  Abs   --   De 
    616  VIC_ADDR1                  0x00000104   Lc  Abs   --   De 
    617  DMA_AD2T                   0x00000108   Lc  Abs   --   De 
    618  MC_QOS2                    0x00000108   Lc  Abs   --   De 
    619  VIC_ADDR2                  0x00000108   Lc  Abs   --   De 
    620  DMA_DES2                   0x0000010c   Lc  Abs   --   De 
    621  MC_QOS3                    0x0000010c   Lc  Abs   --   De 
    622  VIC_ADDR3                  0x0000010c   Lc  Abs   --   De 
    623  MC_QOS4                    0x00000110   Lc  Abs   --   De 
    624  VIC_ADDR4                  0x00000110   Lc  Abs   --   De 
    625  MC_QOS5                    0x00000114   Lc  Abs   --   De 
    626  VIC_ADDR5                  0x00000114   Lc  Abs   --   De 
    627  MC_QOS6                    0x00000118   Lc  Abs   --   De 
    628  VIC_ADDR6                  0x00000118   Lc  Abs   --   De 
    629  MC_QOS7                    0x0000011c   Lc  Abs   --   De 
    630  VIC_ADDR7                  0x0000011c   Lc  Abs   --   De 
    631  MC_QOS8                    0x00000120   Lc  Abs   --   De 
    632  SYS_STACK                  0x00000120   Lc  Abs   --   De 
    633  VIC_ADDR8                  0x00000120   Lc  Abs   --   De 
    634  MC_QOS9                    0x00000124   Lc  Abs   --   De 
    635  VIC_ADDR9                  0x00000124   Lc  Abs   --   De 
    636  MC_QOS10                   0x00000128   Lc  Abs   --   De 
    637  VIC_ADDR10                 0x00000128   Lc  Abs   --   De 
    638  MC_QOS11                   0x0000012c   Lc  Abs   --   De 
    639  VIC_ADDR11                 0x0000012c   Lc  Abs   --   De 
    640  MC_QOS12                   0x00000130   Lc  Abs   --   De 
    641  VIC_ADDR12                 0x00000130   Lc  Abs   --   De 
    642  MC_QOS13                   0x00000134   Lc  Abs   --   De 
    643  VIC_ADDR13                 0x00000134   Lc  Abs   --   De 
    644  MC_QOS14                   0x00000138   Lc  Abs   --   De 
    645  VIC_ADDR14                 0x00000138   Lc  Abs   --   De 
    646  MC_QOS15                   0x0000013c   Lc  Abs   --   De 
    647  VIC_ADDR15                 0x0000013c   Lc  Abs   --   De 
    648  DMA_CRCT                   0x00000180   Lc  Abs   --   De 
    649  SC_TAC0                    0x00000180   Lc  Abs   --   De 
    650  MC_CCFG0                   0x00000200   Lc  Abs   --   De 
    651  RTR_DGF0                   0x00000200   Lc  Abs   --   De 
    652  SC_LINK_DIS                0x00000200   Lc  Abs   --   De 
    653  VIC_CNTL                   0x00000200   Lc  Abs   --   De 
    654  VIC_CNTL0                  0x00000200   Lc  Abs   --   De 
    655  MC_CCFG1                   0x00000204   Lc  Abs   --   De 
    656  RTR_DGF1                   0x00000204   Lc  Abs   --   De 
    657  VIC_CNTL1                  0x00000204   Lc  Abs   --   De 
    658  MC_CCFG2                   0x00000208   Lc  Abs   --   De 
    659  RTR_DGF2                   0x00000208   Lc  Abs   --   De 
    660  VIC_CNTL2                  0x00000208   Lc  Abs   --   De 
    661  MC_CCFG3                   0x0000020c   Lc  Abs   --   De 
    662  RTR_DGF3                   0x0000020c   Lc  Abs   --   De 
    663  VIC_CNTL3                  0x0000020c   Lc  Abs   --   De 
    664  RTR_DGF4                   0x00000210   Lc  Abs   --   De 
    665  VIC_CNTL4                  0x00000210   Lc  Abs   --   De 
    666  RTR_DGF5                   0x00000214   Lc  Abs   --   De 
    667  VIC_CNTL5                  0x00000214   Lc  Abs   --   De 
    668  RTR_DGF6                   0x00000218   Lc  Abs   --   De 
    669  VIC_CNTL6                  0x00000218   Lc  Abs   --   De 
    670  RTR_DGF7                   0x0000021c   Lc  Abs   --   De 
    671  VIC_CNTL7                  0x0000021c   Lc  Abs   --   De 
    672  RTR_DGF8                   0x00000220   Lc  Abs   --   De 
    673  VIC_CNTL8                  0x00000220   Lc  Abs   --   De 
    674  RTR_DGF9                   0x00000224   Lc  Abs   --   De 
    675  VIC_CNTL9                  0x00000224   Lc  Abs   --   De 
    676  RTR_DGF10                  0x00000228   Lc  Abs   --   De 
    677  VIC_CNTL10                 0x00000228   Lc  Abs   --   De 
    678  RTR_DGF11                  0x0000022c   Lc  Abs   --   De 
    679  VIC_CNTL11                 0x0000022c   Lc  Abs   --   De 
    680  RTR_DGF12                  0x00000230   Lc  Abs   --   De 
    681  VIC_CNTL12                 0x00000230   Lc  Abs   --   De 
    682  RTR_DGF13                  0x00000234   Lc  Abs   --   De 
    683  VIC_CNTL13                 0x00000234   Lc  Abs   --   De 
    684  RTR_DGF14                  0x00000238   Lc  Abs   --   De 
    685  VIC_CNTL14                 0x00000238   Lc  Abs   --   De 
    686  RTR_DGF15                  0x0000023c   Lc  Abs   --   De 
    687  VIC_CNTL15                 0x0000023c   Lc  Abs   --   De 
    688  DLL_STATUS                 0x00000300   Lc  Abs   --   De 
    689  RTR_DGC0                   0x00000300   Lc  Abs   --   De 
    690  DLL_CONFIG0                0x00000304   Lc  Abs   --   De 
    691  RTR_DGC1                   0x00000304   Lc  Abs   --   De 
    692  DLL_CONFIG1                0x00000308   Lc  Abs   --   De 
    693  RTR_DGC2                   0x00000308   Lc  Abs   --   De 
    694  RTR_DGC3                   0x0000030c   Lc  Abs   --   De 
    695  RTR_DGC4                   0x00000310   Lc  Abs   --   De 
    696  RTR_DGC5                   0x00000314   Lc  Abs   --   De 
    697  RTR_DGC6                   0x00000318   Lc  Abs   --   De 
    698  RTR_DGC7                   0x0000031c   Lc  Abs   --   De 
    699  RTR_DGC8                   0x00000320   Lc  Abs   --   De 
    700  RTR_DGC9                   0x00000324   Lc  Abs   --   De 
    701  RTR_DGC10                  0x00000328   Lc  Abs   --   De 
    702  RTR_DGC11                  0x0000032c   Lc  Abs   --   De 
    703  RTR_DGC12                  0x00000330   Lc  Abs   --   De 
    704  RTR_DGC13                  0x00000334   Lc  Abs   --   De 
    705  RTR_DGC14                  0x00000338   Lc  Abs   --   De 
    706  RTR_DGC15                  0x0000033c   Lc  Abs   --   De 
    707  RTR_ALLOC_MAX              0x000003ff   Lc  Abs   --   De 
    708  MC_TABLE_SIZE              0x00000400   Lc  Abs   --   De 
    709  RTR_ALLOC_LAST             0x00000400   Lc  Abs   --   De 
    710  SPARE_SIZE                 0x000005a0   Lc  Abs   --   De 
    711  ETH_TX_SIZE                0x00000600   Lc  Abs   --   De 
    712  ETH_RX_SIZE                0x00000c00   Lc  Abs   --   De 
    713  WD_LOCK                    0x00000c00   Lc  Abs   --   De 
    714  RTR_TST1                   0x00000f00   Lc  Abs   --   De 
    715  RTR_TST2                   0x00000f04   Lc  Abs   --   De 
    716  SV_SIZE                    0x00001000   Lc  Abs   --   De 
    717  P2P_TABLE_SIZE             0x00002000   Lc  Abs   --   De 
    718  APLX_BUFFER                0x00007fc0   Lc  Abs   --   De 
    719  ITCM_SIZE                  0x00008000   Lc  Abs   --   De 
    720  ITCM_TOP                   0x00008000   Lc  Abs   --   De 
    721  ROM_SIZE                   0x00008000   Lc  Abs   --   De 
    722  SRF_PRESENT                0x00008000   Lc  Abs   --   De 
    723  SYSRAM_SIZE                0x00008000   Lc  Abs   --   De 
    724  DTCM_SIZE                  0x00010000   Lc  Abs   --   De 
    725  PKT_MC_PL                  0x00020000   Lc  Abs   --   De 
    726  PKT_PL                     0x00020000   Lc  Abs   --   De 
    727  PLL_260                    0x0007011a   Lc  Abs   --   De 
    728  PLL_300                    0x0007011e   Lc  Abs   --   De 
    729  PLL_330                    0x00070121   Lc  Abs   --   De 
    730  PLL_400                    0x00070128   Lc  Abs   --   De 
    731  DTCM_BASE                  0x00400000   Lc  Abs   --   De 
    732  PKT_P2P                    0x00400000   Lc  Abs   --   De 
    733  DTCM_TOP                   0x00410000   Lc  Abs   --   De 
    734  PKT_P2P_PL                 0x00420000   Lc  Abs   --   De 
    735  PKT_NN                     0x00800000   Lc  Abs   --   De 
    736  PKT_NN_PL                  0x00820000   Lc  Abs   --   De 
    737  PKT_NND                    0x00a00000   Lc  Abs   --   De 
    738  PKT_FR                     0x00c00000   Lc  Abs   --   De 
    739  PKT_FR_PL                  0x00c20000   Lc  Abs   --   De 
    740  P2P_INIT                   0x00db6db6   Lc  Abs   --   De 
    741  MC_RAM_MASK                0x00ffffff   Lc  Abs   --   De 
    742  SDRAM_SIZE                 0x08000000   Lc  Abs   --   De 
    743  CC_BASE_UNBUF              0x10000000   Lc  Abs   --   De 
    744  TIMER_BASE_UNBUF           0x11000000   Lc  Abs   --   De 
    745  WD_CODE                    0x1acce551   Lc  Abs   --   De 
    746  VIC_BASE_UNBUF             0x1f000000   Lc  Abs   --   De 
    747  CC_BASE                    0x20000000   Lc  Abs   --   De 
    748  CC_BASE_BUF                0x20000000   Lc  Abs   --   De 
    749  SDRAM_HERE                 0x20000000   Lc  Abs   --   De 
    750  TIMER1_BASE                0x21000000   Lc  Abs   --   De 
    751  TIMER_BASE                 0x21000000   Lc  Abs   --   De 
    752  TIMER_BASE_BUF             0x21000000   Lc  Abs   --   De 
    753  TIMER2_BASE                0x21000020   Lc  Abs   --   De 
    754  VIC_BASE                   0x2f000000   Lc  Abs   --   De 
    755  VIC_BASE_BUF               0x2f000000   Lc  Abs   --   De 
    756  DMA_BASE_UNBUF             0x30000000   Lc  Abs   --   De 
    757  DMA_BASE                   0x40000000   Lc  Abs   --   De 
    758  DMA_BASE_BUF               0x40000000   Lc  Abs   --   De 
    759  SDRAM_DPD                  0x40000000   Lc  Abs   --   De 
    760  CHIP_ID_CODE               0x59111012   Lc  Abs   --   De 
    761  SC_CODE                    0x5ec00000   Lc  Abs   --   De 
    762  SDRAM_BASE                 0x60000000   Lc  Abs   --   De 
    763  SDRAM_BASE_BUF             0x60000000   Lc  Abs   --   De 
    764  SDRAM_TOP                  0x68000000   Lc  Abs   --   De 
    765  SDRAM_BASE_UNBUF           0x70000000   Lc  Abs   --   De 
    766  BIT_31                     0x80000000   Lc  Abs   --   De 
    767  SDRAM_TQ                   0x80000000   Lc  Abs   --   De 
    768  PLL_CLK_SEL                0x809488a5   Lc  Abs   --   De 
    769  DEAD_WORD                  0xdeaddead   Lc  Abs   --   De 
    770  PL340_BASE                 0xe0000000   Lc  Abs   --   De 
    771  PL340_BASE_BUF             0xe0000000   Lc  Abs   --   De 
    772  RTR_BASE                   0xe1000000   Lc  Abs   --   De 
    773  RTR_BASE_BUF               0xe1000000   Lc  Abs   --   De 
    774  RTR_MCRAM_BASE             0xe1004000   Lc  Abs   --   De 
    775  RTR_MCRAM_TOP              0xe1005000   Lc  Abs   --   De 
    776  RTR_MCKEY_BASE             0xe1008000   Lc  Abs   --   De 
    777  RTR_MCKEY_TOP              0xe1009000   Lc  Abs   --   De 
    778  RTR_MCMASK_BASE            0xe100c000   Lc  Abs   --   De 
    779  RTR_MCMASK_TOP             0xe100d000   Lc  Abs   --   De 
    780  RTR_P2P_BASE               0xe1010000   Lc  Abs   --   De 
    781  RTR_P2P_TOP                0xe1018000   Lc  Abs   --   De 
    782  SYSCTL_BASE                0xe2000000   Lc  Abs   --   De 
    783  SYSCTL_BASE_BUF            0xe2000000   Lc  Abs   --   De 
    784  WDOG_BASE                  0xe3000000   Lc  Abs   --   De 
    785  WDOG_BASE_BUF              0xe3000000   Lc  Abs   --   De 
    786  ETH_BASE                   0xe4000000   Lc  Abs   --   De 
    787  ETH_BASE_BUF               0xe4000000   Lc  Abs   --   De 
    788  ETH_TX_BASE                0xe4000000   Lc  Abs   --   De 
    789  ETH_TX_TOP                 0xe4000600   Lc  Abs   --   De 
    790  ETH_RX_BASE                0xe4004000   Lc  Abs   --   De 
    791  ETH_RX_TOP                 0xe4004c00   Lc  Abs   --   De 
    792  ETH_RX_DESC_RAM            0xe4008000   Lc  Abs   --   De 
    793  ETH_REGS                   0xe400c000   Lc  Abs   --   De 
    794  SYSRAM_BASE                0xe5000000   Lc  Abs   --   De 
    795  SYSRAM_BASE_BUF            0xe5000000   Lc  Abs   --   De 
    796  SYS_USER_BASE              0xe5000100   Lc  Abs   --   De 
    797  SV_VCPU                    0xe5007000   Lc  Abs   --   De 
    798  SYS_USER_TOP               0xe5007000   Lc  Abs   --   De 
    799  SV_SPARE                   0xe5007900   Lc  Abs   --   De 
    800  SV_RANDOM                  0xe5007ea0   Lc  Abs   --   De 
    801  RST_BLOCK_BASE             0xe5007ee0   Lc  Abs   --   De 
    802  SV_VECTORS                 0xe5007ee0   Lc  Abs   --   De 
    803  SV_IBASE                   0xe5007f00   Lc  Abs   --   De 
    804  SV_SV                      0xe5007f00   Lc  Abs   --   De 
    805  STATUS_MAP_BASE            0xe5007f80   Lc  Abs   --   De 
    806  SV_UBASE                   0xe5007f80   Lc  Abs   --   De 
    807  SROM_FLAG_BASE             0xe5007fe0   Lc  Abs   --   De 
    808  SV_SROM                    0xe5007fe0   Lc  Abs   --   De 
    809  SYSRAM_TOP                 0xe5008000   Lc  Abs   --   De 
    810  PL340_BASE_UNBUF           0xf0000000   Lc  Abs   --   De 
    811  RTR_BASE_UNBUF             0xf1000000   Lc  Abs   --   De 
    812  SYSCTL_BASE_UNBUF          0xf2000000   Lc  Abs   --   De 
    813  WDOG_BASE_UNBUF            0xf3000000   Lc  Abs   --   De 
    814  ETH_BASE_UNBUF             0xf4000000   Lc  Abs   --   De 
    815  SYSRAM_BASE_UNBUF          0xf5000000   Lc  Abs   --   De 
    816  ROM_BASE                   0xf6000000   Lc  Abs   --   De 
    817  ROM_TOP                    0xf6008000   Lc  Abs   --   De 
    818  spin1_api.c                0x00000000   Lc  Abs  File  De 
    819  i.barrier_setup            0x00001354   Lc    1  Sect  De   0x144
    820  barrier_setup              0x00001355   Lc    1  Code  De   0x134
    821  i.barrier_wait             0x00001498   Lc    1  Sect  De   0x284
    822  barrier_wait               0x00001499   Lc    1  Code  De   0x150
    823  i.clean_up                 0x000017fc   Lc    1  Sect  De   0x5c
    824  i.configure_vic            0x00001858   Lc    1  Sect  De   0xa8
    825  configure_vic              0x00001859   Lc    1  Code  De   0x72
    826  i.dispatch                 0x00001900   Lc    1  Sect  De   0x80
    827  dispatch                   0x00001901   Lc    1  Code  De   0x76
    828  i.report_warns             0x00001fa4   Lc    1  Sect  De   0xd4
    829  i.sark_config              0x000022e4   Lc    1  Sect  De   0x8
    830  i.sark_post_main           0x00002680   Lc    1  Sect  De   0x28
    831  i.sark_pre_main            0x000026a8   Lc    1  Sect  De   0x110
    832  i.schedule_sysmode         0x00002940   Lc    1  Sect  De   0x7c
    833  i.send_mc_packet_fulfil    0x000029bc   Lc    1  Sect  De   0xe
    834  i.spin1_callback_on        0x00002a7c   Lc    1  Sect  De   0x80
    835  i.spin1_delay_us           0x00002afc   Lc    1  Sect  De   0x8
    836  i.spin1_get_chip_id        0x00002b04   Lc    1  Sect  De   0xc
    837  i.spin1_get_core_id        0x00002b10   Lc    1  Sect  De   0xc
    838  i.spin1_kill               0x00002b24   Lc    1  Sect  De   0x24
    839  i.spin1_malloc             0x00002b48   Lc    1  Sect  De   0xa
    840  i.spin1_memcpy             0x00002b52   Lc    1  Sect  De   0x10
    841  i.spin1_schedule_callback  0x00002b6c   Lc    1  Sect  De   0x74
    842  i.spin1_send_mc_packet     0x00002be0   Lc    1  Sect  De   0x100
    843  i.spin1_set_core_map       0x00002ce0   Lc    1  Sect  De   0x8c
    844  i.spin1_set_timer_tick     0x00002d6c   Lc    1  Sect  De   0xc
    845  i.spin1_start              0x00002d78   Lc    1  Sect  De   0xc4
    846  i.spin1_stop               0x00002e44   Lc    1  Sect  De   0x1c
    847  .bss                       0x004002cc   Lc    3  Sect  De   0x584
    848  task_queue                 0x004004dc   Lc    3  Data  De   0x320
    849  .data                      0x004000b0   Lc    2  Sect  De   0x60
    850  rootChip                   0x004000b2   Lc    2  Data  De   0x1
    851  rootAddr                   0x004000b4   Lc    2  Data  De   0x2
    852  my_chip                    0x004000b8   Lc    2  Data  De   0x4
    853  run                        0x004000bc   Lc    2  Data  De   0x4
    854  timer_tick                 0x004000c4   Lc    2  Data  De   0x4
    855  nchips                     0x004000c8   Lc    2  Data  De   0x4
    856  ncores                     0x004000cc   Lc    2  Data  De   0x4
    857  my_ncores                  0x004000d0   Lc    2  Data  De   0x4
    858  dma_id                     0x004000e4   Lc    2  Data  De   0x4
    859  warnings                   0x00400100   Lc    2  Data  De   0x4
    860  fullq                      0x00400104   Lc    2  Data  De   0x4
    861  pfull                      0x00400108   Lc    2  Data  De   0x4
    862  dfull                      0x0040010c   Lc    2  Data  De   0x4
    863  spin1_isr.c                0x00000000   Lc  Abs  File  De 
    864  i.barrier_packet_handler   0x000012b0   Lc    1  Sect  De   0xa4
    865  i.cc_rx_ready_fiqsr        0x0000171c   Lc    1  Sect  De   0x28
    866  i.cc_rx_ready_isr          0x00001744   Lc    1  Sect  De   0x3c
    867  i.cc_tx_empty_isr          0x00001780   Lc    1  Sect  De   0x7c
    868  i.dma_done_fiqsr           0x00001980   Lc    1  Sect  De   0x7c
    869  i.dma_done_isr             0x000019fc   Lc    1  Sect  De   0x90
    870  i.soft_int_fiqsr           0x000029cc   Lc    1  Sect  De   0x50
    871  i.soft_int_isr             0x00002a1c   Lc    1  Sect  De   0x60
    872  i.timer1_fiqsr             0x00002e60   Lc    1  Sect  De   0x44
    873  i.timer1_isr               0x00002ea4   Lc    1  Sect  De   0x54
    874  dc.s                       0x00000000   Lc  Abs  File  De 
    875  BuildAttributes$$THM_ISAv2$ARM_ISAv5$E$P$S$PE$A:L22$X:L11$S22$IEEE1$IW$USESV6$~STKCKD$USESV7$~SHL$OSPACE$ROPI$EBA8$STANDARDLIB$REQ8$PRES8$EABIv2
                                    0x00000000   Gb  Abs   --   Hi 
    876  Image$$ITCM$$RO$$Base      0x00000000   Gb    1   --   Hi 
    877  cpu_reset                  0x00000000   Gb    1  Code  Hi   0x4
    878  vic_error                  0x00000104   Gb    1  Code  Hi   0x4
    879  Image$$DTCM$$RW$$Length    0x00000110   Gb  Abs   --   Hi 
    880  rt_error                   0x00000128   Gb    1  Code  Hi   0x4
    881  cpu_shutdown               0x00000168   Gb    1  Code  Hi   0x10
    882  cpu_sleep                  0x00000178   Gb    1  Code  Hi   0x8
    883  init                       0x0000018c   Gb    1  Code  Hi   0x15c
    884  done                       0x000002e8   Gb    1  Code  Hi   0x24c
    885  timeout                    0x00000534   Gb    1  Code  Hi   0x18
    886  c_main                     0x0000054c   Gb    1  Code  Hi   0xbc
    887  w_init                     0x0000067c   Gb    1  Code  Hi   0x230
    888  Image$$DTCM$$ZI$$Length    0x00000740   Gb  Abs   --   Hi 
    889  Image$$STACK$$ZI$$Length   0x00000800   Gb  Abs   --   Hi 
    890  w_backpropPacket           0x00000900   Gb    1  Code  Hi   0x80
    891  w_forwardPacket            0x00000980   Gb    1  Code  Hi   0x84
    892  w_receivePacket            0x00000a04   Gb    1  Code  Hi   0x5c
    893  w_update_weights           0x00000a94   Gb    1  Code  Hi   0xac
    894  w_advance_example          0x00000b40   Gb    1  Code  Hi   0xe8
    895  w_switch_to_bp             0x00000c28   Gb    1  Code  Hi   0x10
    896  wf_advance_event           0x00000c38   Gb    1  Code  Hi   0x9c
    897  wf_advance_tick            0x00000cd4   Gb    1  Code  Hi   0x44
    898  wf_process                 0x00000d18   Gb    1  Code  Hi   0xe0
    899  w_switch_to_fw             0x00000df8   Gb    1  Code  Hi   0x10
    900  w_weight_deltas            0x00000e08   Gb    1  Code  Hi   0xbc
    901  wb_advance_tick            0x00000ec4   Gb    1  Code  Hi   0x74
    902  wb_process                 0x00000f38   Gb    1  Code  Hi   0xd4
    903  sark_aplx                  0x00001071   Gb    1  Code  Hi   0x58
    904  sark_delay_us              0x000010c9   Gb    1  Code  Hi   0xe
    905  sark_div10                 0x000010dc   Gb    1  Code  Hi   0x30
    906  cpu_init_mode              0x0000110c   Gb    1  Code  Hi   0x18
    907  cpu_int_disable            0x00001124   Gb    1  Code  Hi   0x10
    908  spin1_int_disable          0x00001124   Gb    1  Code  Hi 
    909  cpu_int_restore            0x00001134   Gb    1  Code  Hi   0x8
    910  spin1_mode_restore         0x00001134   Gb    1  Code  Hi 
    911  cpu_irq_disable            0x0000113c   Gb    1  Code  Hi   0x10
    912  spin1_irq_disable          0x0000113c   Gb    1  Code  Hi 
    913  cpu_irq_enable             0x0000114c   Gb    1  Code  Hi   0x10
    914  spin1_irq_enable           0x0000114c   Gb    1  Code  Hi 
    915  sark_lock_get              0x0000115c   Gb    1  Code  Hi   0x24
    916  sark_lock_free             0x00001180   Gb    1  Code  Hi   0x14
    917  sark_int_han               0x00001194   Gb    1  Code  Hi   0x30
    918  null_int_han               0x000011c4   Gb    1  Code  Hi   0x4
    919  schedule                   0x000011c8   Gb    1  Code  Hi   0x2c
    920  sark_str_cpy               0x000011f4   Gb    1  Code  Hi   0x14
    921  cpu_wfi                    0x00001208   Gb    1  Code  Hi   0x8
    922  spin1_wfi                  0x00001208   Gb    1  Code  Hi 
    923  sark_msg_cpy               0x00001210   Gb    1  Code  Hi   0x10
    924  sark_word_cpy              0x00001220   Gb    1  Code  Hi   0x54
    925  sark_word_set              0x00001274   Gb    1  Code  Hi   0x24
    926  __ARM_common_switch8       0x00001298   Gb    1  Code  Hi   0x18
    927  barrier_packet_handler     0x000012b0   Gb    1  Code  Hi   0x88
    928  cc_rx_ready_fiqsr          0x0000171c   Gb    1  Code  Hi   0x24
    929  cc_rx_ready_isr            0x00001744   Gb    1  Code  Hi   0x38
    930  cc_tx_empty_isr            0x00001780   Gb    1  Code  Hi   0x78
    931  clean_up                   0x000017fd   Gb    1  Code  Hi   0x48
    932  dma_done_fiqsr             0x00001980   Gb    1  Code  Hi   0x74
    933  dma_done_isr               0x000019fc   Gb    1  Code  Hi   0x88
    934  event_alloc                0x00001a8d   Gb    1  Code  Hi   0x3a
    935  event_pause                0x00001acd   Gb    1  Code  Hi   0x28
    936  event_stop                 0x00001afd   Gb    1  Code  Hi   0x12
    937  $Ven$AT$I$$io_printf       0x00001b6c   Gb    1  Code  Hi   0x8
    938  io_printf                  0x00001b75   Gb    1  Code  Hi   0x1f4
    939  io_put_char                0x00001d71   Gb    1  Code  Hi   0xd4
    940  report_warns               0x00001fa5   Gb    1  Code  Hi   0x48
    941  rte_handler                0x00002079   Wk    1  Code  Hi   0x8
    942  rtr_alloc                  0x00002085   Gb    1  Code  Hi   0x86
    943  rtr_mc_set                 0x00002111   Gb    1  Code  Hi   0x56
    944  rtr_p2p_get                0x00002179   Gb    1  Code  Hi   0x26
    945  sark_alloc                 0x000021a5   Gb    1  Code  Hi   0x12
    946  sark_block_init            0x000021bd   Gb    1  Code  Hi   0x12
    947  sark_cmd_fill              0x000021cf   Gb    1  Code  Hi   0xe
    948  sark_cmd_read              0x000021dd   Gb    1  Code  Hi   0x5e
    949  sark_cmd_ver               0x0000223d   Gb    1  Code  Hi   0x2c
    950  sark_cmd_write             0x00002289   Gb    1  Code  Hi   0x5c
    951  sark_config                0x000022e5   Gb    1  Code  Hi   0x8
    952  sark_heap_init             0x000022ed   Gb    1  Code  Hi   0x18
    953  sark_init                  0x00002305   Wk    1  Code  Hi   0xc4
    954  sark_int                   0x000023e1   Gb    1  Code  Hi   0x150
    955  sark_led_set               0x00002541   Gb    1  Code  Hi   0x4c
    956  sark_msg_free              0x00002595   Gb    1  Code  Hi   0x1c
    957  sark_msg_get               0x000025b5   Gb    1  Code  Hi   0x2e
    958  sark_msg_send              0x000025e9   Gb    1  Code  Hi   0x8a
    959  sark_post_main             0x00002681   Gb    1  Code  Hi   0x1c
    960  sark_pre_main              0x000026a9   Gb    1  Code  Hi   0xae
    961  sark_shmsg_free            0x000027b9   Gb    1  Code  Hi   0x20
    962  sark_shmsg_get             0x000027dd   Gb    1  Code  Hi   0x30
    963  sark_vic_init              0x00002811   Gb    1  Code  Hi   0x30
    964  sark_vic_set               0x00002851   Gb    1  Code  Hi   0x24
    965  sark_xalloc                0x0000287d   Gb    1  Code  Hi   0xc0
    966  schedule_sysmode           0x00002941   Gb    1  Code  Hi   0x6e
    967  send_mc_packet_fulfil      0x000029bd   Gb    1  Code  Hi   0xe
    968  soft_int_fiqsr             0x000029cc   Gb    1  Code  Hi   0x40
    969  soft_int_isr               0x00002a1c   Gb    1  Code  Hi   0x50
    970  spin1_callback_on          0x00002a7d   Gb    1  Code  Hi   0x44
    971  spin1_delay_us             0x00002afd   Gb    1  Code  Hi   0x8
    972  spin1_get_chip_id          0x00002b05   Gb    1  Code  Hi   0x6
    973  spin1_get_core_id          0x00002b11   Gb    1  Code  Hi   0x6
    974  $Ven$AT$I$$spin1_kill      0x00002b1c   Gb    1  Code  Hi   0x8
    975  spin1_kill                 0x00002b25   Gb    1  Code  Hi   0x1c
    976  spin1_malloc               0x00002b49   Gb    1  Code  Hi   0xa
    977  spin1_memcpy               0x00002b53   Gb    1  Code  Hi   0x10
    978  $Ven$AT$I$$spin1_schedule_callback
                                    0x00002b64   Gb    1  Code  Hi   0x8
    979  spin1_schedule_callback    0x00002b6d   Gb    1  Code  Hi   0x6c
    980  spin1_send_mc_packet       0x00002be1   Gb    1  Code  Hi   0xf6
    981  spin1_set_core_map         0x00002ce1   Gb    1  Code  Hi   0x82
    982  spin1_set_timer_tick       0x00002d6d   Gb    1  Code  Hi   0x6
    983  spin1_start                0x00002d79   Gb    1  Code  Hi   0xa6
    984  $Ven$AT$I$$spin1_stop      0x00002e3c   Gb    1  Code  Hi   0x8
    985  spin1_stop                 0x00002e45   Gb    1  Code  Hi   0x12
    986  timer1_fiqsr               0x00002e60   Gb    1  Code  Hi   0x3c
    987  timer1_isr                 0x00002ea4   Gb    1  Code  Hi   0x4c
    988  v2p_mask                   0x00002ef9   Gb    1  Code  Hi   0x26
    989  build_date                 0x000030e0   Gb    1  Data  Hi   0x4
    990  build_name                 0x000030e4   Gb    1  Data  Hi   0x7
    991  Image$$ITCM$$RO$$Length    0x00003104   Gb  Abs   --   Hi 
    992  Image$$DTCM$$RW$$Base      0x00400000   Gb    2   --   Hi 
    993  phase                      0x00400000   Gb    2  Data  Hi   0x1
    994  chipID                     0x00400004   Gb    2  Data  Hi   0x4
    995  coreID                     0x00400008   Gb    2  Data  Hi   0x4
    996  coreIndex                  0x0040000c   Gb    2  Data  Hi   0x4
    997  stpKey                     0x00400010   Gb    2  Data  Hi   0x4
    998  coreType                   0x00400014   Gb    2  Data  Hi   0x4
    999  epoch                      0x00400018   Gb    2  Data  Hi   0x4
    1000  example                    0x0040001c   Gb    2  Data  Hi   0x4
    1001  evt                        0x00400020   Gb    2  Data  Hi   0x4
    1002  num_events                 0x00400024   Gb    2  Data  Hi   0x4
    1003  event_idx                  0x00400028   Gb    2  Data  Hi   0x4
    1004  tick                       0x0040002c   Gb    2  Data  Hi   0x4
    1005  cm                         0x00400030   Gb    2  Data  Hi   0x4
    1006  ct                         0x00400034   Gb    2  Data  Hi   0x4
    1007  dt                         0x00400038   Gb    2  Data  Hi   0x4
    1008  rt                         0x0040003c   Gb    2  Data  Hi   0x4
    1009  es                         0x00400040   Gb    2  Data  Hi   0x4
    1010  ex                         0x00400044   Gb    2  Data  Hi   0x4
    1011  ev                         0x00400048   Gb    2  Data  Hi   0x4
    1012  fwdKey                     0x0040004c   Gb    2  Data  Hi   0x4
    1013  bkpKey                     0x00400050   Gb    2  Data  Hi   0x4
    1014  num_ticks                  0x00400054   Gb    2  Data  Hi   0x4
    1015  tick_stop                  0x00400058   Gb    2  Data  Hi   0x1
    1016  wt                         0x0040005c   Gb    2  Data  Hi   0x4
    1017  w_weights                  0x00400060   Gb    2  Data  Hi   0x4
    1018  w_wchanges                 0x00400064   Gb    2  Data  Hi   0x4
    1019  w_outputs                  0x00400068   Gb    2  Data  Hi   0x8
    1020  w_deltas                   0x00400070   Gb    2  Data  Hi   0x8
    1021  wf_procs                   0x00400078   Gb    2  Data  Hi   0x4
    1022  wf_comms                   0x0040007c   Gb    2  Data  Hi   0x4
    1023  wf_arrived                 0x00400080   Gb    2  Data  Hi   0x4
    1024  wf_thrds_done              0x00400084   Gb    2  Data  Hi   0x4
    1025  wf_sync_key                0x00400088   Gb    2  Data  Hi   0x4
    1026  wb_procs                   0x0040008c   Gb    2  Data  Hi   0x4
    1027  wb_comms                   0x00400090   Gb    2  Data  Hi   0x4
    1028  wb_arrived                 0x00400094   Gb    2  Data  Hi   0x4
    1029  wb_comms_done              0x00400098   Gb    2  Data  Hi   0x1
    1030  wb_procs_done              0x00400099   Gb    2  Data  Hi   0x1
    1031  wb_sync_key                0x0040009c   Gb    2  Data  Hi   0x4
    1032  user_pending               0x004000b0   Gb    2  Data  Hi   0x1
    1033  leadAp                     0x004000b1   Gb    2  Data  Hi   0x1
    1034  ticks                      0x004000c0   Gb    2  Data  Hi   0x4
    1035  exit_val                   0x004000d4   Gb    2  Data  Hi   0x4
    1036  barrier_go                 0x004000d8   Gb    2  Data  Hi   0x4
    1037  barrier_rdygo              0x004000dc   Gb    2  Data  Hi   0x4
    1038  fiq_event                  0x004000e0   Gb    2  Data  Hi   0x4
    1039  barrier_rdy1_cnt           0x004000e8   Gb    2  Data  Hi   0x4
    1040  barrier_rdy2_cnt           0x004000ec   Gb    2  Data  Hi   0x4
    1041  def_fiq_isr                0x004000f0   Gb    2  Data  Hi   0x4
    1042  rtr_entry                  0x004000f4   Gb    2  Data  Hi   0x4
    1043  user_arg0                  0x004000f8   Gb    2  Data  Hi   0x4
    1044  user_arg1                  0x004000fc   Gb    2  Data  Hi   0x4
    1045  Image$$DTCM$$ZI$$Base      0x00400110   Gb    3   --   Hi 
    1046  mlpc                       0x00400110   Gb    3  Data  Hi   0x24
    1047  ccfg                       0x00400134   Gb    3  Data  Hi   0x70
    1048  wcfg                       0x004001a4   Gb    3  Data  Hi   0x2c
    1049  sark                       0x004001f8   Gb    3  Data  Hi   0x38
    1050  event                      0x00400230   Gb    3  Data  Hi   0x9c
    1051  dma_queue                  0x004002cc   Gb    3  Data  Hi   0x148
    1052  tx_packet_queue            0x00400414   Gb    3  Data  Hi   0xc8
    1053  callback                   0x004007fc   Gb    3  Data  Hi   0x28
    1054  diagnostics                0x00400824   Gb    3  Data  Hi   0x2c
    1055  Image$$DTCM$$ZI$$Limit     0x00400850   Gb    3   --   Hi 
    1056  Image$$STACK$$ZI$$Limit    0x00410000   Gb    4   --   Hi 


** Section #7 '.strtab' (SHT_STRTAB)
    Size   : 10116 bytes


** Section #8 '.note' (SHT_NOTE)
    Size   : 32 bytes (alignment 4)


** Section #9 '.comment' (SHT_PROGBITS)
    Size   : 1156 bytes


** Section #10 '.shstrtab' (SHT_STRTAB)
    Size   : 72 bytes


