
========================================================================

** ELF Header Information

    File Name: threshold.elf

    Machine class: ELFCLASS32 (32-bit)
    Data encoding: ELFDATA2LSB (Little endian)
    Header version: EV_CURRENT (Current version)
    Operating System ABI: none
    ABI Version: 0
    File Type: ET_EXEC (Executable) (2)
    Machine: EM_ARM (ARM)

    Image Entry point: 0x00000000
    Flags: EF_ARM_HASENTRY (0x05000002)

    ARM ELF revision: 5 (ABI version 2)

    Built with
    ARM C/C++ Compiler, RVCT4.0 [Build 400]
    ARM Assembler, RVCT4.0 [Build 400]
    ARM Linker, RVCT4.0 [Build 400] 

    Header size: 52 bytes (0x34)
    Program header entry size: 32 bytes (0x20)
    Section header entry size: 40 bytes (0x28)

    Program header entries: 1
    Section header entries: 11

    Program header offset: 57128 (0x0000df28)
    Section header offset: 57160 (0x0000df48)

    Section header string table index: 10

========================================================================

** Program header #0 (PT_LOAD) [PF_X + PF_W + PF_R + PF_ARM_ENTRY]
    Size : 25296 bytes (21000 bytes in file)
    Virtual address: 0x00000000 (Alignment 4)


========================================================================

** Section #1 'ITCM' (SHT_PROGBITS) [SHF_ALLOC + SHF_EXECINSTR]
    Size   : 20648 bytes (alignment 4)
    Address: 0x00000000

    $a
    _alib_reset
    Image$$ITCM$$RO$$Base
    cpu_reset
        0x00000000:    e59ff018    ....    LDR      pc,reset_vec ; [0x20] = 0x78
    undef
        0x00000004:    e59ff018    ....    LDR      pc,undef_vec ; [0x24] = 0xd4
        0x00000008:    e59ff018    ....    LDR      pc,svc_vec ; [0x28] = 0xdc
        0x0000000c:    e59ff018    ....    LDR      pc,pabt_vec ; [0x2c] = 0xe4
        0x00000010:    e59ff018    ....    LDR      pc,dabt_vec ; [0x30] = 0xec
        0x00000014:    ebfffffa    ....    BL       undef ; 0x4
        0x00000018:    e51ffff0    ....    LDR      pc,[pc,#-4080] ; [0xfffff030]
        0x0000001c:    e59ff018    ....    LDR      pc,fiq_vec ; [0x3c] = 0xfc
    $d
    reset_vec
        0x00000020:    00000078    x...    DCD    120
    undef_vec
        0x00000024:    000000d4    ....    DCD    212
    svc_vec
        0x00000028:    000000dc    ....    DCD    220
    pabt_vec
        0x0000002c:    000000e4    ....    DCD    228
    dabt_vec
        0x00000030:    000000ec    ....    DCD    236
    aplx_proc
        0x00000034:    000027b5    .'..    DCD    10165
    irq_vec
        0x00000038:    000000f4    ....    DCD    244
    fiq_vec
        0x0000003c:    000000fc    ....    DCD    252
    svc_stack
        0x00000040:    0060        `.      DCW    96
    irq_stack
        0x00000042:    0040        @.      DCW    64
    fiq_stack
        0x00000044:    0040        @.      DCW    64
    sys_stack
        0x00000046:    0120         .      DCW    288
    code_top
        0x00000048:    000050a8    .P..    DCD    20648
    heap_base
        0x0000004c:    00400a28    (.@.    DCD    4196904
    stack_top
        0x00000050:    00410000    ..A.    DCD    4259840
    stack_size
        0x00000054:    0800        ..      DCW    2048
    num_msgs
        0x00000056:    04          .       DCB    4
    sark_slot
        0x00000057:    0f          .       DCB    15
    num_events
        0x00000058:    10          .       DCB    16
    app_id
        0x00000059:    00          .       DCB    0
    __PAD1
        0x0000005a:    0000        ..      DCW    0
    stack_fill
        0x0000005c:    deaddead    ....    DCD    3735936685
    event_vec
        0x00000060:    00000000    ....    DCD    0
        0x00000064:    00000000    ....    DCD    0
        0x00000068:    00000000    ....    DCD    0
        0x0000006c:    00000000    ....    DCD    0
        0x00000070:    00000000    ....    DCD    0
        0x00000074:    00000000    ....    DCD    0
    $a
    reset_entry
        0x00000078:    e24f1060    `.O.    ADR      r1,{pc}-0x58 ; 0x20
        0x0000007c:    e5c10039    9...    STRB     r0,[r1,#0x39]
        0x00000080:    e28f0044    D...    ADR      r0,{pc}+0x4c ; 0xcc
        0x00000084:    e5810000    ....    STR      r0,[r1,#0]
        0x00000088:    e59f00f0    ....    LDR      r0,[pc,#240] ; [0x180] = 0x1f7e
        0x0000008c:    ee010f10    ....    MCR      p15,#0x0,r0,c1,c0,#0
        0x00000090:    e321f0d3    ..!.    MSR      CPSR_c,#0xd3
        0x00000094:    e3a0d902    ....    MOV      sp,#0x8000
        0x00000098:    fa000e62    b...    BLX      sark_config ; 0x3a28
        0x0000009c:    e51fd054    T...    LDR      sp,stack_top ; [0x50] = 0x410000
        0x000000a0:    e15f25b4    .%_.    LDRH     r2,stack_size ; [0x54] = 0x800
        0x000000a4:    e51f1050    P...    LDR      r1,stack_fill ; [0x5c] = 0xdeaddead
        0x000000a8:    e04d0002    ..M.    SUB      r0,sp,r2
        0x000000ac:    eb000a41    A...    BL       sark_word_set ; 0x29b8
        0x000000b0:    e1a0000d    ....    MOV      r0,sp
        0x000000b4:    fa000e63    c...    BLX      sark_init ; 0x3a48
        0x000000b8:    e121f000    ..!.    MSR      CPSR_c,r0
        0x000000bc:    fa000f4a    J...    BLX      sark_pre_main ; 0x3dec
        0x000000c0:    eb000176    v...    BL       c_main ; 0x6a0
        0x000000c4:    fa000f3e    >...    BLX      sark_post_main ; 0x3dc4
        0x000000c8:    eb00002a    *...    BL       cpu_sleep ; 0x178
    reset_error
        0x000000cc:    e3a00001    ....    MOV      r0,#1
        0x000000d0:    ea000014    ....    B        rt_error ; 0x128
    undef_error
        0x000000d4:    e3a0b002    ....    MOV      r11,#2
        0x000000d8:    ea00000c    ....    B        exc_error ; 0x110
    svc_error
        0x000000dc:    e3a0b003    ....    MOV      r11,#3
        0x000000e0:    ea00000a    ....    B        exc_error ; 0x110
    pabt_error
        0x000000e4:    e3a0b004    ....    MOV      r11,#4
        0x000000e8:    ea000008    ....    B        exc_error ; 0x110
    dabt_error
        0x000000ec:    e3a0b005    ....    MOV      r11,#5
        0x000000f0:    ea000006    ....    B        exc_error ; 0x110
    irq_error
        0x000000f4:    e3a0b006    ....    MOV      r11,#6
        0x000000f8:    ea000004    ....    B        exc_error ; 0x110
    fiq_error
        0x000000fc:    e3a0b007    ....    MOV      r11,#7
        0x00000100:    ea000002    ....    B        exc_error ; 0x110
    vic_error
        0x00000104:    e3a0b008    ....    MOV      r11,#8
        0x00000108:    e3a0042f    /...    MOV      r0,#0x2f000000
        0x0000010c:    e5900030    0...    LDR      r0,[r0,#0x30]
    exc_error
        0x00000110:    e1a0a00e    ....    MOV      r10,lr
        0x00000114:    e14f8000    ..O.    MRS      r8,SPSR
        0x00000118:    e38890c0    ....    ORR      r9,r8,#0xc0
        0x0000011c:    e3c99020     ...    BIC      r9,r9,#0x20
        0x00000120:    e12ff009    ../.    MSR      CPSR_cxsf,r9
        0x00000124:    ea000002    ....    B        cc_error ; 0x134
    rt_error
        0x00000128:    e1a0b000    ....    MOV      r11,r0
        0x0000012c:    e10f8000    ....    MRS      r8,APSR ; formerly CPSR
        0x00000130:    e1a0a00e    ....    MOV      r10,lr
    cc_error
        0x00000134:    e59fc048    H...    LDR      r12,[pc,#72] ; [0x184] = 0x4003d0
        0x00000138:    e59cc000    ....    LDR      r12,[r12,#0]
        0x0000013c:    e3a09080    ....    MOV      r9,#0x80
        0x00000140:    e59fe040    @...    LDR      lr,[pc,#64] ; [0x188] = 0xe5007000
        0x00000144:    e02ee99c    ....    MLA      lr,r12,r9,lr
        0x00000148:    e1a0900d    ....    MOV      r9,sp
        0x0000014c:    e88e07ff    ....    STM      lr,{r0-r10}
        0x00000150:    e5ceb02c    ,...    STRB     r11,[lr,#0x2c]
        0x00000154:    e3a08002    ....    MOV      r8,#2
        0x00000158:    e5ce802e    ....    STRB     r8,[lr,#0x2e]
        0x0000015c:    e1a0000b    ....    MOV      r0,r11
        0x00000160:    e321f0d3    ..!.    MSR      CPSR_c,#0xd3
        0x00000164:    fa000d94    ....    BLX      rte_handler ; 0x37bc
    cpu_shutdown
        0x00000168:    e321f0d3    ..!.    MSR      CPSR_c,#0xd3
        0x0000016c:    e3a0042f    /...    MOV      r0,#0x2f000000
        0x00000170:    e3e01000    ....    MVN      r1,#0
        0x00000174:    e5801014    ....    STR      r1,[r0,#0x14]
    cpu_sleep
        0x00000178:    ee070f90    ....    MCR      p15,#0x0,r0,c7,c0,#4
        0x0000017c:    eafffffd    ....    B        cpu_sleep ; 0x178
    $d
        0x00000180:    00001f7e    ~...    DCD    8062
        0x00000184:    004003d0    ..@.    DCD    4195280
        0x00000188:    e5007000    .p..    DCD    3842011136
    $a
    .text
    init
        0x0000018c:    e92d41f0    .A-.    PUSH     {r4-r8,lr}
        0x00000190:    e3a02024    $ ..    MOV      r2,#0x24
        0x00000194:    e3a01206    ....    MOV      r1,#0x60000000
        0x00000198:    e59f0280    ....    LDR      r0,[pc,#640] ; [0x420] = 0x400160
        0x0000019c:    fb00103c    <...    BLX      spin1_memcpy ; 0x4296
        0x000001a0:    e59f0278    x...    LDR      r0,[pc,#632] ; [0x420] = 0x400160
        0x000001a4:    e59f5278    xR..    LDR      r5,[pc,#632] ; [0x424] = 0x400000
        0x000001a8:    e590101c    ....    LDR      r1,[r0,#0x1c]
        0x000001ac:    e3a02070    p ..    MOV      r2,#0x70
        0x000001b0:    e2800024    $...    ADD      r0,r0,#0x24
        0x000001b4:    e585106c    l...    STR      r1,[r5,#0x6c]
        0x000001b8:    fb001035    5...    BLX      spin1_memcpy ; 0x4296
        0x000001bc:    e59f8264    d...    LDR      r8,[pc,#612] ; [0x428] = 0x400184
        0x000001c0:    e598001c    ....    LDR      r0,[r8,#0x1c]
        0x000001c4:    e5850068    h...    STR      r0,[r5,#0x68]
        0x000001c8:    e5951044    D...    LDR      r1,[r5,#0x44]
        0x000001cc:    e0880101    ....    ADD      r0,r8,r1,LSL #2
        0x000001d0:    e5900020     ...    LDR      r0,[r0,#0x20]
        0x000001d4:    e5850070    p...    STR      r0,[r5,#0x70]
        0x000001d8:    e5980064    d...    LDR      r0,[r8,#0x64]
        0x000001dc:    e5850078    x...    STR      r0,[r5,#0x78]
        0x000001e0:    e5980068    h...    LDR      r0,[r8,#0x68]
        0x000001e4:    e585007c    |...    STR      r0,[r5,#0x7c]
        0x000001e8:    e598206c    l ..    LDR      r2,[r8,#0x6c]
        0x000001ec:    e5852080    . ..    STR      r2,[r5,#0x80]
        0x000001f0:    e3a02c3a    :,..    MOV      r2,#0x3a00
        0x000001f4:    e5852048    H ..    STR      r2,[r5,#0x48]
        0x000001f8:    e3a02000    . ..    MOV      r2,#0
        0x000001fc:    e5852050    P ..    STR      r2,[r5,#0x50]
        0x00000200:    e5852054    T ..    STR      r2,[r5,#0x54]
        0x00000204:    e5852058    X ..    STR      r2,[r5,#0x58]
        0x00000208:    e5c52000    . ..    STRB     r2,[r5,#0]
        0x0000020c:    e5902004    . ..    LDR      r2,[r0,#4]
        0x00000210:    e585205c    \ ..    STR      r2,[r5,#0x5c]
        0x00000214:    e5900008    ....    LDR      r0,[r0,#8]
        0x00000218:    e5850060    `...    STR      r0,[r5,#0x60]
        0x0000021c:    e7d80001    ....    LDRB     r0,[r8,r1]
        0x00000220:    e585004c    L...    STR      r0,[r5,#0x4c]
        0x00000224:    e3500002    ..P.    CMP      r0,#2
        0x00000228:    13a00005    ....    MOVNE    r0,#5
        0x0000022c:    18bd81f0    ....    POPNE    {r4-r8,pc}
        0x00000230:    e3a00000    ....    MOV      r0,#0
        0x00000234:    e28f1e1f    ....    ADR      r1,{pc}+0x1f8 ; 0x42c
        0x00000238:    fa000c1e    ....    BLX      io_printf ; 0x32b8
        0x0000023c:    e59f01f4    ....    LDR      r0,[pc,#500] ; [0x438] = 0x4001f4
        0x00000240:    e5951070    p...    LDR      r1,[r5,#0x70]
        0x00000244:    e3a02078    x ..    MOV      r2,#0x78
        0x00000248:    fb001011    ....    BLX      spin1_memcpy ; 0x4296
        0x0000024c:    e59f01e4    ....    LDR      r0,[pc,#484] ; [0x438] = 0x4001f4
        0x00000250:    e5901030    0...    LDR      r1,[r0,#0x30]
        0x00000254:    e5851084    ....    STR      r1,[r5,#0x84]
        0x00000258:    e5900034    4...    LDR      r0,[r0,#0x34]
        0x0000025c:    e5850088    ....    STR      r0,[r5,#0x88]
        0x00000260:    eb000188    ....    BL       t_init ; 0x888
        0x00000264:    e1a07000    .p..    MOV      r7,r0
        0x00000268:    e59f01cc    ....    LDR      r0,[pc,#460] ; [0x43c] = 0x400101
        0x0000026c:    e5d00000    ....    LDRB     r0,[r0,#0]
        0x00000270:    e3500000    ..P.    CMP      r0,#0
        0x00000274:    0a00001e    ....    BEQ      0x2f4 ; init + 360
        0x00000278:    e3570000    ..W.    CMP      r7,#0
        0x0000027c:    1a00001c    ....    BNE      0x2f4 ; init + 360
        0x00000280:    e5980060    `...    LDR      r0,[r8,#0x60]
        0x00000284:    e5982014    . ..    LDR      r2,[r8,#0x14]
        0x00000288:    e5903000    .0..    LDR      r3,[r0,#0]
        0x0000028c:    e1530002    ..S.    CMP      r3,r2
        0x00000290:    128f1f6a    j...    ADRNE    r1,{pc}+0x1b0 ; 0x440
        0x00000294:    13a00000    ....    MOVNE    r0,#0
        0x00000298:    1b000c04    ....    BLNE     $Ven$AT$I$$io_printf ; 0x32b0
        0x0000029c:    e5980060    `...    LDR      r0,[r8,#0x60]
        0x000002a0:    e3a01000    ....    MOV      r1,#0
        0x000002a4:    e2800004    ....    ADD      r0,r0,#4
        0x000002a8:    e5850074    t...    STR      r0,[r5,#0x74]
        0x000002ac:    e5980014    ....    LDR      r0,[r8,#0x14]
        0x000002b0:    fa000d44    D...    BLX      rtr_alloc ; 0x37c8
        0x000002b4:    e1b06000    .`..    MOVS     r6,r0
        0x000002b8:    03a00009    ....    MOVEQ    r0,#9
        0x000002bc:    0bffff99    ....    BLEQ     rt_error ; 0x128
        0x000002c0:    e3a04000    .@..    MOV      r4,#0
        0x000002c4:    ea000007    ....    B        0x2e8 ; init + 348
        0x000002c8:    e595c074    t...    LDR      r12,[r5,#0x74]
        0x000002cc:    e0841084    ....    ADD      r1,r4,r4,LSL #1
        0x000002d0:    e08c0101    ....    ADD      r0,r12,r1,LSL #2
        0x000002d4:    e990000c    ....    LDMIB    r0,{r2,r3}
        0x000002d8:    e0860004    ....    ADD      r0,r6,r4
        0x000002dc:    e79c1101    ....    LDR      r1,[r12,r1,LSL #2]
        0x000002e0:    fa000d5b    [...    BLX      rtr_mc_set ; 0x3854
        0x000002e4:    e2844001    .@..    ADD      r4,r4,#1
        0x000002e8:    e5980014    ....    LDR      r0,[r8,#0x14]
        0x000002ec:    e1500004    ..P.    CMP      r0,r4
        0x000002f0:    8afffff4    ....    BHI      0x2c8 ; init + 316
        0x000002f4:    e1a00007    ....    MOV      r0,r7
        0x000002f8:    e8bd81f0    ....    POP      {r4-r8,pc}
    done
        0x000002fc:    e92d407c    |@-.    PUSH     {r2-r6,lr}
        0x00000300:    e1a05000    .P..    MOV      r5,r0
        0x00000304:    e59f4118    .A..    LDR      r4,[pc,#280] ; [0x424] = 0x400000
        0x00000308:    e594003c    <...    LDR      r0,[r4,#0x3c]
        0x0000030c:    e5941040    @...    LDR      r1,[r4,#0x40]
        0x00000310:    e1a00900    ....    LSL      r0,r0,#18
        0x00000314:    e1800801    ....    ORR      r0,r0,r1,LSL #16
        0x00000318:    fa000fc8    ....    BLX      spin1_delay_us ; 0x4240
        0x0000031c:    e3550003    ..U.    CMP      r5,#3
        0x00000320:    0a00001e    ....    BEQ      0x3a0 ; done + 164
        0x00000324:    ca00000c    ....    BGT      0x35c ; done + 96
        0x00000328:    e3550000    ..U.    CMP      r5,#0
        0x0000032c:    028f1f52    R...    ADREQ    r1,{pc}+0x150 ; 0x47c
        0x00000330:    03a00000    ....    MOVEQ    r0,#0
        0x00000334:    0a000011    ....    BEQ      0x380 ; done + 132
        0x00000338:    e3550001    ..U.    CMP      r5,#1
        0x0000033c:    0a000011    ....    BEQ      0x388 ; done + 140
        0x00000340:    e3550002    ..U.    CMP      r5,#2
        0x00000344:    1a0000a0    ....    BNE      0x5cc ; done + 720
        0x00000348:    e28f1f4f    O...    ADR      r1,{pc}+0x144 ; 0x48c
        0x0000034c:    e3a00000    ....    MOV      r0,#0
        0x00000350:    fa000bd8    ....    BLX      io_printf ; 0x32b8
        0x00000354:    e28f1e13    ....    ADR      r1,{pc}+0x138 ; 0x48c
        0x00000358:    ea00000e    ....    B        0x398 ; done + 156
        0x0000035c:    e3550005    ..U.    CMP      r5,#5
        0x00000360:    0a00007b    {...    BEQ      0x554 ; done + 600
        0x00000364:    e3550064    d.U.    CMP      r5,#0x64
        0x00000368:    1a000097    ....    BNE      0x5cc ; done + 720
        0x0000036c:    e28f1f4b    K...    ADR      r1,{pc}+0x134 ; 0x4a0
        0x00000370:    e3a00000    ....    MOV      r0,#0
        0x00000374:    fa000bcf    ....    BLX      io_printf ; 0x32b8
        0x00000378:    e28f1e12    ....    ADR      r1,{pc}+0x128 ; 0x4a0
        0x0000037c:    ea000005    ....    B        0x398 ; done + 156
        0x00000380:    fa000bcc    ....    BLX      io_printf ; 0x32b8
        0x00000384:    ea000090    ....    B        0x5cc ; done + 720
        0x00000388:    e28f1f49    I...    ADR      r1,{pc}+0x12c ; 0x4b4
        0x0000038c:    e3a00000    ....    MOV      r0,#0
        0x00000390:    fa000bc8    ....    BLX      io_printf ; 0x32b8
        0x00000394:    e28f1f46    F...    ADR      r1,{pc}+0x120 ; 0x4b4
        0x00000398:    e3a00002    ....    MOV      r0,#2
        0x0000039c:    eafffff7    ....    B        0x380 ; done + 132
        0x000003a0:    e28f1f47    G...    ADR      r1,{pc}+0x124 ; 0x4c4
        0x000003a4:    e3a00000    ....    MOV      r0,#0
        0x000003a8:    fa000bc2    ....    BLX      io_printf ; 0x32b8
        0x000003ac:    e5943064    d0..    LDR      r3,[r4,#0x64]
        0x000003b0:    e5d42000    . ..    LDRB     r2,[r4,#0]
        0x000003b4:    e1cd20f0    . ..    STRD     r2,r3,[sp,#0]
        0x000003b8:    e5942050    P ..    LDR      r2,[r4,#0x50]
        0x000003bc:    e5943054    T0..    LDR      r3,[r4,#0x54]
        0x000003c0:    e28f1f4a    J...    ADR      r1,{pc}+0x130 ; 0x4f0
        0x000003c4:    e3a00002    ....    MOV      r0,#2
        0x000003c8:    fa000bba    ....    BLX      io_printf ; 0x32b8
        0x000003cc:    e59f5064    dP..    LDR      r5,[pc,#100] ; [0x438] = 0x4001f4
        0x000003d0:    e28f1d05    ....    ADR      r1,{pc}+0x148 ; 0x518
        0x000003d4:    e5953018    .0..    LDR      r3,[r5,#0x18]
        0x000003d8:    e58d3000    .0..    STR      r3,[sp,#0]
        0x000003dc:    e594308c    .0..    LDR      r3,[r4,#0x8c]
        0x000003e0:    e5d42001    . ..    LDRB     r2,[r4,#1]
        0x000003e4:    e3a00002    ....    MOV      r0,#2
        0x000003e8:    fa000bb2    ....    BLX      io_printf ; 0x32b8
        0x000003ec:    e5953020     0..    LDR      r3,[r5,#0x20]
        0x000003f0:    e58d3000    .0..    STR      r3,[sp,#0]
        0x000003f4:    e5943090    .0..    LDR      r3,[r4,#0x90]
        0x000003f8:    e5d42002    . ..    LDRB     r2,[r4,#2]
        0x000003fc:    e28f1f4d    M...    ADR      r1,{pc}+0x13c ; 0x538
        0x00000400:    e3a00002    ....    MOV      r0,#2
        0x00000404:    fa000bab    ....    BLX      io_printf ; 0x32b8
        0x00000408:    e5d50028    (...    LDRB     r0,[r5,#0x28]
        0x0000040c:    e3500000    ..P.    CMP      r0,#0
        0x00000410:    15941064    d...    LDRNE    r1,[r4,#0x64]
        0x00000414:    13a00000    ....    MOVNE    r0,#0
        0x00000418:    1b000285    ....    BLNE     send_outputs_to_host ; 0xe34
        0x0000041c:    ea00006a    j...    B        0x5cc ; done + 720
    $d
        0x00000420:    00400160    `.@.    DCD    4194656
        0x00000424:    00400000    ..@.    DCD    4194304
        0x00000428:    00400184    ..@.    DCD    4194692
        0x0000042c:    65726874    thre    DCD    1701996660
        0x00000430:    6c6f6873    shol    DCD    1819240563
        0x00000434:    00000a64    d...    DCD    2660
        0x00000438:    004001f4    ..@.    DCD    4194804
        0x0000043c:    00400101    ..@.    DCD    4194561
        0x00000440:    6e726157    Warn    DCD    1852989783
        0x00000444:    3a676e69    ing:    DCD    979857001
        0x00000448:    756f7220     rou    DCD    1970237984
        0x0000044c:    676e6974    ting    DCD    1735289204
        0x00000450:    62617420     tab    DCD    1650553888
        0x00000454:    7320656c    le s    DCD    1931502956
        0x00000458:    20657a69    ize     DCD    543521385
        0x0000045c:    6d73696d    mism    DCD    1836280173
        0x00000460:    68637461    atch    DCD    1751348321
        0x00000464:    63202d20     - c    DCD    1663053088
        0x00000468:    3a676663    cfg:    DCD    979854947
        0x0000046c:    2c642520     %d,    DCD    744760608
        0x00000470:    3a747220     rt:    DCD    980709920
        0x00000474:    0a642520     %d.    DCD    174335264
        0x00000478:    00000000    ....    DCD    0
        0x0000047c:    756d6973    simu    DCD    1970104691
        0x00000480:    6974616c    lati    DCD    1769234796
        0x00000484:    4f206e6f    on O    DCD    1327525487
        0x00000488:    00000a4b    K...    DCD    2635
        0x0000048c:    6b636170    pack    DCD    1801675120
        0x00000490:    71207465    et q    DCD    1897952357
        0x00000494:    65756575    ueue    DCD    1702192501
        0x00000498:    6c756620     ful    DCD    1819633184
        0x0000049c:    00000a6c    l...    DCD    2668
        0x000004a0:    6e6b6e75    unkn    DCD    1852534389
        0x000004a4:    206e776f    own     DCD    544110447
        0x000004a8:    65726f63    core    DCD    1701998435
        0x000004ac:    70797420     typ    DCD    1887007776
        0x000004b0:    00000a65    e...    DCD    2661
        0x000004b4:    6c6c616d    mall    DCD    1819042157
        0x000004b8:    6620636f    oc f    DCD    1713398639
        0x000004bc:    656c6961    aile    DCD    1701603681
        0x000004c0:    00000a64    d...    DCD    2660
        0x000004c4:    656d6974    time    DCD    1701669236
        0x000004c8:    2074756f    out     DCD    544503151
        0x000004cc:    6573202d    - se    DCD    1702043693
        0x000004d0:    2f492065    e I/    DCD    793321573
        0x000004d4:    7562204f    O bu    DCD    1969365071
        0x000004d8:    72656666    ffer    DCD    1919247974
        0x000004dc:    726f6620     for    DCD    1919903264
        0x000004e0:    676f6c20     log    DCD    1735355424
        0x000004e4:    61202d20     - a    DCD    1629498656
        0x000004e8:    74726f62    bort    DCD    1953656674
        0x000004ec:    00000a21    !...    DCD    2593
        0x000004f0:    656d6974    time    DCD    1701669236
        0x000004f4:    2074756f    out     DCD    544503151
        0x000004f8:    253a6828    (h:%    DCD    624584744
        0x000004fc:    3a652075    u e:    DCD    979705973
        0x00000500:    70207525    %u p    DCD    1881175333
        0x00000504:    2075253a    :%u     DCD    544548154
        0x00000508:    75253a74    t:%u    DCD    1965374068
        0x0000050c:    202d2029    ) -     DCD    539828265
        0x00000510:    726f6261    abor    DCD    1919902305
        0x00000514:    000a2174    t!..    DCD    663924
        0x00000518:    63617428    (tac    DCD    1667331112
        0x0000051c:    65766974    tive    DCD    1702259060
        0x00000520:    2075253a    :%u     DCD    544548154
        0x00000524:    3a617420     ta:    DCD    979465248
        0x00000528:    30257830    0x%0    DCD    807761968
        0x0000052c:    302f7838    8x/0    DCD    808417336
        0x00000530:    38302578    x%08    DCD    942679416
        0x00000534:    000a2978    x)..    DCD    665976
        0x00000538:    64737428    (tsd    DCD    1685287976
        0x0000053c:    2075253a    :%u     DCD    544548154
        0x00000540:    3a617374    tsa:    DCD    979465076
        0x00000544:    30257830    0x%0    DCD    807761968
        0x00000548:    302f7838    8x/0    DCD    808417336
        0x0000054c:    38302578    x%08    DCD    942679416
        0x00000550:    000a2978    x)..    DCD    665976
    $a
        0x00000554:    e594304c    L0..    LDR      r3,[r4,#0x4c]
        0x00000558:    e3530005    ..S.    CMP      r3,#5
        0x0000055c:    308ff103    ...0    ADDCC    pc,pc,r3,LSL #2
        0x00000560:    ea000015    ....    B        0x5bc ; done + 704
        0x00000564:    ea000003    ....    B        0x578 ; done + 636
        0x00000568:    ea000005    ....    B        0x584 ; done + 648
        0x0000056c:    ea00000a    ....    B        0x59c ; done + 672
        0x00000570:    ea000006    ....    B        0x590 ; done + 660
        0x00000574:    ea00000b    ....    B        0x5a8 ; done + 684
        0x00000578:    e59f11dc    ....    LDR      r1,[pc,#476] ; [0x75c] = 0x46c4
        0x0000057c:    e3a02054    T ..    MOV      r2,#0x54
        0x00000580:    ea00000a    ....    B        0x5b0 ; done + 692
        0x00000584:    e59f11d4    ....    LDR      r1,[pc,#468] ; [0x760] = 0x4708
        0x00000588:    e3a02054    T ..    MOV      r2,#0x54
        0x0000058c:    ea000007    ....    B        0x5b0 ; done + 692
        0x00000590:    e59f11cc    ....    LDR      r1,[pc,#460] ; [0x764] = 0x474c
        0x00000594:    e3a02054    T ..    MOV      r2,#0x54
        0x00000598:    ea000004    ....    B        0x5b0 ; done + 692
        0x0000059c:    e59f11c4    ....    LDR      r1,[pc,#452] ; [0x768] = 0x4790
        0x000005a0:    e3a02054    T ..    MOV      r2,#0x54
        0x000005a4:    ea000001    ....    B        0x5b0 ; done + 692
        0x000005a8:    e59f11bc    ....    LDR      r1,[pc,#444] ; [0x76c] = 0x47d4
        0x000005ac:    e3a02054    T ..    MOV      r2,#0x54
        0x000005b0:    e3a00000    ....    MOV      r0,#0
        0x000005b4:    fa000b3f    ?...    BLX      io_printf ; 0x32b8
        0x000005b8:    ea000003    ....    B        0x5cc ; done + 720
        0x000005bc:    e59f11ac    ....    LDR      r1,[pc,#428] ; [0x770] = 0x4824
        0x000005c0:    e3a02054    T ..    MOV      r2,#0x54
        0x000005c4:    e3a00000    ....    MOV      r0,#0
        0x000005c8:    fa000b3a    :...    BLX      io_printf ; 0x32b8
        0x000005cc:    e5942038    8 ..    LDR      r2,[r4,#0x38]
        0x000005d0:    e28f1f67    g...    ADR      r1,{pc}+0x1a4 ; 0x774
        0x000005d4:    e3a00002    ....    MOV      r0,#2
        0x000005d8:    fa000b36    6...    BLX      io_printf ; 0x32b8
        0x000005dc:    e5943018    .0..    LDR      r3,[r4,#0x18]
        0x000005e0:    e58d3000    .0..    STR      r3,[sp,#0]
        0x000005e4:    e5942010    . ..    LDR      r2,[r4,#0x10]
        0x000005e8:    e5943014    .0..    LDR      r3,[r4,#0x14]
        0x000005ec:    e28f1e19    ....    ADR      r1,{pc}+0x198 ; 0x784
        0x000005f0:    e3a00002    ....    MOV      r0,#2
        0x000005f4:    fa000b2f    /...    BLX      io_printf ; 0x32b8
        0x000005f8:    e594300c    .0..    LDR      r3,[r4,#0xc]
        0x000005fc:    e58d3000    .0..    STR      r3,[sp,#0]
        0x00000600:    e994000c    ....    LDMIB    r4,{r2,r3}
        0x00000604:    e28f1e19    ....    ADR      r1,{pc}+0x198 ; 0x79c
        0x00000608:    e3a00002    ....    MOV      r0,#2
        0x0000060c:    fa000b29    )...    BLX      io_printf ; 0x32b8
        0x00000610:    e594202c    , ..    LDR      r2,[r4,#0x2c]
        0x00000614:    e28f1f66    f...    ADR      r1,{pc}+0x1a0 ; 0x7b4
        0x00000618:    e3a00002    ....    MOV      r0,#2
        0x0000061c:    fa000b25    %...    BLX      io_printf ; 0x32b8
        0x00000620:    e5942030    0 ..    LDR      r2,[r4,#0x30]
        0x00000624:    e28f1f66    f...    ADR      r1,{pc}+0x1a0 ; 0x7c4
        0x00000628:    e3a00002    ....    MOV      r0,#2
        0x0000062c:    fa000b21    !...    BLX      io_printf ; 0x32b8
        0x00000630:    e5942034    4 ..    LDR      r2,[r4,#0x34]
        0x00000634:    e28f1f66    f...    ADR      r1,{pc}+0x1a0 ; 0x7d4
        0x00000638:    e3a00002    ....    MOV      r0,#2
        0x0000063c:    fa000b1d    ....    BLX      io_printf ; 0x32b8
        0x00000640:    e5942020      ..    LDR      r2,[r4,#0x20]
        0x00000644:    e28f1f66    f...    ADR      r1,{pc}+0x1a0 ; 0x7e4
        0x00000648:    e3a00002    ....    MOV      r0,#2
        0x0000064c:    fa000b19    ....    BLX      io_printf ; 0x32b8
        0x00000650:    e594201c    . ..    LDR      r2,[r4,#0x1c]
        0x00000654:    e28f1f66    f...    ADR      r1,{pc}+0x1a0 ; 0x7f4
        0x00000658:    e3a00002    ....    MOV      r0,#2
        0x0000065c:    fa000b15    ....    BLX      io_printf ; 0x32b8
        0x00000660:    e5942028    ( ..    LDR      r2,[r4,#0x28]
        0x00000664:    e28f1f66    f...    ADR      r1,{pc}+0x1a0 ; 0x804
        0x00000668:    e3a00002    ....    MOV      r0,#2
        0x0000066c:    fa000b11    ....    BLX      io_printf ; 0x32b8
        0x00000670:    e5942024    $ ..    LDR      r2,[r4,#0x24]
        0x00000674:    e28dd008    ....    ADD      sp,sp,#8
        0x00000678:    e8bd4070    p@..    POP      {r4-r6,lr}
        0x0000067c:    e28f1e19    ....    ADR      r1,{pc}+0x198 ; 0x814
        0x00000680:    e3a00002    ....    MOV      r0,#2
        0x00000684:    ea000b09    ....    B        $Ven$AT$I$$io_printf ; 0x32b0
    timeout
        0x00000688:    e51f1270    p...    LDR      r1,[pc,#-624] ; [0x420] = 0x400160
        0x0000068c:    e5911018    ....    LDR      r1,[r1,#0x18]
        0x00000690:    e1510000    ..Q.    CMP      r1,r0
        0x00000694:    112fff1e    ../.    BXNE     lr
        0x00000698:    e3a00003    ....    MOV      r0,#3
        0x0000069c:    ea000eef    ....    B        $Ven$AT$I$$spin1_kill ; 0x4260
    c_main
        0x000006a0:    e28f1f5f    _...    ADR      r1,{pc}+0x184 ; 0x824
        0x000006a4:    e3a00000    ....    MOV      r0,#0
        0x000006a8:    e92d4010    .@-.    PUSH     {r4,lr}
        0x000006ac:    fa000b01    ....    BLX      io_printf ; 0x32b8
        0x000006b0:    fa000ee4    ....    BLX      spin1_get_chip_id ; 0x4248
        0x000006b4:    e51f4298    .B..    LDR      r4,[pc,#-664] ; [0x424] = 0x400000
        0x000006b8:    e584003c    <...    STR      r0,[r4,#0x3c]
        0x000006bc:    fa000ee4    ....    BLX      spin1_get_core_id ; 0x4254
        0x000006c0:    e5840040    @...    STR      r0,[r4,#0x40]
        0x000006c4:    e2400001    ..@.    SUB      r0,r0,#1
        0x000006c8:    e5840044    D...    STR      r0,[r4,#0x44]
        0x000006cc:    ebfffeae    ....    BL       init ; 0x18c
        0x000006d0:    e3500000    ..P.    CMP      r0,#0
        0x000006d4:    18bd4010    .@..    POPNE    {r4,lr}
        0x000006d8:    1affff07    ....    BNE      done ; 0x2fc
        0x000006dc:    e51f02c4    ....    LDR      r0,[pc,#-708] ; [0x420] = 0x400160
        0x000006e0:    e5941068    h...    LDR      r1,[r4,#0x68]
        0x000006e4:    e5900014    ....    LDR      r0,[r0,#0x14]
        0x000006e8:    fa000f4f    O...    BLX      spin1_set_core_map ; 0x442c
        0x000006ec:    e59f0138    8...    LDR      r0,[pc,#312] ; [0x82c] = 0xf4240
        0x000006f0:    fa000f70    p...    BLX      spin1_set_timer_tick ; 0x44b8
        0x000006f4:    e3a02000    . ..    MOV      r2,#0
        0x000006f8:    e24f1078    x.O.    ADR      r1,{pc}-0x70 ; 0x688
        0x000006fc:    e3a00002    ....    MOV      r0,#2
        0x00000700:    fa000eae    ....    BLX      spin1_callback_on ; 0x41c0
        0x00000704:    e59f1124    $...    LDR      r1,[pc,#292] ; [0x830] = 0xfbc
        0x00000708:    e3e02000    . ..    MVN      r2,#0
        0x0000070c:    e3a00000    ....    MOV      r0,#0
        0x00000710:    fa000eaa    ....    BLX      spin1_callback_on ; 0x41c0
        0x00000714:    e28f1f46    F...    ADR      r1,{pc}+0x120 ; 0x834
        0x00000718:    e3a00000    ....    MOV      r0,#0
        0x0000071c:    fa000ae5    ....    BLX      io_printf ; 0x32b8
        0x00000720:    e28f1f4a    J...    ADR      r1,{pc}+0x130 ; 0x850
        0x00000724:    e3a00000    ....    MOV      r0,#0
        0x00000728:    fa000ae2    ....    BLX      io_printf ; 0x32b8
        0x0000072c:    fa000f64    d...    BLX      spin1_start ; 0x44c4
        0x00000730:    ebfffef1    ....    BL       done ; 0x2fc
        0x00000734:    e28f1f4b    K...    ADR      r1,{pc}+0x134 ; 0x868
        0x00000738:    e3a00000    ....    MOV      r0,#0
        0x0000073c:    fa000add    ....    BLX      io_printf ; 0x32b8
        0x00000740:    e28f10ec    ....    ADR      r1,{pc}+0xf4 ; 0x834
        0x00000744:    e3a00000    ....    MOV      r0,#0
        0x00000748:    fa000ada    ....    BLX      io_printf ; 0x32b8
        0x0000074c:    e8bd4010    .@..    POP      {r4,lr}
        0x00000750:    e28f1f4a    J...    ADR      r1,{pc}+0x130 ; 0x880
        0x00000754:    e3a00000    ....    MOV      r0,#0
        0x00000758:    ea000ad4    ....    B        $Ven$AT$I$$io_printf ; 0x32b0
    $d
        0x0000075c:    000046c4    .F..    DCD    18116
        0x00000760:    00004708    .G..    DCD    18184
        0x00000764:    0000474c    LG..    DCD    18252
        0x00000768:    00004790    .G..    DCD    18320
        0x0000076c:    000047d4    .G..    DCD    18388
        0x00000770:    00004824    $H..    DCD    18468
        0x00000774:    61746f74    tota    DCD    1635020660
        0x00000778:    6974206c    l ti    DCD    1769218156
        0x0000077c:    3a736b63    cks:    DCD    980642659
        0x00000780:    000a6425    %d..    DCD    680997
        0x00000784:    76636572    recv    DCD    1986225522
        0x00000788:    2064253a    :%d     DCD    543434042
        0x0000078c:    3a647766    fwd:    DCD    979662694
        0x00000790:    62206425    %d b    DCD    1646289957
        0x00000794:    253a706b    kp:%    DCD    624586859
        0x00000798:    00000a64    d...    DCD    2660
        0x0000079c:    746e6573    sent    DCD    1953391987
        0x000007a0:    2064253a    :%d     DCD    543434042
        0x000007a4:    3a647766    fwd:    DCD    979662694
        0x000007a8:    62206425    %d b    DCD    1646289957
        0x000007ac:    253a706b    kp:%    DCD    624586859
        0x000007b0:    00000a64    d...    DCD    2660
        0x000007b4:    6e6f7277    wron    DCD    1852797559
        0x000007b8:    68702067    g ph    DCD    1752178791
        0x000007bc:    3a657361    ase:    DCD    979727201
        0x000007c0:    000a6425    %d..    DCD    680997
        0x000007c4:    6e6f7277    wron    DCD    1852797559
        0x000007c8:    69742067    g ti    DCD    1769218151
        0x000007cc:    253a6b63    ck:%    DCD    624585571
        0x000007d0:    00000a64    d...    DCD    2660
        0x000007d4:    6e6f7277    wron    DCD    1852797559
        0x000007d8:    74622067    g bt    DCD    1952587879
        0x000007dc:    3a6b6369    ick:    DCD    980116329
        0x000007e0:    000a6425    %d..    DCD    680997
        0x000007e4:    636e7973    sync    DCD    1668184435
        0x000007e8:    63657220     rec    DCD    1667592736
        0x000007ec:    64253a76    v:%d    DCD    1680161398
        0x000007f0:    0000000a    ....    DCD    10
        0x000007f4:    636e7973    sync    DCD    1668184435
        0x000007f8:    6e657320     sen    DCD    1852142368
        0x000007fc:    64253a74    t:%d    DCD    1680161396
        0x00000800:    0000000a    ....    DCD    10
        0x00000804:    706f7473    stop    DCD    1886352499
        0x00000808:    63657220     rec    DCD    1667592736
        0x0000080c:    64253a76    v:%d    DCD    1680161398
        0x00000810:    0000000a    ....    DCD    10
        0x00000814:    706f7473    stop    DCD    1886352499
        0x00000818:    6e657320     sen    DCD    1852142368
        0x0000081c:    64253a74    t:%d    DCD    1680161396
        0x00000820:    0000000a    ....    DCD    10
        0x00000824:    6d203e3e    >> m    DCD    1830829630
        0x00000828:    000a706c    lp..    DCD    684140
        0x0000082c:    000f4240    @B..    DCD    1000000
        0x00000830:    00000fbc    ....    DCD    4028
        0x00000834:    2d2d2d2d    ----    DCD    757935405
        0x00000838:    2d2d2d2d    ----    DCD    757935405
        0x0000083c:    2d2d2d2d    ----    DCD    757935405
        0x00000840:    2d2d2d2d    ----    DCD    757935405
        0x00000844:    2d2d2d2d    ----    DCD    757935405
        0x00000848:    0a2d2d2d    ---.    DCD    170732845
        0x0000084c:    00000000    ....    DCD    0
        0x00000850:    72617473    star    DCD    1918989427
        0x00000854:    676e6974    ting    DCD    1735289204
        0x00000858:    6d697320     sim    DCD    1835627296
        0x0000085c:    74616c75    ulat    DCD    1952541813
        0x00000860:    0a6e6f69    ion.    DCD    175009641
        0x00000864:    00000000    ....    DCD    0
        0x00000868:    706f7473    stop    DCD    1886352499
        0x0000086c:    676e6970    ping    DCD    1735289200
        0x00000870:    6d697320     sim    DCD    1835627296
        0x00000874:    74616c75    ulat    DCD    1952541813
        0x00000878:    0a6e6f69    ion.    DCD    175009641
        0x0000087c:    00000000    ....    DCD    0
        0x00000880:    6d203c3c    << m    DCD    1830829116
        0x00000884:    000a706c    lp..    DCD    684140
    $a
    .text
    t_init
        0x00000888:    e92d5ff0    ._-.    PUSH     {r4-r12,lr}
        0x0000088c:    e3a04000    .@..    MOV      r4,#0
        0x00000890:    e59f53b8    .S..    LDR      r5,[pc,#952] ; [0xc50] = 0x4001f4
        0x00000894:    e5950004    ....    LDR      r0,[r5,#4]
        0x00000898:    e1a00100    ....    LSL      r0,r0,#2
        0x0000089c:    fa000e7a    z...    BLX      spin1_malloc ; 0x428c
        0x000008a0:    e59f13ac    ....    LDR      r1,[pc,#940] ; [0xc54] = 0x4000b4
        0x000008a4:    e3500000    ..P.    CMP      r0,#0
        0x000008a8:    e5810000    ....    STR      r0,[r1,#0]
        0x000008ac:    0a000032    2...    BEQ      0x97c ; t_init + 244
        0x000008b0:    e5950004    ....    LDR      r0,[r5,#4]
        0x000008b4:    e1a00080    ....    LSL      r0,r0,#1
        0x000008b8:    fa000e73    s...    BLX      spin1_malloc ; 0x428c
        0x000008bc:    e59f1394    ....    LDR      r1,[pc,#916] ; [0xc58] = 0x4000b0
        0x000008c0:    e3500000    ..P.    CMP      r0,#0
        0x000008c4:    e5810000    ....    STR      r0,[r1,#0]
        0x000008c8:    0a00002b    +...    BEQ      0x97c ; t_init + 244
        0x000008cc:    e5950004    ....    LDR      r0,[r5,#4]
        0x000008d0:    e1a00180    ....    LSL      r0,r0,#3
        0x000008d4:    fa000e6c    l...    BLX      spin1_malloc ; 0x428c
        0x000008d8:    e59f137c    |...    LDR      r1,[pc,#892] ; [0xc5c] = 0x4000ec
        0x000008dc:    e3500000    ..P.    CMP      r0,#0
        0x000008e0:    e5810000    ....    STR      r0,[r1,#0]
        0x000008e4:    0a000024    $...    BEQ      0x97c ; t_init + 244
        0x000008e8:    e5950004    ....    LDR      r0,[r5,#4]
        0x000008ec:    e1a00100    ....    LSL      r0,r0,#2
        0x000008f0:    fa000e65    e...    BLX      spin1_malloc ; 0x428c
        0x000008f4:    e59f1364    d...    LDR      r1,[pc,#868] ; [0xc60] = 0x4000b8
        0x000008f8:    e3500000    ..P.    CMP      r0,#0
        0x000008fc:    e5810000    ....    STR      r0,[r1,#0]
        0x00000900:    0a00001d    ....    BEQ      0x97c ; t_init + 244
        0x00000904:    e59f3358    X3..    LDR      r3,[pc,#856] ; [0xc64] = 0x4000c0
        0x00000908:    e3a07000    .p..    MOV      r7,#0
        0x0000090c:    e5c37000    .p..    STRB     r7,[r3,#0]
        0x00000910:    e59f1350    P...    LDR      r1,[pc,#848] ; [0xc68] = 0x4670
        0x00000914:    e59f2350    P#..    LDR      r2,[pc,#848] ; [0xc6c] = 0x1f38
        0x00000918:    e5950044    D...    LDR      r0,[r5,#0x44]
        0x0000091c:    e3a06001    .`..    MOV      r6,#1
        0x00000920:    ea000005    ....    B        0x93c ; t_init + 180
        0x00000924:    e085c104    ....    ADD      r12,r5,r4,LSL #2
        0x00000928:    e59cc048    H...    LDR      r12,[r12,#0x48]
        0x0000092c:    e2844001    .@..    ADD      r4,r4,#1
        0x00000930:    e791c10c    ....    LDR      r12,[r1,r12,LSL #2]
        0x00000934:    e15c0002    ..\.    CMP      r12,r2
        0x00000938:    05c36000    .`..    STRBEQ   r6,[r3,#0]
        0x0000093c:    e1500004    ..P.    CMP      r0,r4
        0x00000940:    8afffff7    ....    BHI      0x924 ; t_init + 156
        0x00000944:    e3a00b02    ....    MOV      r0,#0x800
        0x00000948:    fa000e4f    O...    BLX      spin1_malloc ; 0x428c
        0x0000094c:    e59f831c    ....    LDR      r8,[pc,#796] ; [0xc70] = 0x40026c
        0x00000950:    e3500000    ..P.    CMP      r0,#0
        0x00000954:    e5880008    ....    STR      r0,[r8,#8]
        0x00000958:    0a000007    ....    BEQ      0x97c ; t_init + 244
        0x0000095c:    e3a00b02    ....    MOV      r0,#0x800
        0x00000960:    fa000e49    I...    BLX      spin1_malloc ; 0x428c
        0x00000964:    e59f1308    ....    LDR      r1,[pc,#776] ; [0xc74] = 0x400278
        0x00000968:    e3500000    ..P.    CMP      r0,#0
        0x0000096c:    159f9304    ....    LDRNE    r9,[pc,#772] ; [0xc78] = 0x4698
        0x00000970:    13a04000    .@..    MOVNE    r4,#0
        0x00000974:    e5810008    ....    STR      r0,[r1,#8]
        0x00000978:    1a00000a    ....    BNE      0x9a8 ; t_init + 288
        0x0000097c:    e3a00001    ....    MOV      r0,#1
        0x00000980:    e8bd9ff0    ....    POP      {r4-r12,pc}
        0x00000984:    e0850104    ....    ADD      r0,r5,r4,LSL #2
        0x00000988:    e5900048    H...    LDR      r0,[r0,#0x48]
        0x0000098c:    e7990100    ....    LDR      r0,[r9,r0,LSL #2]
        0x00000990:    e3500000    ..P.    CMP      r0,#0
        0x00000994:    0a000002    ....    BEQ      0x9a4 ; t_init + 284
        0x00000998:    e12fff30    0./.    BLX      r0
        0x0000099c:    e3500000    ..P.    CMP      r0,#0
        0x000009a0:    18bd9ff0    ....    POPNE    {r4-r12,pc}
        0x000009a4:    e2844001    .@..    ADD      r4,r4,#1
        0x000009a8:    e5950044    D...    LDR      r0,[r5,#0x44]
        0x000009ac:    e1500004    ..P.    CMP      r0,r4
        0x000009b0:    8afffff3    ....    BHI      0x984 ; t_init + 252
        0x000009b4:    e59f02c0    ....    LDR      r0,[pc,#704] ; [0xc7c] = 0x400064
        0x000009b8:    e59f42c4    .B..    LDR      r4,[pc,#708] ; [0xc84] = 0x400080
        0x000009bc:    e5806000    .`..    STR      r6,[r0,#0]
        0x000009c0:    e59f02b8    ....    LDR      r0,[pc,#696] ; [0xc80] = 0x4000a8
        0x000009c4:    e59f92bc    ....    LDR      r9,[pc,#700] ; [0xc88] = 0x400060
        0x000009c8:    e5806000    .`..    STR      r6,[r0,#0]
        0x000009cc:    e5d5006a    j...    LDRB     r0,[r5,#0x6a]
        0x000009d0:    e59f22b4    ."..    LDR      r2,[pc,#692] ; [0xc8c] = 0x400160
        0x000009d4:    e59f12b4    ....    LDR      r1,[pc,#692] ; [0xc90] = 0x400078
        0x000009d8:    e3500000    ..P.    CMP      r0,#0
        0x000009dc:    0a000014    ....    BEQ      0xa34 ; t_init + 428
        0x000009e0:    e599c000    ....    LDR      r12,[r9,#0]
        0x000009e4:    e5943000    .0..    LDR      r3,[r4,#0]
        0x000009e8:    e793e20c    ....    LDR      lr,[r3,r12,LSL #4]
        0x000009ec:    e592b00c    ....    LDR      r11,[r2,#0xc]
        0x000009f0:    e37e0801    ..~.    CMN      lr,#0x10000
        0x000009f4:    0591e000    ....    LDREQ    lr,[r1,#0]
        0x000009f8:    e59fa294    ....    LDR      r10,[pc,#660] ; [0xc94] = 0x4000a0
        0x000009fc:    059ee004    ....    LDREQ    lr,[lr,#4]
        0x00000a00:    e083320c    .2..    ADD      r3,r3,r12,LSL #4
        0x00000a04:    e00e0e9b    ....    MUL      lr,r11,lr
        0x00000a08:    e59fc288    ....    LDR      r12,[pc,#648] ; [0xc98] = 0x4000a4
        0x00000a0c:    e1a0e82e    ....    LSR      lr,lr,#16
        0x00000a10:    e58ae000    ....    STR      lr,[r10,#0]
        0x00000a14:    e5933004    .0..    LDR      r3,[r3,#4]
        0x00000a18:    e592e00c    ....    LDR      lr,[r2,#0xc]
        0x00000a1c:    e3730801    ..s.    CMN      r3,#0x10000
        0x00000a20:    05913000    .0..    LDREQ    r3,[r1,#0]
        0x00000a24:    05933008    .0..    LDREQ    r3,[r3,#8]
        0x00000a28:    e003039e    ....    MUL      r3,lr,r3
        0x00000a2c:    e1a03823    #8..    LSR      r3,r3,#16
        0x00000a30:    e58c3000    .0..    STR      r3,[r12,#0]
        0x00000a34:    e59f3260    `2..    LDR      r3,[pc,#608] ; [0xc9c] = 0x40008c
        0x00000a38:    e59fc264    d...    LDR      r12,[pc,#612] ; [0xca4] = 0x4000d0
        0x00000a3c:    e5837000    .p..    STR      r7,[r3,#0]
        0x00000a40:    e59f3258    X2..    LDR      r3,[pc,#600] ; [0xca0] = 0x4000cc
        0x00000a44:    e5836000    .`..    STR      r6,[r3,#0]
        0x00000a48:    e58c6000    .`..    STR      r6,[r12,#0]
        0x00000a4c:    e5d53000    .0..    LDRB     r3,[r5,#0]
        0x00000a50:    e3530000    ..S.    CMP      r3,#0
        0x00000a54:    0a000021    !...    BEQ      0xae0 ; t_init + 600
        0x00000a58:    e59fc248    H...    LDR      r12,[pc,#584] ; [0xca8] = 0x4000e0
        0x00000a5c:    e3e03000    .0..    MVN      r3,#0
        0x00000a60:    e58c3000    .0..    STR      r3,[r12,#0]
        0x00000a64:    e59fc240    @...    LDR      r12,[pc,#576] ; [0xcac] = 0x4000e4
        0x00000a68:    e58c3000    .0..    STR      r3,[r12,#0]
        0x00000a6c:    e59f323c    <2..    LDR      r3,[pc,#572] ; [0xcb0] = 0x4000e8
        0x00000a70:    e59fc240    @...    LDR      r12,[pc,#576] ; [0xcb8] = 0x4000d6
        0x00000a74:    e1c370b0    .p..    STRH     r7,[r3,#0]
        0x00000a78:    e59f3234    42..    LDR      r3,[pc,#564] ; [0xcb4] = 0x4000ea
        0x00000a7c:    e1c370b0    .p..    STRH     r7,[r3,#0]
        0x00000a80:    e5d5e069    i...    LDRB     lr,[r5,#0x69]
        0x00000a84:    e1a03005    .0..    MOV      r3,r5
        0x00000a88:    e35e0000    ..^.    CMP      lr,#0
        0x00000a8c:    05cc6000    .`..    STRBEQ   r6,[r12,#0]
        0x00000a90:    e59fe224    $...    LDR      lr,[pc,#548] ; [0xcbc] = 0x4000d7
        0x00000a94:    15cc7000    .p..    STRBNE   r7,[r12,#0]
        0x00000a98:    e5dcc000    ....    LDRB     r12,[r12,#0]
        0x00000a9c:    e5cec000    ....    STRB     r12,[lr,#0]
        0x00000aa0:    e59fc218    ....    LDR      r12,[pc,#536] ; [0xcc0] = 0x4000d4
        0x00000aa4:    e59fe21c    ....    LDR      lr,[pc,#540] ; [0xcc8] = 0x46ac
        0x00000aa8:    e5cc6000    .`..    STRB     r6,[r12,#0]
        0x00000aac:    e59fc210    ....    LDR      r12,[pc,#528] ; [0xcc4] = 0x4000d5
        0x00000ab0:    e3500000    ..P.    CMP      r0,#0
        0x00000ab4:    e5cc6000    .`..    STRB     r6,[r12,#0]
        0x00000ab8:    e5d3c068    h...    LDRB     r12,[r3,#0x68]
        0x00000abc:    e79ec10c    ....    LDR      r12,[lr,r12,LSL #2]
        0x00000ac0:    e59fe204    ....    LDR      lr,[pc,#516] ; [0xccc] = 0x4000d8
        0x00000ac4:    e58ec000    ....    STR      r12,[lr,#0]
        0x00000ac8:    e5930010    ....    LDR      r0,[r3,#0x10]
        0x00000acc:    e59fc1fc    ....    LDR      r12,[pc,#508] ; [0xcd0] = 0x4000dc
        0x00000ad0:    03a03c32    2<..    MOVEQ    r3,#0x3200
        0x00000ad4:    13a03c3a    :<..    MOVNE    r3,#0x3a00
        0x00000ad8:    e1830800    ....    ORR      r0,r3,r0,LSL #16
        0x00000adc:    e58c0000    ....    STR      r0,[r12,#0]
        0x00000ae0:    e59f01ec    ....    LDR      r0,[pc,#492] ; [0xcd4] = 0x400001
        0x00000ae4:    e5c07000    .p..    STRB     r7,[r0,#0]
        0x00000ae8:    e59f01e8    ....    LDR      r0,[pc,#488] ; [0xcd8] = 0x400090
        0x00000aec:    e5807000    .p..    STR      r7,[r0,#0]
        0x00000af0:    e59f01e4    ....    LDR      r0,[pc,#484] ; [0xcdc] = 0x400002
        0x00000af4:    e5c07000    .p..    STRB     r7,[r0,#0]
        0x00000af8:    e5887000    .p..    STR      r7,[r8,#0]
        0x00000afc:    e5887004    .p..    STR      r7,[r8,#4]
        0x00000b00:    e59f016c    l...    LDR      r0,[pc,#364] ; [0xc74] = 0x400278
        0x00000b04:    e5807000    .p..    STR      r7,[r0,#0]
        0x00000b08:    e5807004    .p..    STR      r7,[r0,#4]
        0x00000b0c:    e5d50028    (...    LDRB     r0,[r5,#0x28]
        0x00000b10:    e3500000    ..P.    CMP      r0,#0
        0x00000b14:    0a000027    '...    BEQ      0xbb8 ; t_init + 816
        0x00000b18:    e59f01c0    ....    LDR      r0,[pc,#448] ; [0xce0] = 0x400284
        0x00000b1c:    e3a030ff    .0..    MOV      r3,#0xff
        0x00000b20:    e5c06009    .`..    STRB     r6,[r0,#9]
        0x00000b24:    e5c0300a    .0..    STRB     r3,[r0,#0xa]
        0x00000b28:    e59f31b4    .1..    LDR      r3,[pc,#436] ; [0xce4] = 0xe5007f00
        0x00000b2c:    e1d3c0b4    ....    LDRH     r12,[r3,#4]
        0x00000b30:    e1c0c0bc    ....    STRH     r12,[r0,#0xc]
        0x00000b34:    e3a0c007    ....    MOV      r12,#7
        0x00000b38:    e5c0c008    ....    STRB     r12,[r0,#8]
        0x00000b3c:    e59fc1a4    ....    LDR      r12,[pc,#420] ; [0xce8] = 0x400040
        0x00000b40:    e59cc000    ....    LDR      r12,[r12,#0]
        0x00000b44:    e5c0c00b    ....    STRB     r12,[r0,#0xb]
        0x00000b48:    e1d330b0    .0..    LDRH     r3,[r3,#0]
        0x00000b4c:    e1c030be    .0..    STRH     r3,[r0,#0xe]
        0x00000b50:    e59f3194    .1..    LDR      r3,[pc,#404] ; [0xcec] = 0x4000c8
        0x00000b54:    e3a00000    ....    MOV      r0,#0
        0x00000b58:    e5837000    .p..    STR      r7,[r3,#0]
        0x00000b5c:    e5916000    .`..    LDR      r6,[r1,#0]
        0x00000b60:    e59f1188    ....    LDR      r1,[pc,#392] ; [0xcf0] = 0x40005c
        0x00000b64:    e594c000    ....    LDR      r12,[r4,#0]
        0x00000b68:    e599e000    ....    LDR      lr,[r9,#0]
        0x00000b6c:    e592200c    . ..    LDR      r2,[r2,#0xc]
        0x00000b70:    e5917000    .p..    LDR      r7,[r1,#0]
        0x00000b74:    ea000008    ....    B        0xb9c ; t_init + 788
        0x00000b78:    e08e1000    ....    ADD      r1,lr,r0
        0x00000b7c:    e79c1201    ....    LDR      r1,[r12,r1,LSL #4]
        0x00000b80:    e5938000    ....    LDR      r8,[r3,#0]
        0x00000b84:    e3710801    ..q.    CMN      r1,#0x10000
        0x00000b88:    05961004    ....    LDREQ    r1,[r6,#4]
        0x00000b8c:    e2800001    ....    ADD      r0,r0,#1
        0x00000b90:    e0010192    ....    MUL      r1,r2,r1
        0x00000b94:    e0881821    !...    ADD      r1,r8,r1,LSR #16
        0x00000b98:    e5831000    ....    STR      r1,[r3,#0]
        0x00000b9c:    e1500007    ..P.    CMP      r0,r7
        0x00000ba0:    3afffff4    ...:    BCC      0xb78 ; t_init + 752
        0x00000ba4:    e3a02000    . ..    MOV      r2,#0
        0x00000ba8:    e59f0144    D...    LDR      r0,[pc,#324] ; [0xcf4] = 0x1130
        0x00000bac:    e3a03001    .0..    MOV      r3,#1
        0x00000bb0:    e1a01002    ....    MOV      r1,r2
        0x00000bb4:    fa000dbd    ....    BLX      spin1_schedule_callback ; 0x42b0
        0x00000bb8:    e5950010    ....    LDR      r0,[r5,#0x10]
        0x00000bbc:    e59f2138    8!..    LDR      r2,[pc,#312] ; [0xcfc] = 0x400094
        0x00000bc0:    e1a01800    ....    LSL      r1,r0,#16
        0x00000bc4:    e59f012c    ,...    LDR      r0,[pc,#300] ; [0xcf8] = 0x40004c
        0x00000bc8:    e5900000    ....    LDR      r0,[r0,#0]
        0x00000bcc:    e1811400    ....    ORR      r1,r1,r0,LSL #8
        0x00000bd0:    e5821000    ....    STR      r1,[r2,#0]
        0x00000bd4:    e5951014    ....    LDR      r1,[r5,#0x14]
        0x00000bd8:    e1a01801    ....    LSL      r1,r1,#16
        0x00000bdc:    e1810400    ....    ORR      r0,r1,r0,LSL #8
        0x00000be0:    e59f1118    ....    LDR      r1,[pc,#280] ; [0xd00] = 0x400098
        0x00000be4:    e3800b02    ....    ORR      r0,r0,#0x800
        0x00000be8:    e5810000    ....    STR      r0,[r1,#0]
        0x00000bec:    e5d50001    ....    LDRB     r0,[r5,#1]
        0x00000bf0:    e3500000    ..P.    CMP      r0,#0
        0x00000bf4:    05d50000    ....    LDRBEQ   r0,[r5,#0]
        0x00000bf8:    03500000    ..P.    CMPEQ    r0,#0
        0x00000bfc:    0a000007    ....    BEQ      0xc20 ; t_init + 920
        0x00000c00:    e5940000    ....    LDR      r0,[r4,#0]
        0x00000c04:    e5991000    ....    LDR      r1,[r9,#0]
        0x00000c08:    e0800201    ....    ADD      r0,r0,r1,LSL #4
        0x00000c0c:    e590000c    ....    LDR      r0,[r0,#0xc]
        0x00000c10:    e5951004    ....    LDR      r1,[r5,#4]
        0x00000c14:    e0000091    ....    MUL      r0,r1,r0
        0x00000c18:    e59f10e4    ....    LDR      r1,[pc,#228] ; [0xd04] = 0x4000c4
        0x00000c1c:    e5810000    ....    STR      r0,[r1,#0]
        0x00000c20:    e3a02000    . ..    MOV      r2,#0
        0x00000c24:    e59f00dc    ....    LDR      r0,[pc,#220] ; [0xd08] = 0x1300
        0x00000c28:    e3a03001    .0..    MOV      r3,#1
        0x00000c2c:    e1a01002    ....    MOV      r1,r2
        0x00000c30:    fa000d9e    ....    BLX      spin1_schedule_callback ; 0x42b0
        0x00000c34:    e3a03001    .0..    MOV      r3,#1
        0x00000c38:    e59f00cc    ....    LDR      r0,[pc,#204] ; [0xd0c] = 0xe34
        0x00000c3c:    e3a02000    . ..    MOV      r2,#0
        0x00000c40:    e1a01003    ....    MOV      r1,r3
        0x00000c44:    fa000d99    ....    BLX      spin1_schedule_callback ; 0x42b0
        0x00000c48:    e3a00000    ....    MOV      r0,#0
        0x00000c4c:    e8bd9ff0    ....    POP      {r4-r12,pc}
    $d
        0x00000c50:    004001f4    ..@.    DCD    4194804
        0x00000c54:    004000b4    ..@.    DCD    4194484
        0x00000c58:    004000b0    ..@.    DCD    4194480
        0x00000c5c:    004000ec    ..@.    DCD    4194540
        0x00000c60:    004000b8    ..@.    DCD    4194488
        0x00000c64:    004000c0    ..@.    DCD    4194496
        0x00000c68:    00004670    pF..    DCD    18032
        0x00000c6c:    00001f38    8...    DCD    7992
        0x00000c70:    0040026c    l.@.    DCD    4194924
        0x00000c74:    00400278    x.@.    DCD    4194936
        0x00000c78:    00004698    .F..    DCD    18072
        0x00000c7c:    00400064    d.@.    DCD    4194404
        0x00000c80:    004000a8    ..@.    DCD    4194472
        0x00000c84:    00400080    ..@.    DCD    4194432
        0x00000c88:    00400060    `.@.    DCD    4194400
        0x00000c8c:    00400160    `.@.    DCD    4194656
        0x00000c90:    00400078    x.@.    DCD    4194424
        0x00000c94:    004000a0    ..@.    DCD    4194464
        0x00000c98:    004000a4    ..@.    DCD    4194468
        0x00000c9c:    0040008c    ..@.    DCD    4194444
        0x00000ca0:    004000cc    ..@.    DCD    4194508
        0x00000ca4:    004000d0    ..@.    DCD    4194512
        0x00000ca8:    004000e0    ..@.    DCD    4194528
        0x00000cac:    004000e4    ..@.    DCD    4194532
        0x00000cb0:    004000e8    ..@.    DCD    4194536
        0x00000cb4:    004000ea    ..@.    DCD    4194538
        0x00000cb8:    004000d6    ..@.    DCD    4194518
        0x00000cbc:    004000d7    ..@.    DCD    4194519
        0x00000cc0:    004000d4    ..@.    DCD    4194516
        0x00000cc4:    004000d5    ..@.    DCD    4194517
        0x00000cc8:    000046ac    .F..    DCD    18092
        0x00000ccc:    004000d8    ..@.    DCD    4194520
        0x00000cd0:    004000dc    ..@.    DCD    4194524
        0x00000cd4:    00400001    ..@.    DCD    4194305
        0x00000cd8:    00400090    ..@.    DCD    4194448
        0x00000cdc:    00400002    ..@.    DCD    4194306
        0x00000ce0:    00400284    ..@.    DCD    4194948
        0x00000ce4:    e5007f00    ....    DCD    3842014976
        0x00000ce8:    00400040    @.@.    DCD    4194368
        0x00000cec:    004000c8    ..@.    DCD    4194504
        0x00000cf0:    0040005c    \.@.    DCD    4194396
        0x00000cf4:    00001130    0...    DCD    4400
        0x00000cf8:    0040004c    L.@.    DCD    4194380
        0x00000cfc:    00400094    ..@.    DCD    4194452
        0x00000d00:    00400098    ..@.    DCD    4194456
        0x00000d04:    004000c4    ..@.    DCD    4194500
        0x00000d08:    00001300    ....    DCD    4864
        0x00000d0c:    00000e34    4...    DCD    3636
    $a
    .text
    t_backpropPacket
        0x00000d10:    e59f23a0    .#..    LDR      r2,[pc,#928] ; [0x10b8] = 0x400010
        0x00000d14:    e92d4010    .@-.    PUSH     {r4,lr}
        0x00000d18:    e5923000    .0..    LDR      r3,[r2,#0]
        0x00000d1c:    e2833001    .0..    ADD      r3,r3,#1
        0x00000d20:    e5823000    .0..    STR      r3,[r2,#0]
        0x00000d24:    e59f2390    .#..    LDR      r2,[pc,#912] ; [0x10bc] = 0x400278
        0x00000d28:    e5923004    .0..    LDR      r3,[r2,#4]
        0x00000d2c:    e592c000    ....    LDR      r12,[r2,#0]
        0x00000d30:    e2833001    .0..    ADD      r3,r3,#1
        0x00000d34:    e20330ff    .0..    AND      r3,r3,#0xff
        0x00000d38:    e15c0003    ..\.    CMP      r12,r3
        0x00000d3c:    08bd4010    .@..    POPEQ    {r4,lr}
        0x00000d40:    03a00002    ....    MOVEQ    r0,#2
        0x00000d44:    0a000d45    E...    BEQ      $Ven$AT$I$$spin1_kill ; 0x4260
        0x00000d48:    e592c008    ....    LDR      r12,[r2,#8]
        0x00000d4c:    e592e004    ....    LDR      lr,[r2,#4]
        0x00000d50:    e78c018e    ....    STR      r0,[r12,lr,LSL #3]
        0x00000d54:    e5920008    ....    LDR      r0,[r2,#8]
        0x00000d58:    e592c004    ....    LDR      r12,[r2,#4]
        0x00000d5c:    e080018c    ....    ADD      r0,r0,r12,LSL #3
        0x00000d60:    e5801004    ....    STR      r1,[r0,#4]
        0x00000d64:    e5823004    .0..    STR      r3,[r2,#4]
        0x00000d68:    e59f0350    P...    LDR      r0,[pc,#848] ; [0x10c0] = 0x400000
        0x00000d6c:    e5d00000    ....    LDRB     r0,[r0,#0]
        0x00000d70:    e3500001    ..P.    CMP      r0,#1
        0x00000d74:    059f0348    H...    LDREQ    r0,[pc,#840] ; [0x10c4] = 0x400001
        0x00000d78:    05d01000    ....    LDRBEQ   r1,[r0,#0]
        0x00000d7c:    03510000    ..Q.    CMPEQ    r1,#0
        0x00000d80:    18bd8010    ....    POPNE    {r4,pc}
        0x00000d84:    e3a01001    ....    MOV      r1,#1
        0x00000d88:    e5c01000    ....    STRB     r1,[r0,#0]
        0x00000d8c:    e3a02000    . ..    MOV      r2,#0
        0x00000d90:    e59f0330    0...    LDR      r0,[pc,#816] ; [0x10c8] = 0x15e8
        0x00000d94:    e8bd4010    .@..    POP      {r4,lr}
        0x00000d98:    e3a03002    .0..    MOV      r3,#2
        0x00000d9c:    e1a01002    ....    MOV      r1,r2
        0x00000da0:    ea000d40    @...    B        $Ven$AT$I$$spin1_schedule_callback ; 0x42a8
    t_forwardPacket
        0x00000da4:    e59f230c    .#..    LDR      r2,[pc,#780] ; [0x10b8] = 0x400010
        0x00000da8:    e92d4010    .@-.    PUSH     {r4,lr}
        0x00000dac:    e5923000    .0..    LDR      r3,[r2,#0]
        0x00000db0:    e2833001    .0..    ADD      r3,r3,#1
        0x00000db4:    e5823000    .0..    STR      r3,[r2,#0]
        0x00000db8:    e59f230c    .#..    LDR      r2,[pc,#780] ; [0x10cc] = 0x40026c
        0x00000dbc:    e5923004    .0..    LDR      r3,[r2,#4]
        0x00000dc0:    e592c000    ....    LDR      r12,[r2,#0]
        0x00000dc4:    e2833001    .0..    ADD      r3,r3,#1
        0x00000dc8:    e20330ff    .0..    AND      r3,r3,#0xff
        0x00000dcc:    e15c0003    ..\.    CMP      r12,r3
        0x00000dd0:    08bd4010    .@..    POPEQ    {r4,lr}
        0x00000dd4:    03a00002    ....    MOVEQ    r0,#2
        0x00000dd8:    0a000d20     ...    BEQ      $Ven$AT$I$$spin1_kill ; 0x4260
        0x00000ddc:    e592c008    ....    LDR      r12,[r2,#8]
        0x00000de0:    e592e004    ....    LDR      lr,[r2,#4]
        0x00000de4:    e78c018e    ....    STR      r0,[r12,lr,LSL #3]
        0x00000de8:    e5920008    ....    LDR      r0,[r2,#8]
        0x00000dec:    e592c004    ....    LDR      r12,[r2,#4]
        0x00000df0:    e080018c    ....    ADD      r0,r0,r12,LSL #3
        0x00000df4:    e5801004    ....    STR      r1,[r0,#4]
        0x00000df8:    e5823004    .0..    STR      r3,[r2,#4]
        0x00000dfc:    e59f02bc    ....    LDR      r0,[pc,#700] ; [0x10c0] = 0x400000
        0x00000e00:    e5d01000    ....    LDRB     r1,[r0,#0]
        0x00000e04:    e59f02b8    ....    LDR      r0,[pc,#696] ; [0x10c4] = 0x400001
        0x00000e08:    e5d02000    . ..    LDRB     r2,[r0,#0]
        0x00000e0c:    e1911002    ....    ORRS     r1,r1,r2
        0x00000e10:    18bd8010    ....    POPNE    {r4,pc}
        0x00000e14:    e3a01001    ....    MOV      r1,#1
        0x00000e18:    e5c01000    ....    STRB     r1,[r0,#0]
        0x00000e1c:    e3a02000    . ..    MOV      r2,#0
        0x00000e20:    e59f02a8    ....    LDR      r0,[pc,#680] ; [0x10d0] = 0x1c88
        0x00000e24:    e8bd4010    .@..    POP      {r4,lr}
        0x00000e28:    e3a03002    .0..    MOV      r3,#2
        0x00000e2c:    e1a01002    ....    MOV      r1,r2
        0x00000e30:    ea000d1c    ....    B        $Ven$AT$I$$spin1_schedule_callback ; 0x42a8
    send_outputs_to_host
        0x00000e34:    e92d41f0    .A-.    PUSH     {r4-r8,lr}
        0x00000e38:    e3510000    ..Q.    CMP      r1,#0
        0x00000e3c:    159f2290    ."..    LDRNE    r2,[pc,#656] ; [0x10d4] = 0x400058
        0x00000e40:    e59f4290    .B..    LDR      r4,[pc,#656] ; [0x10d8] = 0x400284
        0x00000e44:    15922000    . ..    LDRNE    r2,[r2,#0]
        0x00000e48:    e59fe28c    ....    LDR      lr,[pc,#652] ; [0x10dc] = 0x4001f4
        0x00000e4c:    e1c401b0    ....    STRH     r0,[r4,#0x10]
        0x00000e50:    e59e002c    ,...    LDR      r0,[lr,#0x2c]
        0x00000e54:    e1c401b2    ....    STRH     r0,[r4,#0x12]
        0x00000e58:    e59f0280    ....    LDR      r0,[pc,#640] ; [0x10e0] = 0x400050
        0x00000e5c:    03e02000    . ..    MVNEQ    r2,#0
        0x00000e60:    e5900000    ....    LDR      r0,[r0,#0]
        0x00000e64:    e5840014    ....    STR      r0,[r4,#0x14]
        0x00000e68:    e59f0274    t...    LDR      r0,[pc,#628] ; [0x10e4] = 0x400054
        0x00000e6c:    e59f5274    tR..    LDR      r5,[pc,#628] ; [0x10e8] = 0x4000b0
        0x00000e70:    e5900000    ....    LDR      r0,[r0,#0]
        0x00000e74:    e59f3270    p2..    LDR      r3,[pc,#624] ; [0x10ec] = 0x4000c4
        0x00000e78:    e1800802    ....    ORR      r0,r0,r2,LSL #16
        0x00000e7c:    e5840018    ....    STR      r0,[r4,#0x18]
        0x00000e80:    e59fc268    h...    LDR      r12,[pc,#616] ; [0x10f0] = 0x400088
        0x00000e84:    e2842020      ..    ADD      r2,r4,#0x20
        0x00000e88:    e3a00000    ....    MOV      r0,#0
        0x00000e8c:    e584101c    ....    STR      r1,[r4,#0x1c]
        0x00000e90:    ea00000b    ....    B        0xec4 ; send_outputs_to_host + 144
        0x00000e94:    e5951000    ....    LDR      r1,[r5,#0]
        0x00000e98:    e0811080    ....    ADD      r1,r1,r0,LSL #1
        0x00000e9c:    e1d160b0    .`..    LDRH     r6,[r1,#0]
        0x00000ea0:    e0821100    ....    ADD      r1,r2,r0,LSL #2
        0x00000ea4:    e1c160b0    .`..    STRH     r6,[r1,#0]
        0x00000ea8:    e5936000    .`..    LDR      r6,[r3,#0]
        0x00000eac:    e59c7000    .p..    LDR      r7,[r12,#0]
        0x00000eb0:    e0866000    .`..    ADD      r6,r6,r0
        0x00000eb4:    e0876086    .`..    ADD      r6,r7,r6,LSL #1
        0x00000eb8:    e1d660b0    .`..    LDRH     r6,[r6,#0]
        0x00000ebc:    e2800001    ....    ADD      r0,r0,#1
        0x00000ec0:    e1c160b2    .`..    STRH     r6,[r1,#2]
        0x00000ec4:    e59e1004    ....    LDR      r1,[lr,#4]
        0x00000ec8:    e1510000    ..Q.    CMP      r1,r0
        0x00000ecc:    8afffff0    ....    BHI      0xe94 ; send_outputs_to_host + 96
        0x00000ed0:    e1a00101    ....    LSL      r0,r1,#2
        0x00000ed4:    e2800018    ....    ADD      r0,r0,#0x18
        0x00000ed8:    e1c400b4    ....    STRH     r0,[r4,#4]
        0x00000edc:    ea000002    ....    B        0xeec ; send_outputs_to_host + 184
        0x00000ee0:    e28f1f83    ....    ADR      r1,{pc}+0x214 ; 0x10f4
        0x00000ee4:    e3a00000    ....    MOV      r0,#0
        0x00000ee8:    fa0008f2    ....    BLX      io_printf ; 0x32b8
        0x00000eec:    e59f01e4    ....    LDR      r0,[pc,#484] ; [0x10d8] = 0x400284
        0x00000ef0:    e3a01064    d...    MOV      r1,#0x64
        0x00000ef4:    fa000d4a    J...    BLX      spin1_send_sdp_msg ; 0x4424
        0x00000ef8:    e3500000    ..P.    CMP      r0,#0
        0x00000efc:    0afffff7    ....    BEQ      0xee0 ; send_outputs_to_host + 172
        0x00000f00:    e8bd81f0    ....    POP      {r4-r8,pc}
    t_syncPacket
        0x00000f04:    e92d4070    p@-.    PUSH     {r4-r6,lr}
        0x00000f08:    e3510000    ..Q.    CMP      r1,#0
        0x00000f0c:    e59f01ac    ....    LDR      r0,[pc,#428] ; [0x10c0] = 0x400000
        0x00000f10:    e59f31e8    .1..    LDR      r3,[pc,#488] ; [0x1100] = 0x400090
        0x00000f14:    e5d02000    . ..    LDRB     r2,[r0,#0]
        0x00000f18:    e5930000    ....    LDR      r0,[r3,#0]
        0x00000f1c:    e59f51d8    .Q..    LDR      r5,[pc,#472] ; [0x10fc] = 0x400002
        0x00000f20:    e59f41b4    .A..    LDR      r4,[pc,#436] ; [0x10dc] = 0x4001f4
        0x00000f24:    e2800001    ....    ADD      r0,r0,#1
        0x00000f28:    e3a0c000    ....    MOV      r12,#0
        0x00000f2c:    e3a0e001    ....    MOV      lr,#1
        0x00000f30:    e5830000    ....    STR      r0,[r3,#0]
        0x00000f34:    1a000014    ....    BNE      0xf8c ; t_syncPacket + 136
        0x00000f38:    e5941020     ...    LDR      r1,[r4,#0x20]
        0x00000f3c:    e1510000    ..Q.    CMP      r1,r0
        0x00000f40:    18bd8070    p...    POPNE    {r4-r6,pc}
        0x00000f44:    e3520000    ..R.    CMP      r2,#0
        0x00000f48:    e583c000    ....    STR      r12,[r3,#0]
        0x00000f4c:    1a00000c    ....    BNE      0xf84 ; t_syncPacket + 128
        0x00000f50:    e3a02000    . ..    MOV      r2,#0
        0x00000f54:    e59f01a8    ....    LDR      r0,[pc,#424] ; [0x1104] = 0x1300
        0x00000f58:    e3a03001    .0..    MOV      r3,#1
        0x00000f5c:    e1a01002    ....    MOV      r1,r2
        0x00000f60:    fa000cd2    ....    BLX      spin1_schedule_callback ; 0x42b0
        0x00000f64:    e5d40028    (...    LDRB     r0,[r4,#0x28]
        0x00000f68:    e3500000    ..P.    CMP      r0,#0
        0x00000f6c:    08bd8070    p...    POPEQ    {r4-r6,pc}
        0x00000f70:    e3a03001    .0..    MOV      r3,#1
        0x00000f74:    e3a02000    . ..    MOV      r2,#0
        0x00000f78:    e1a01003    ....    MOV      r1,r3
        0x00000f7c:    e24f0e15    ..O.    ADR      r0,{pc}-0x148 ; 0xe34
        0x00000f80:    ea00000b    ....    B        0xfb4 ; t_syncPacket + 176
        0x00000f84:    e5c5e000    ....    STRB     lr,[r5,#0]
        0x00000f88:    e8bd8070    p...    POP      {r4-r6,pc}
        0x00000f8c:    e5941024    $...    LDR      r1,[r4,#0x24]
        0x00000f90:    e1510000    ..Q.    CMP      r1,r0
        0x00000f94:    18bd8070    p...    POPNE    {r4-r6,pc}
        0x00000f98:    e3520001    ..R.    CMP      r2,#1
        0x00000f9c:    e583c000    ....    STR      r12,[r3,#0]
        0x00000fa0:    1afffff7    ....    BNE      0xf84 ; t_syncPacket + 128
        0x00000fa4:    e59f015c    \...    LDR      r0,[pc,#348] ; [0x1108] = 0x1754
        0x00000fa8:    e3a02000    . ..    MOV      r2,#0
        0x00000fac:    e3a03001    .0..    MOV      r3,#1
        0x00000fb0:    e1a01002    ....    MOV      r1,r2
        0x00000fb4:    e8bd4070    p@..    POP      {r4-r6,lr}
        0x00000fb8:    ea000cba    ....    B        $Ven$AT$I$$spin1_schedule_callback ; 0x42a8
    t_receivePacket
        0x00000fbc:    e92d4070    p@-.    PUSH     {r4-r6,lr}
        0x00000fc0:    e3a02c3a    :,..    MOV      r2,#0x3a00
        0x00000fc4:    e59f3140    @1..    LDR      r3,[pc,#320] ; [0x110c] = 0x400028
        0x00000fc8:    e1d2e000    ....    BICS     lr,r2,r0
        0x00000fcc:    e1a0c001    ....    MOV      r12,r1
        0x00000fd0:    e5932000    . ..    LDR      r2,[r3,#0]
        0x00000fd4:    e2001b02    ....    AND      r1,r0,#0x800
        0x00000fd8:    e1a015a1    ....    LSR      r1,r1,#11
        0x00000fdc:    059f1134    4...    LDREQ    r1,[pc,#308] ; [0x1118] = 0x4000ac
        0x00000fe0:    e2822001    . ..    ADD      r2,r2,#1
        0x00000fe4:    e59f5124    $Q..    LDR      r5,[pc,#292] ; [0x1110] = 0x4000cc
        0x00000fe8:    e59f4124    $A..    LDR      r4,[pc,#292] ; [0x1114] = 0x4000d0
        0x00000fec:    05832000    . ..    STREQ    r2,[r3,#0]
        0x00000ff0:    05c10000    ....    STRBEQ   r0,[r1,#0]
        0x00000ff4:    0a000015    ....    BEQ      0x1050 ; t_receivePacket + 148
        0x00000ff8:    e200ec3a    :...    AND      lr,r0,#0x3a00
        0x00000ffc:    e35e0c32    2.^.    CMP      lr,#0x3200
        0x00001000:    1a00001f    ....    BNE      0x1084 ; t_receivePacket + 200
        0x00001004:    e59f1110    ....    LDR      r1,[pc,#272] ; [0x111c] = 0x4000d7
        0x00001008:    e5832000    . ..    STR      r2,[r3,#0]
        0x0000100c:    e5d10000    ....    LDRB     r0,[r1,#0]
        0x00001010:    e3500000    ..P.    CMP      r0,#0
        0x00001014:    12400001    ..@.    SUBNE    r0,r0,#1
        0x00001018:    15c10000    ....    STRBNE   r0,[r1,#0]
        0x0000101c:    18bd8070    p...    POPNE    {r4-r6,pc}
        0x00001020:    e3a02000    . ..    MOV      r2,#0
        0x00001024:    e3a03001    .0..    MOV      r3,#1
        0x00001028:    e59f00f0    ....    LDR      r0,[pc,#240] ; [0x1120] = 0x4000d6
        0x0000102c:    e5d00000    ....    LDRB     r0,[r0,#0]
        0x00001030:    e5c10000    ....    STRB     r0,[r1,#0]
        0x00001034:    e59f00e8    ....    LDR      r0,[pc,#232] ; [0x1124] = 0x1b34
        0x00001038:    e1a01002    ....    MOV      r1,r2
        0x0000103c:    fa000c9b    ....    BLX      spin1_schedule_callback ; 0x42b0
        0x00001040:    e59f0094    ....    LDR      r0,[pc,#148] ; [0x10dc] = 0x4001f4
        0x00001044:    e5d0006a    j...    LDRB     r0,[r0,#0x6a]
        0x00001048:    e3500000    ..P.    CMP      r0,#0
        0x0000104c:    08bd8070    p...    POPEQ    {r4-r6,pc}
        0x00001050:    e5940000    ....    LDR      r0,[r4,#0]
        0x00001054:    e3500000    ..P.    CMP      r0,#0
        0x00001058:    12400001    ..@.    SUBNE    r0,r0,#1
        0x0000105c:    15840000    ....    STRNE    r0,[r4,#0]
        0x00001060:    18bd8070    p...    POPNE    {r4-r6,pc}
        0x00001064:    e3a02000    . ..    MOV      r2,#0
        0x00001068:    e5950000    ....    LDR      r0,[r5,#0]
        0x0000106c:    e5840000    ....    STR      r0,[r4,#0]
        0x00001070:    e59f00b0    ....    LDR      r0,[pc,#176] ; [0x1128] = 0x1a64
        0x00001074:    e8bd4070    p@..    POP      {r4-r6,lr}
        0x00001078:    e3a03001    .0..    MOV      r3,#1
        0x0000107c:    e1a01002    ....    MOV      r1,r2
        0x00001080:    ea000c88    ....    B        $Ven$AT$I$$spin1_schedule_callback ; 0x42a8
        0x00001084:    e3100a01    ....    TST      r0,#0x1000
        0x00001088:    159f209c    . ..    LDRNE    r2,[pc,#156] ; [0x112c] = 0x400020
        0x0000108c:    15923000    .0..    LDRNE    r3,[r2,#0]
        0x00001090:    12833001    .0..    ADDNE    r3,r3,#1
        0x00001094:    15823000    .0..    STRNE    r3,[r2,#0]
        0x00001098:    18bd4070    p@..    POPNE    {r4-r6,lr}
        0x0000109c:    1affff98    ....    BNE      t_syncPacket ; 0xf04
        0x000010a0:    e3510000    ..Q.    CMP      r1,#0
        0x000010a4:    18bd4070    p@..    POPNE    {r4-r6,lr}
        0x000010a8:    e1a0100c    ....    MOV      r1,r12
        0x000010ac:    1affff17    ....    BNE      t_backpropPacket ; 0xd10
        0x000010b0:    08bd4070    p@..    POPEQ    {r4-r6,lr}
        0x000010b4:    0affff3a    :...    BEQ      t_forwardPacket ; 0xda4
    $d
        0x000010b8:    00400010    ..@.    DCD    4194320
        0x000010bc:    00400278    x.@.    DCD    4194936
        0x000010c0:    00400000    ..@.    DCD    4194304
        0x000010c4:    00400001    ..@.    DCD    4194305
        0x000010c8:    000015e8    ....    DCD    5608
        0x000010cc:    0040026c    l.@.    DCD    4194924
        0x000010d0:    00001c88    ....    DCD    7304
        0x000010d4:    00400058    X.@.    DCD    4194392
        0x000010d8:    00400284    ..@.    DCD    4194948
        0x000010dc:    004001f4    ..@.    DCD    4194804
        0x000010e0:    00400050    P.@.    DCD    4194384
        0x000010e4:    00400054    T.@.    DCD    4194388
        0x000010e8:    004000b0    ..@.    DCD    4194480
        0x000010ec:    004000c4    ..@.    DCD    4194500
        0x000010f0:    00400088    ..@.    DCD    4194440
        0x000010f4:    21706473    sdp!    DCD    561013875
        0x000010f8:    0000000a    ....    DCD    10
        0x000010fc:    00400002    ..@.    DCD    4194306
        0x00001100:    00400090    ..@.    DCD    4194448
        0x00001104:    00001300    ....    DCD    4864
        0x00001108:    00001754    T...    DCD    5972
        0x0000110c:    00400028    (.@.    DCD    4194344
        0x00001110:    004000cc    ..@.    DCD    4194508
        0x00001114:    004000d0    ..@.    DCD    4194512
        0x00001118:    004000ac    ..@.    DCD    4194476
        0x0000111c:    004000d7    ..@.    DCD    4194519
        0x00001120:    004000d6    ..@.    DCD    4194518
        0x00001124:    00001b34    4...    DCD    6964
        0x00001128:    00001a64    d...    DCD    6756
        0x0000112c:    00400020     .@.    DCD    4194336
    $a
    send_info_to_host
        0x00001130:    e51f0060    `...    LDR      r0,[pc,#-96] ; [0x10d8] = 0x400284
        0x00001134:    e3a01002    ....    MOV      r1,#2
        0x00001138:    e92d4010    .@-.    PUSH     {r4,lr}
        0x0000113c:    e1c011b0    ....    STRH     r1,[r0,#0x10]
        0x00001140:    e51f106c    l...    LDR      r1,[pc,#-108] ; [0x10dc] = 0x4001f4
        0x00001144:    e591202c    , ..    LDR      r2,[r1,#0x2c]
        0x00001148:    e1c021b2    .!..    STRH     r2,[r0,#0x12]
        0x0000114c:    e5911004    ....    LDR      r1,[r1,#4]
        0x00001150:    e5801014    ....    STR      r1,[r0,#0x14]
        0x00001154:    e59f1034    4...    LDR      r1,[pc,#52] ; [0x1190] = 0x400184
        0x00001158:    e5911018    ....    LDR      r1,[r1,#0x18]
        0x0000115c:    e5801018    ....    STR      r1,[r0,#0x18]
        0x00001160:    e59f102c    ,...    LDR      r1,[pc,#44] ; [0x1194] = 0x4000c8
        0x00001164:    e5911000    ....    LDR      r1,[r1,#0]
        0x00001168:    e2811001    ....    ADD      r1,r1,#1
        0x0000116c:    e580101c    ....    STR      r1,[r0,#0x1c]
        0x00001170:    e3a01018    ....    MOV      r1,#0x18
        0x00001174:    e1c010b4    ....    STRH     r1,[r0,#4]
        0x00001178:    e51f00a8    ....    LDR      r0,[pc,#-168] ; [0x10d8] = 0x400284
        0x0000117c:    e3a01064    d...    MOV      r1,#0x64
        0x00001180:    fa000ca7    ....    BLX      spin1_send_sdp_msg ; 0x4424
        0x00001184:    e3500000    ..P.    CMP      r0,#0
        0x00001188:    0afffffa    ....    BEQ      0x1178 ; send_info_to_host + 72
        0x0000118c:    e8bd8010    ....    POP      {r4,pc}
    $d
        0x00001190:    00400184    ..@.    DCD    4194692
        0x00001194:    004000c8    ..@.    DCD    4194504
    $a
    .text
    sigmoid
        0x00001198:    e59f2150    P!..    LDR      r2,[pc,#336] ; [0x12f0] = 0x7fff
        0x0000119c:    e3500101    ..P.    CMP      r0,#0x40000000
        0x000011a0:    a1a00002    ....    MOVGE    r0,r2
        0x000011a4:    e52de004    ..-.    PUSH     {lr}
        0x000011a8:    a49df004    ....    POPGE    {pc}
        0x000011ac:    e3500103    ..P.    CMP      r0,#0xc0000000
        0x000011b0:    d3a00000    ....    MOVLE    r0,#0
        0x000011b4:    d49df004    ....    POPLE    {pc}
        0x000011b8:    e3500000    ..P.    CMP      r0,#0
        0x000011bc:    b2603000    .0`.    RSBLT    r3,r0,#0
        0x000011c0:    b1a01b43    C...    ASRLT    r1,r3,#22
        0x000011c4:    a1a01b40    @...    ASRGE    r1,r0,#22
        0x000011c8:    b1a03503    .5..    LSLLT    r3,r3,#10
        0x000011cc:    e59fc120     ...    LDR      r12,[pc,#288] ; [0x12f4] = 0x4880
        0x000011d0:    e20110ff    ....    AND      r1,r1,#0xff
        0x000011d4:    b1a03523    #5..    LSRLT    r3,r3,#10
        0x000011d8:    a1a03500    .5..    LSLGE    r3,r0,#10
        0x000011dc:    a1a03523    #5..    LSRGE    r3,r3,#10
        0x000011e0:    e08ce081    ....    ADD      lr,r12,r1,LSL #1
        0x000011e4:    e35100ff    ..Q.    CMP      r1,#0xff
        0x000011e8:    e1dec0f0    ....    LDRSH    r12,[lr,#0]
        0x000011ec:    11de20f2    . ..    LDRSHNE  r2,[lr,#2]
        0x000011f0:    e3500000    ..P.    CMP      r0,#0
        0x000011f4:    e042100c    ..B.    SUB      r1,r2,r12
        0x000011f8:    e0010193    ....    MUL      r1,r3,r1
        0x000011fc:    e08c1b41    A...    ADD      r1,r12,r1,ASR #22
        0x00001200:    b2810902    ....    ADDLT    r0,r1,#0x8000
        0x00001204:    b2600000    ..`.    RSBLT    r0,r0,#0
        0x00001208:    a1a00801    ....    LSLGE    r0,r1,#16
        0x0000120c:    b1a00800    ....    LSLLT    r0,r0,#16
        0x00001210:    e1a00840    @...    ASR      r0,r0,#16
        0x00001214:    e49df004    ....    POP      {pc}
    sigmoid_prime
        0x00001218:    e3500101    ..P.    CMP      r0,#0x40000000
        0x0000121c:    aa000001    ....    BGE      0x1228 ; sigmoid_prime + 16
        0x00001220:    e3500103    ..P.    CMP      r0,#0xc0000000
        0x00001224:    ca000001    ....    BGT      0x1230 ; sigmoid_prime + 24
        0x00001228:    e3a00000    ....    MOV      r0,#0
        0x0000122c:    e12fff1e    ../.    BX       lr
        0x00001230:    e3500000    ..P.    CMP      r0,#0
        0x00001234:    e59f10bc    ....    LDR      r1,[pc,#188] ; [0x12f8] = 0x4a80
        0x00001238:    b2600000    ..`.    RSBLT    r0,r0,#0
        0x0000123c:    e20005ff    ....    AND      r0,r0,#0x3fc00000
        0x00001240:    e0810aa0    ....    ADD      r0,r1,r0,LSR #21
        0x00001244:    e1d000f0    ....    LDRSH    r0,[r0,#0]
        0x00001248:    e12fff1e    ../.    BX       lr
    inv_sigmoid
        0x0000124c:    e92d4070    p@-.    PUSH     {r4-r6,lr}
        0x00001250:    e1a04000    .@..    MOV      r4,r0
        0x00001254:    e59f0094    ....    LDR      r0,[pc,#148] ; [0x12f0] = 0x7fff
        0x00001258:    e1540000    ..T.    CMP      r4,r0
        0x0000125c:    a3a00101    ....    MOVGE    r0,#0x40000000
        0x00001260:    a8bd8070    p...    POPGE    {r4-r6,pc}
        0x00001264:    e3540000    ..T.    CMP      r4,#0
        0x00001268:    d3a00103    ....    MOVLE    r0,#0xc0000000
        0x0000126c:    d8bd8070    p...    POPLE    {r4-r6,pc}
        0x00001270:    e2540901    ..T.    SUBS     r0,r4,#0x4000
        0x00001274:    42840901    ...B    ADDMI    r0,r4,#0x4000
        0x00001278:    42600000    ..`B    RSBMI    r0,r0,#0
        0x0000127c:    52440901    ..DR    SUBPL    r0,r4,#0x4000
        0x00001280:    e1a02800    .(..    LSL      r2,r0,#16
        0x00001284:    e1a02842    B(..    ASR      r2,r2,#16
        0x00001288:    e1a00902    ....    LSL      r0,r2,#18
        0x0000128c:    e1a01c20     ...    LSR      r1,r0,#24
        0x00001290:    e59f3064    d0..    LDR      r3,[pc,#100] ; [0x12fc] = 0x4c80
        0x00001294:    e7930101    ....    LDR      r0,[r3,r1,LSL #2]
        0x00001298:    e35100ff    ..Q.    CMP      r1,#0xff
        0x0000129c:    10831101    ....    ADDNE    r1,r3,r1,LSL #2
        0x000012a0:    15911004    ....    LDRNE    r1,[r1,#4]
        0x000012a4:    03a01101    ....    MOVEQ    r1,#0x40000000
        0x000012a8:    e202303f    ?0..    AND      r3,r2,#0x3f
        0x000012ac:    e0411000    ..A.    SUB      r1,r1,r0
        0x000012b0:    e0c12193    .!..    SMULL    r2,r1,r3,r1
        0x000012b4:    e1a02322    "#..    LSR      r2,r2,#6
        0x000012b8:    e1822d01    .-..    ORR      r2,r2,r1,LSL #26
        0x000012bc:    e1a03341    A3..    ASR      r3,r1,#6
        0x000012c0:    e0905002    .P..    ADDS     r5,r0,r2
        0x000012c4:    e0a36fc0    .o..    ADC      r6,r3,r0,ASR #31
        0x000012c8:    e2752101    .!u.    RSBS     r2,r5,#0x40000000
        0x000012cc:    e2f63000    .0..    RSCS     r3,r6,#0
        0x000012d0:    b3a05101    .Q..    MOVLT    r5,#0x40000000
        0x000012d4:    b3a06000    .`..    MOVLT    r6,#0
        0x000012d8:    e3540901    ..T.    CMP      r4,#0x4000
        0x000012dc:    a1a00005    ....    MOVGE    r0,r5
        0x000012e0:    a8bd8070    p...    POPGE    {r4-r6,pc}
        0x000012e4:    e2750000    ..u.    RSBS     r0,r5,#0
        0x000012e8:    e2e61000    ....    RSC      r1,r6,#0
        0x000012ec:    e8bd8070    p...    POP      {r4-r6,pc}
    $d
        0x000012f0:    00007fff    ....    DCD    32767
        0x000012f4:    00004880    .H..    DCD    18560
        0x000012f8:    00004a80    .J..    DCD    19072
        0x000012fc:    00004c80    .L..    DCD    19584
    $a
    .text
    t_init_outputs
        0x00001300:    e92d41f0    .A-.    PUSH     {r4-r8,lr}
        0x00001304:    e3a04000    .@..    MOV      r4,#0
        0x00001308:    e59f5690    .V..    LDR      r5,[pc,#1680] ; [0x19a0] = 0x4000b0
        0x0000130c:    e59f7690    .v..    LDR      r7,[pc,#1680] ; [0x19a4] = 0x4001f4
        0x00001310:    ea00001d    ....    B        0x138c ; t_init_outputs + 140
        0x00001314:    e5951000    ....    LDR      r1,[r5,#0]
        0x00001318:    e1d706b0    ....    LDRH     r0,[r7,#0x60]
        0x0000131c:    e0811084    ....    ADD      r1,r1,r4,LSL #1
        0x00001320:    e1c100b0    ....    STRH     r0,[r1,#0]
        0x00001324:    e5d7003c    <...    LDRB     r0,[r7,#0x3c]
        0x00001328:    e59f667c    |f..    LDR      r6,[pc,#1660] ; [0x19ac] = 0x400094
        0x0000132c:    e3500000    ..P.    CMP      r0,#0
        0x00001330:    159f1670    p...    LDRNE    r1,[pc,#1648] ; [0x19a8] = 0x4000bc
        0x00001334:    11d706b0    ....    LDRHNE   r0,[r7,#0x60]
        0x00001338:    15911000    ....    LDRNE    r1,[r1,#0]
        0x0000133c:    10811084    ....    ADDNE    r1,r1,r4,LSL #1
        0x00001340:    11c100b0    ....    STRHNE   r0,[r1,#0]
        0x00001344:    e5950000    ....    LDR      r0,[r5,#0]
        0x00001348:    e3a02001    . ..    MOV      r2,#1
        0x0000134c:    e0800084    ....    ADD      r0,r0,r4,LSL #1
        0x00001350:    e1d010f0    ....    LDRSH    r1,[r0,#0]
        0x00001354:    e5960000    ....    LDR      r0,[r6,#0]
        0x00001358:    e1800004    ....    ORR      r0,r0,r4
        0x0000135c:    fa000bf0    ....    BLX      spin1_send_mc_packet ; 0x4324
        0x00001360:    e3500000    ..P.    CMP      r0,#0
        0x00001364:    0afffff6    ....    BEQ      0x1344 ; t_init_outputs + 68
        0x00001368:    e59f0640    @...    LDR      r0,[pc,#1600] ; [0x19b0] = 0x400004
        0x0000136c:    e2844001    .@..    ADD      r4,r4,#1
        0x00001370:    e5901000    ....    LDR      r1,[r0,#0]
        0x00001374:    e2811001    ....    ADD      r1,r1,#1
        0x00001378:    e5801000    ....    STR      r1,[r0,#0]
        0x0000137c:    e59f0630    0...    LDR      r0,[pc,#1584] ; [0x19b4] = 0x400008
        0x00001380:    e5901000    ....    LDR      r1,[r0,#0]
        0x00001384:    e2811001    ....    ADD      r1,r1,#1
        0x00001388:    e5801000    ....    STR      r1,[r0,#0]
        0x0000138c:    e5970004    ....    LDR      r0,[r7,#4]
        0x00001390:    e1500004    ..P.    CMP      r0,r4
        0x00001394:    8affffde    ....    BHI      0x1314 ; t_init_outputs + 20
        0x00001398:    e8bd81f0    ....    POP      {r4-r8,pc}
    t_advance_example
        0x0000139c:    e59f1614    ....    LDR      r1,[pc,#1556] ; [0x19b8] = 0x400054
        0x000013a0:    e92d4070    p@-.    PUSH     {r4-r6,lr}
        0x000013a4:    e3a04000    .@..    MOV      r4,#0
        0x000013a8:    e5910000    ....    LDR      r0,[r1,#0]
        0x000013ac:    e59f2608    .&..    LDR      r2,[pc,#1544] ; [0x19bc] = 0x400160
        0x000013b0:    e2800001    ....    ADD      r0,r0,#1
        0x000013b4:    e5810000    ....    STR      r0,[r1,#0]
        0x000013b8:    e5923008    .0..    LDR      r3,[r2,#8]
        0x000013bc:    e1500003    ..P.    CMP      r0,r3
        0x000013c0:    3a000008    ...:    BCC      0x13e8 ; t_advance_example + 76
        0x000013c4:    e59f35f4    .5..    LDR      r3,[pc,#1524] ; [0x19c0] = 0x400050
        0x000013c8:    e5930000    ....    LDR      r0,[r3,#0]
        0x000013cc:    e2800001    ....    ADD      r0,r0,#1
        0x000013d0:    e5830000    ....    STR      r0,[r3,#0]
        0x000013d4:    e5922004    . ..    LDR      r2,[r2,#4]
        0x000013d8:    e1500002    ..P.    CMP      r0,r2
        0x000013dc:    28bd4070    p@.(    POPCS    {r4-r6,lr}
        0x000013e0:    2a000c68    h..*    BCS      $Ven$AT$I$$spin1_stop ; 0x4588
        0x000013e4:    e5814000    .@..    STR      r4,[r1,#0]
        0x000013e8:    e59f05d4    ....    LDR      r0,[pc,#1492] ; [0x19c4] = 0x400058
        0x000013ec:    e59f25d8    .%..    LDR      r2,[pc,#1496] ; [0x19cc] = 0x40005c
        0x000013f0:    e5804000    .@..    STR      r4,[r0,#0]
        0x000013f4:    e59f05cc    ....    LDR      r0,[pc,#1484] ; [0x19c8] = 0x40007c
        0x000013f8:    e5911000    ....    LDR      r1,[r1,#0]
        0x000013fc:    e5900000    ....    LDR      r0,[r0,#0]
        0x00001400:    e59f559c    .U..    LDR      r5,[pc,#1436] ; [0x19a4] = 0x4001f4
        0x00001404:    e0800201    ....    ADD      r0,r0,r1,LSL #4
        0x00001408:    e5901004    ....    LDR      r1,[r0,#4]
        0x0000140c:    e5821000    ....    STR      r1,[r2,#0]
        0x00001410:    e5901008    ....    LDR      r1,[r0,#8]
        0x00001414:    e59f05b4    ....    LDR      r0,[pc,#1460] ; [0x19d0] = 0x400060
        0x00001418:    e5801000    ....    STR      r1,[r0,#0]
        0x0000141c:    e5d53001    .0..    LDRB     r3,[r5,#1]
        0x00001420:    e59f05ac    ....    LDR      r0,[pc,#1452] ; [0x19d4] = 0x400080
        0x00001424:    e3530000    ..S.    CMP      r3,#0
        0x00001428:    e5902000    . ..    LDR      r2,[r0,#0]
        0x0000142c:    05d50000    ....    LDRBEQ   r0,[r5,#0]
        0x00001430:    03500000    ..P.    CMPEQ    r0,#0
        0x00001434:    10820201    ....    ADDNE    r0,r2,r1,LSL #4
        0x00001438:    1590000c    ....    LDRNE    r0,[r0,#0xc]
        0x0000143c:    15953004    .0..    LDRNE    r3,[r5,#4]
        0x00001440:    10000093    ....    MULNE    r0,r3,r0
        0x00001444:    159f358c    .5..    LDRNE    r3,[pc,#1420] ; [0x19d8] = 0x4000c4
        0x00001448:    15830000    ....    STRNE    r0,[r3,#0]
        0x0000144c:    e5d5006a    j...    LDRB     r0,[r5,#0x6a]
        0x00001450:    e3500000    ..P.    CMP      r0,#0
        0x00001454:    0a000012    ....    BEQ      0x14a4 ; t_advance_example + 264
        0x00001458:    e792c201    ....    LDR      r12,[r2,r1,LSL #4]
        0x0000145c:    e59f357c    |5..    LDR      r3,[pc,#1404] ; [0x19e0] = 0x400078
        0x00001460:    e59f0554    T...    LDR      r0,[pc,#1364] ; [0x19bc] = 0x400160
        0x00001464:    e5933000    .0..    LDR      r3,[r3,#0]
        0x00001468:    e37c0801    ..|.    CMN      r12,#0x10000
        0x0000146c:    e590000c    ....    LDR      r0,[r0,#0xc]
        0x00001470:    0593c004    ....    LDREQ    r12,[r3,#4]
        0x00001474:    e59fe560    `...    LDR      lr,[pc,#1376] ; [0x19dc] = 0x4000a0
        0x00001478:    e00c0c90    ....    MUL      r12,r0,r12
        0x0000147c:    e0821201    ....    ADD      r1,r2,r1,LSL #4
        0x00001480:    e1a0c82c    ,...    LSR      r12,r12,#16
        0x00001484:    e58ec000    ....    STR      r12,[lr,#0]
        0x00001488:    e5911004    ....    LDR      r1,[r1,#4]
        0x0000148c:    e59f2550    P%..    LDR      r2,[pc,#1360] ; [0x19e4] = 0x4000a4
        0x00001490:    e3710801    ..q.    CMN      r1,#0x10000
        0x00001494:    05931008    ....    LDREQ    r1,[r3,#8]
        0x00001498:    e0000091    ....    MUL      r0,r1,r0
        0x0000149c:    e1a00820     ...    LSR      r0,r0,#16
        0x000014a0:    e5820000    ....    STR      r0,[r2,#0]
        0x000014a4:    eb0004ef    ....    BL       cpu_int_disable ; 0x2868
        0x000014a8:    e59f1538    8...    LDR      r1,[pc,#1336] ; [0x19e8] = 0x400002
        0x000014ac:    e5d12000    . ..    LDRB     r2,[r1,#0]
        0x000014b0:    e3520000    ..R.    CMP      r2,#0
        0x000014b4:    08bd4070    p@..    POPEQ    {r4-r6,lr}
        0x000014b8:    0a0004ee    ....    BEQ      cpu_int_restore ; 0x2878
        0x000014bc:    e5c14000    .@..    STRB     r4,[r1,#0]
        0x000014c0:    eb0004ec    ....    BL       cpu_int_restore ; 0x2878
        0x000014c4:    e3a02000    . ..    MOV      r2,#0
        0x000014c8:    e3a03001    .0..    MOV      r3,#1
        0x000014cc:    e1a01002    ....    MOV      r1,r2
        0x000014d0:    e24f0f76    v.O.    ADR      r0,{pc}-0x1d0 ; 0x1300
        0x000014d4:    fa000b75    u...    BLX      spin1_schedule_callback ; 0x42b0
        0x000014d8:    e5d50028    (...    LDRB     r0,[r5,#0x28]
        0x000014dc:    e3500000    ..P.    CMP      r0,#0
        0x000014e0:    08bd8070    p...    POPEQ    {r4-r6,pc}
        0x000014e4:    e3a03001    .0..    MOV      r3,#1
        0x000014e8:    e8bd4070    p@..    POP      {r4-r6,lr}
        0x000014ec:    e3a02000    . ..    MOV      r2,#0
        0x000014f0:    e59f04f4    ....    LDR      r0,[pc,#1268] ; [0x19ec] = 0xe34
        0x000014f4:    e1a01003    ....    MOV      r1,r3
        0x000014f8:    ea000b6a    j...    B        $Ven$AT$I$$spin1_schedule_callback ; 0x42a8
    t_switch_to_fw
        0x000014fc:    e92d4010    .@-.    PUSH     {r4,lr}
        0x00001500:    eb0004d8    ....    BL       cpu_int_disable ; 0x2868
        0x00001504:    e1a04000    .@..    MOV      r4,r0
        0x00001508:    e59f04e0    ....    LDR      r0,[pc,#1248] ; [0x19f0] = 0x400000
        0x0000150c:    e3a01000    ....    MOV      r1,#0
        0x00001510:    e5c01000    ....    STRB     r1,[r0,#0]
        0x00001514:    e59f04d8    ....    LDR      r0,[pc,#1240] ; [0x19f4] = 0x40026c
        0x00001518:    e5902000    . ..    LDR      r2,[r0,#0]
        0x0000151c:    e5900004    ....    LDR      r0,[r0,#4]
        0x00001520:    e1520000    ..R.    CMP      r2,r0
        0x00001524:    059f04cc    ....    LDREQ    r0,[pc,#1228] ; [0x19f8] = 0x400001
        0x00001528:    05c01000    ....    STRBEQ   r1,[r0,#0]
        0x0000152c:    0a000004    ....    BEQ      0x1544 ; t_switch_to_fw + 72
        0x00001530:    e3a02000    . ..    MOV      r2,#0
        0x00001534:    e59f04c0    ....    LDR      r0,[pc,#1216] ; [0x19fc] = 0x1c88
        0x00001538:    e3a03002    .0..    MOV      r3,#2
        0x0000153c:    e1a01002    ....    MOV      r1,r2
        0x00001540:    fa000b5a    Z...    BLX      spin1_schedule_callback ; 0x42b0
        0x00001544:    e1a00004    ....    MOV      r0,r4
        0x00001548:    e8bd4010    .@..    POP      {r4,lr}
        0x0000154c:    ea0004c9    ....    B        cpu_int_restore ; 0x2878
    tb_advance_tick
        0x00001550:    e59f14a8    ....    LDR      r1,[pc,#1192] ; [0x1a00] = 0x40008c
        0x00001554:    e3a00000    ....    MOV      r0,#0
        0x00001558:    e92d4010    .@-.    PUSH     {r4,lr}
        0x0000155c:    e5810000    ....    STR      r0,[r1,#0]
        0x00001560:    e59f049c    ....    LDR      r0,[pc,#1180] ; [0x1a04] = 0x400038
        0x00001564:    e59f24a0    .$..    LDR      r2,[pc,#1184] ; [0x1a0c] = 0x40009c
        0x00001568:    e5901000    ....    LDR      r1,[r0,#0]
        0x0000156c:    e2811001    ....    ADD      r1,r1,#1
        0x00001570:    e5801000    ....    STR      r1,[r0,#0]
        0x00001574:    e59f148c    ....    LDR      r1,[pc,#1164] ; [0x1a08] = 0x400064
        0x00001578:    e5922000    . ..    LDR      r2,[r2,#0]
        0x0000157c:    e5910000    ....    LDR      r0,[r1,#0]
        0x00001580:    e1500002    ..P.    CMP      r0,r2
        0x00001584:    12800001    ....    ADDNE    r0,r0,#1
        0x00001588:    15810000    ....    STRNE    r0,[r1,#0]
        0x0000158c:    18bd8010    ....    POPNE    {r4,pc}
        0x00001590:    e3a00001    ....    MOV      r0,#1
        0x00001594:    e5810000    ....    STR      r0,[r1,#0]
        0x00001598:    ebffffd7    ....    BL       t_switch_to_fw ; 0x14fc
        0x0000159c:    e8bd4010    .@..    POP      {r4,lr}
        0x000015a0:    eaffff7d    }...    B        t_advance_example ; 0x139c
    compute_out_back
        0x000015a4:    e92d41f0    .A-.    PUSH     {r4-r8,lr}
        0x000015a8:    e1a07000    .p..    MOV      r7,r0
        0x000015ac:    e59f53f0    .S..    LDR      r5,[pc,#1008] ; [0x19a4] = 0x4001f4
        0x000015b0:    e5950044    D...    LDR      r0,[r5,#0x44]
        0x000015b4:    e3500000    ..P.    CMP      r0,#0
        0x000015b8:    08bd81f0    ....    POPEQ    {r4-r8,pc}
        0x000015bc:    e2504001    .@P.    SUBS     r4,r0,#1
        0x000015c0:    48bd81f0    ...H    POPMI    {r4-r8,pc}
        0x000015c4:    e59f6444    Dd..    LDR      r6,[pc,#1092] ; [0x1a10] = 0x4684
        0x000015c8:    e0850104    ....    ADD      r0,r5,r4,LSL #2
        0x000015cc:    e5900048    H...    LDR      r0,[r0,#0x48]
        0x000015d0:    e7961100    ....    LDR      r1,[r6,r0,LSL #2]
        0x000015d4:    e1a00007    ....    MOV      r0,r7
        0x000015d8:    e12fff31    1./.    BLX      r1
        0x000015dc:    e2544001    .@T.    SUBS     r4,r4,#1
        0x000015e0:    5afffff8    ...Z    BPL      0x15c8 ; compute_out_back + 36
        0x000015e4:    e8bd81f0    ....    POP      {r4-r8,pc}
    tb_process
        0x000015e8:    e92d47f0    .G-.    PUSH     {r4-r10,lr}
        0x000015ec:    eb00049d    ....    BL       cpu_int_disable ; 0x2868
        0x000015f0:    e59f841c    ....    LDR      r8,[pc,#1052] ; [0x1a14] = 0x4000b8
        0x000015f4:    e59f941c    ....    LDR      r9,[pc,#1052] ; [0x1a18] = 0x4000ec
        0x000015f8:    e59fa3a4    ....    LDR      r10,[pc,#932] ; [0x19a4] = 0x4001f4
        0x000015fc:    e59f5418    .T..    LDR      r5,[pc,#1048] ; [0x1a1c] = 0x400278
        0x00001600:    ea00004a    J...    B        0x1730 ; tb_process + 328
        0x00001604:    e5951008    ....    LDR      r1,[r5,#8]
        0x00001608:    e5952000    . ..    LDR      r2,[r5,#0]
        0x0000160c:    e7914182    .A..    LDR      r4,[r1,r2,LSL #3]
        0x00001610:    e5952000    . ..    LDR      r2,[r5,#0]
        0x00001614:    e0811182    ....    ADD      r1,r1,r2,LSL #3
        0x00001618:    e5916004    .`..    LDR      r6,[r1,#4]
        0x0000161c:    e5951000    ....    LDR      r1,[r5,#0]
        0x00001620:    e2811001    ....    ADD      r1,r1,#1
        0x00001624:    e20110ff    ....    AND      r1,r1,#0xff
        0x00001628:    e5851000    ....    STR      r1,[r5,#0]
        0x0000162c:    eb000491    ....    BL       cpu_int_restore ; 0x2878
        0x00001630:    e59f03e8    ....    LDR      r0,[pc,#1000] ; [0x1a20] = 0x400018
        0x00001634:    e3140b02    ....    TST      r4,#0x800
        0x00001638:    e5901000    ....    LDR      r1,[r0,#0]
        0x0000163c:    e20440ff    .@..    AND      r4,r4,#0xff
        0x00001640:    e2811001    ....    ADD      r1,r1,#1
        0x00001644:    e5801000    ....    STR      r1,[r0,#0]
        0x00001648:    059f03d4    ....    LDREQ    r0,[pc,#980] ; [0x1a24] = 0x40002c
        0x0000164c:    05901000    ....    LDREQ    r1,[r0,#0]
        0x00001650:    02811001    ....    ADDEQ    r1,r1,#1
        0x00001654:    05801000    ....    STREQ    r1,[r0,#0]
        0x00001658:    e5da0000    ....    LDRB     r0,[r10,#0]
        0x0000165c:    e3500000    ..P.    CMP      r0,#0
        0x00001660:    05980000    ....    LDREQ    r0,[r8,#0]
        0x00001664:    07806104    .a..    STREQ    r6,[r0,r4,LSL #2]
        0x00001668:    e5980000    ....    LDR      r0,[r8,#0]
        0x0000166c:    e7901104    ....    LDR      r1,[r0,r4,LSL #2]
        0x00001670:    e5990000    ....    LDR      r0,[r9,#0]
        0x00001674:    e1a02fc1    ./..    ASR      r2,r1,#31
        0x00001678:    e7a01184    ....    STR      r1,[r0,r4,LSL #3]!
        0x0000167c:    e5802004    . ..    STR      r2,[r0,#4]
        0x00001680:    e1a00004    ....    MOV      r0,r4
        0x00001684:    ebffffc6    ....    BL       compute_out_back ; 0x15a4
        0x00001688:    e5990000    ....    LDR      r0,[r9,#0]
        0x0000168c:    e3e02102    .!..    MVN      r2,#0x80000000
        0x00001690:    e0800184    ....    ADD      r0,r0,r4,LSL #3
        0x00001694:    e1c000d0    ....    LDRD     r0,r1,[r0,#0]
        0x00001698:    e0522000    . R.    SUBS     r2,r2,r0
        0x0000169c:    e2f13000    .0..    RSCS     r3,r1,#0
        0x000016a0:    b3e06102    .a..    MVNLT    r6,#0x80000000
        0x000016a4:    ba000007    ....    BLT      0x16c8 ; tb_process + 224
        0x000016a8:    e5990000    ....    LDR      r0,[r9,#0]
        0x000016ac:    e3e03000    .0..    MVN      r3,#0
        0x000016b0:    e0800184    ....    ADD      r0,r0,r4,LSL #3
        0x000016b4:    e1c000d0    ....    LDRD     r0,r1,[r0,#0]
        0x000016b8:    e2702102    .!p.    RSBS     r2,r0,#0x80000000
        0x000016bc:    e0d33001    .0..    SBCS     r3,r3,r1
        0x000016c0:    b5996000    .`..    LDRLT    r6,[r9,#0]
        0x000016c4:    a3a06102    .a..    MOVGE    r6,#0x80000000
        0x000016c8:    e59f7358    Xs..    LDR      r7,[pc,#856] ; [0x1a28] = 0x400098
        0x000016cc:    e3a02001    . ..    MOV      r2,#1
        0x000016d0:    e5970000    ....    LDR      r0,[r7,#0]
        0x000016d4:    e1a01006    ....    MOV      r1,r6
        0x000016d8:    e1800004    ....    ORR      r0,r0,r4
        0x000016dc:    fa000b10    ....    BLX      spin1_send_mc_packet ; 0x4324
        0x000016e0:    e3500000    ..P.    CMP      r0,#0
        0x000016e4:    0afffff8    ....    BEQ      0x16cc ; tb_process + 228
        0x000016e8:    e59f02c0    ....    LDR      r0,[pc,#704] ; [0x19b0] = 0x400004
        0x000016ec:    e5901000    ....    LDR      r1,[r0,#0]
        0x000016f0:    e2811001    ....    ADD      r1,r1,#1
        0x000016f4:    e5801000    ....    STR      r1,[r0,#0]
        0x000016f8:    e59f032c    ,...    LDR      r0,[pc,#812] ; [0x1a2c] = 0x40000c
        0x000016fc:    e5901000    ....    LDR      r1,[r0,#0]
        0x00001700:    e2811001    ....    ADD      r1,r1,#1
        0x00001704:    e5801000    ....    STR      r1,[r0,#0]
        0x00001708:    e59f12f0    ....    LDR      r1,[pc,#752] ; [0x1a00] = 0x40008c
        0x0000170c:    e5910000    ....    LDR      r0,[r1,#0]
        0x00001710:    e2800001    ....    ADD      r0,r0,#1
        0x00001714:    e5810000    ....    STR      r0,[r1,#0]
        0x00001718:    e59a101c    ....    LDR      r1,[r10,#0x1c]
        0x0000171c:    e1510000    ..Q.    CMP      r1,r0
        0x00001720:    03a01000    ....    MOVEQ    r1,#0
        0x00001724:    01a00001    ....    MOVEQ    r0,r1
        0x00001728:    0bffff88    ....    BLEQ     tb_advance_tick ; 0x1550
        0x0000172c:    eb00044d    M...    BL       cpu_int_disable ; 0x2868
        0x00001730:    e5951000    ....    LDR      r1,[r5,#0]
        0x00001734:    e5952004    . ..    LDR      r2,[r5,#4]
        0x00001738:    e1510002    ..Q.    CMP      r1,r2
        0x0000173c:    1affffb0    ....    BNE      0x1604 ; tb_process + 28
        0x00001740:    e59f22b0    ."..    LDR      r2,[pc,#688] ; [0x19f8] = 0x400001
        0x00001744:    e3a01000    ....    MOV      r1,#0
        0x00001748:    e5c21000    ....    STRB     r1,[r2,#0]
        0x0000174c:    e8bd47f0    .G..    POP      {r4-r10,lr}
        0x00001750:    ea000448    H...    B        cpu_int_restore ; 0x2878
    t_init_deltas
        0x00001754:    e92d41f0    .A-.    PUSH     {r4-r8,lr}
        0x00001758:    e3a04000    .@..    MOV      r4,#0
        0x0000175c:    e59f72b4    .r..    LDR      r7,[pc,#692] ; [0x1a18] = 0x4000ec
        0x00001760:    e59f823c    <...    LDR      r8,[pc,#572] ; [0x19a4] = 0x4001f4
        0x00001764:    ea00002b    +...    B        0x1818 ; t_init_deltas + 196
        0x00001768:    e5d80000    ....    LDRB     r0,[r8,#0]
        0x0000176c:    e3500000    ..P.    CMP      r0,#0
        0x00001770:    03a05000    .P..    MOVEQ    r5,#0
        0x00001774:    0a000012    ....    BEQ      0x17c4 ; t_init_deltas + 112
        0x00001778:    e1a00004    ....    MOV      r0,r4
        0x0000177c:    ebffff88    ....    BL       compute_out_back ; 0x15a4
        0x00001780:    e5970000    ....    LDR      r0,[r7,#0]
        0x00001784:    e3e02102    .!..    MVN      r2,#0x80000000
        0x00001788:    e0800184    ....    ADD      r0,r0,r4,LSL #3
        0x0000178c:    e1c000d0    ....    LDRD     r0,r1,[r0,#0]
        0x00001790:    e0522000    . R.    SUBS     r2,r2,r0
        0x00001794:    e2f13000    .0..    RSCS     r3,r1,#0
        0x00001798:    b3e05102    .Q..    MVNLT    r5,#0x80000000
        0x0000179c:    ba000008    ....    BLT      0x17c4 ; t_init_deltas + 112
        0x000017a0:    e5970000    ....    LDR      r0,[r7,#0]
        0x000017a4:    e3e03000    .0..    MVN      r3,#0
        0x000017a8:    e0800184    ....    ADD      r0,r0,r4,LSL #3
        0x000017ac:    e1c000d0    ....    LDRD     r0,r1,[r0,#0]
        0x000017b0:    e2702102    .!p.    RSBS     r2,r0,#0x80000000
        0x000017b4:    e0d33001    .0..    SBCS     r3,r3,r1
        0x000017b8:    b5970000    ....    LDRLT    r0,[r7,#0]
        0x000017bc:    b7905184    .Q..    LDRLT    r5,[r0,r4,LSL #3]
        0x000017c0:    a3a05102    .Q..    MOVGE    r5,#0x80000000
        0x000017c4:    e1a02005    . ..    MOV      r2,r5
        0x000017c8:    e28f1e26    &...    ADR      r1,{pc}+0x268 ; 0x1a30
        0x000017cc:    e3a00002    ....    MOV      r0,#2
        0x000017d0:    fa0006b8    ....    BLX      io_printf ; 0x32b8
        0x000017d4:    e59f624c    Lb..    LDR      r6,[pc,#588] ; [0x1a28] = 0x400098
        0x000017d8:    e3a02001    . ..    MOV      r2,#1
        0x000017dc:    e5960000    ....    LDR      r0,[r6,#0]
        0x000017e0:    e1a01005    ....    MOV      r1,r5
        0x000017e4:    e1800004    ....    ORR      r0,r0,r4
        0x000017e8:    fa000acd    ....    BLX      spin1_send_mc_packet ; 0x4324
        0x000017ec:    e3500000    ..P.    CMP      r0,#0
        0x000017f0:    0afffff8    ....    BEQ      0x17d8 ; t_init_deltas + 132
        0x000017f4:    e59f01b4    ....    LDR      r0,[pc,#436] ; [0x19b0] = 0x400004
        0x000017f8:    e2844001    .@..    ADD      r4,r4,#1
        0x000017fc:    e5901000    ....    LDR      r1,[r0,#0]
        0x00001800:    e2811001    ....    ADD      r1,r1,#1
        0x00001804:    e5801000    ....    STR      r1,[r0,#0]
        0x00001808:    e59f021c    ....    LDR      r0,[pc,#540] ; [0x1a2c] = 0x40000c
        0x0000180c:    e5901000    ....    LDR      r1,[r0,#0]
        0x00001810:    e2811001    ....    ADD      r1,r1,#1
        0x00001814:    e5801000    ....    STR      r1,[r0,#0]
        0x00001818:    e5980004    ....    LDR      r0,[r8,#4]
        0x0000181c:    e1500004    ..P.    CMP      r0,r4
        0x00001820:    8affffd0    ....    BHI      0x1768 ; t_init_deltas + 20
        0x00001824:    e8bd81f0    ....    POP      {r4-r8,pc}
    t_switch_to_bp
        0x00001828:    e92d4010    .@-.    PUSH     {r4,lr}
        0x0000182c:    eb00040d    ....    BL       cpu_int_disable ; 0x2868
        0x00001830:    e1a04000    .@..    MOV      r4,r0
        0x00001834:    e59f11b4    ....    LDR      r1,[pc,#436] ; [0x19f0] = 0x400000
        0x00001838:    e3a00001    ....    MOV      r0,#1
        0x0000183c:    e5c10000    ....    STRB     r0,[r1,#0]
        0x00001840:    e1a03000    .0..    MOV      r3,r0
        0x00001844:    e3a02000    . ..    MOV      r2,#0
        0x00001848:    e1a01002    ....    MOV      r1,r2
        0x0000184c:    e24f0c01    ..O.    ADR      r0,{pc}-0xf8 ; 0x1754
        0x00001850:    fa000a96    ....    BLX      spin1_schedule_callback ; 0x42b0
        0x00001854:    e59f01c0    ....    LDR      r0,[pc,#448] ; [0x1a1c] = 0x400278
        0x00001858:    e5901000    ....    LDR      r1,[r0,#0]
        0x0000185c:    e5900004    ....    LDR      r0,[r0,#4]
        0x00001860:    e1510000    ..Q.    CMP      r1,r0
        0x00001864:    059f118c    ....    LDREQ    r1,[pc,#396] ; [0x19f8] = 0x400001
        0x00001868:    03a00000    ....    MOVEQ    r0,#0
        0x0000186c:    05c10000    ....    STRBEQ   r0,[r1,#0]
        0x00001870:    0a000004    ....    BEQ      0x1888 ; t_switch_to_bp + 96
        0x00001874:    e3a02000    . ..    MOV      r2,#0
        0x00001878:    e3a03002    .0..    MOV      r3,#2
        0x0000187c:    e1a01002    ....    MOV      r1,r2
        0x00001880:    e24f0e2a    *.O.    ADR      r0,{pc}-0x298 ; 0x15e8
        0x00001884:    fa000a89    ....    BLX      spin1_schedule_callback ; 0x42b0
        0x00001888:    e1a00004    ....    MOV      r0,r4
        0x0000188c:    e8bd4010    .@..    POP      {r4,lr}
        0x00001890:    ea0003f8    ....    B        cpu_int_restore ; 0x2878
    tf_advance_event
        0x00001894:    e92d41f0    .A-.    PUSH     {r4-r8,lr}
        0x00001898:    e3a05001    .P..    MOV      r5,#1
        0x0000189c:    e59f1120     ...    LDR      r1,[pc,#288] ; [0x19c4] = 0x400058
        0x000018a0:    e59f4160    `A..    LDR      r4,[pc,#352] ; [0x1a08] = 0x400064
        0x000018a4:    e5910000    ....    LDR      r0,[r1,#0]
        0x000018a8:    e59f61b0    .a..    LDR      r6,[pc,#432] ; [0x1a60] = 0x4000a8
        0x000018ac:    e2800001    ....    ADD      r0,r0,#1
        0x000018b0:    e5810000    ....    STR      r0,[r1,#0]
        0x000018b4:    e59f1110    ....    LDR      r1,[pc,#272] ; [0x19cc] = 0x40005c
        0x000018b8:    e59f20fc    . ..    LDR      r2,[pc,#252] ; [0x19bc] = 0x400160
        0x000018bc:    e5913000    .0..    LDR      r3,[r1,#0]
        0x000018c0:    e5941000    ....    LDR      r1,[r4,#0]
        0x000018c4:    e1500003    ..P.    CMP      r0,r3
        0x000018c8:    3a000009    ...:    BCC      0x18f4 ; tf_advance_event + 96
        0x000018cc:    e59f0138    8...    LDR      r0,[pc,#312] ; [0x1a0c] = 0x40009c
        0x000018d0:    e5801000    ....    STR      r1,[r0,#0]
        0x000018d4:    e5845000    .P..    STR      r5,[r4,#0]
        0x000018d8:    e5865000    .P..    STR      r5,[r6,#0]
        0x000018dc:    e5d20001    ....    LDRB     r0,[r2,#1]
        0x000018e0:    e3500000    ..P.    CMP      r0,#0
        0x000018e4:    08bd41f0    .A..    POPEQ    {r4-r8,lr}
        0x000018e8:    0afffeab    ....    BEQ      t_advance_example ; 0x139c
        0x000018ec:    18bd41f0    .A..    POPNE    {r4-r8,lr}
        0x000018f0:    1affffcc    ....    BNE      t_switch_to_bp ; 0x1828
        0x000018f4:    e59f20a8    . ..    LDR      r2,[pc,#168] ; [0x19a4] = 0x4001f4
        0x000018f8:    e5d23001    .0..    LDRB     r3,[r2,#1]
        0x000018fc:    e3530000    ..S.    CMP      r3,#0
        0x00001900:    05d23000    .0..    LDRBEQ   r3,[r2,#0]
        0x00001904:    03530000    ..S.    CMPEQ    r3,#0
        0x00001908:    0a000020     ...    BEQ      0x1990 ; tf_advance_event + 252
        0x0000190c:    e59f30c4    .0..    LDR      r3,[pc,#196] ; [0x19d8] = 0x4000c4
        0x00001910:    e592c004    ....    LDR      r12,[r2,#4]
        0x00001914:    e593e000    ....    LDR      lr,[r3,#0]
        0x00001918:    e08cc00e    ....    ADD      r12,r12,lr
        0x0000191c:    e583c000    ....    STR      r12,[r3,#0]
        0x00001920:    e5d2206a    j ..    LDRB     r2,[r2,#0x6a]
        0x00001924:    e3520000    ..R.    CMP      r2,#0
        0x00001928:    0a000018    ....    BEQ      0x1990 ; tf_advance_event + 252
        0x0000192c:    e59f209c    . ..    LDR      r2,[pc,#156] ; [0x19d0] = 0x400060
        0x00001930:    e59f70a4    .p..    LDR      r7,[pc,#164] ; [0x19dc] = 0x4000a0
        0x00001934:    e5922000    . ..    LDR      r2,[r2,#0]
        0x00001938:    e082c000    ....    ADD      r12,r2,r0
        0x0000193c:    e59f0090    ....    LDR      r0,[pc,#144] ; [0x19d4] = 0x400080
        0x00001940:    e59f2098    . ..    LDR      r2,[pc,#152] ; [0x19e0] = 0x400078
        0x00001944:    e590e000    ....    LDR      lr,[r0,#0]
        0x00001948:    e79e320c    .2..    LDR      r3,[lr,r12,LSL #4]
        0x0000194c:    e59f0068    h...    LDR      r0,[pc,#104] ; [0x19bc] = 0x400160
        0x00001950:    e5922000    . ..    LDR      r2,[r2,#0]
        0x00001954:    e3730801    ..s.    CMN      r3,#0x10000
        0x00001958:    e590000c    ....    LDR      r0,[r0,#0xc]
        0x0000195c:    05923004    .0..    LDREQ    r3,[r2,#4]
        0x00001960:    e0030390    ....    MUL      r3,r0,r3
        0x00001964:    e1a03823    #8..    LSR      r3,r3,#16
        0x00001968:    e5873000    .0..    STR      r3,[r7,#0]
        0x0000196c:    e08e320c    .2..    ADD      r3,lr,r12,LSL #4
        0x00001970:    e5933004    .0..    LDR      r3,[r3,#4]
        0x00001974:    e59fc068    h...    LDR      r12,[pc,#104] ; [0x19e4] = 0x4000a4
        0x00001978:    e3730801    ..s.    CMN      r3,#0x10000
        0x0000197c:    05922008    . ..    LDREQ    r2,[r2,#8]
        0x00001980:    00000092    ....    MULEQ    r0,r2,r0
        0x00001984:    10000093    ....    MULNE    r0,r3,r0
        0x00001988:    e1a00820     ...    LSR      r0,r0,#16
        0x0000198c:    e58c0000    ....    STR      r0,[r12,#0]
        0x00001990:    e2810001    ....    ADD      r0,r1,#1
        0x00001994:    e5840000    ....    STR      r0,[r4,#0]
        0x00001998:    e5865000    .P..    STR      r5,[r6,#0]
        0x0000199c:    e8bd81f0    ....    POP      {r4-r8,pc}
    $d
        0x000019a0:    004000b0    ..@.    DCD    4194480
        0x000019a4:    004001f4    ..@.    DCD    4194804
        0x000019a8:    004000bc    ..@.    DCD    4194492
        0x000019ac:    00400094    ..@.    DCD    4194452
        0x000019b0:    00400004    ..@.    DCD    4194308
        0x000019b4:    00400008    ..@.    DCD    4194312
        0x000019b8:    00400054    T.@.    DCD    4194388
        0x000019bc:    00400160    `.@.    DCD    4194656
        0x000019c0:    00400050    P.@.    DCD    4194384
        0x000019c4:    00400058    X.@.    DCD    4194392
        0x000019c8:    0040007c    |.@.    DCD    4194428
        0x000019cc:    0040005c    \.@.    DCD    4194396
        0x000019d0:    00400060    `.@.    DCD    4194400
        0x000019d4:    00400080    ..@.    DCD    4194432
        0x000019d8:    004000c4    ..@.    DCD    4194500
        0x000019dc:    004000a0    ..@.    DCD    4194464
        0x000019e0:    00400078    x.@.    DCD    4194424
        0x000019e4:    004000a4    ..@.    DCD    4194468
        0x000019e8:    00400002    ..@.    DCD    4194306
        0x000019ec:    00000e34    4...    DCD    3636
        0x000019f0:    00400000    ..@.    DCD    4194304
        0x000019f4:    0040026c    l.@.    DCD    4194924
        0x000019f8:    00400001    ..@.    DCD    4194305
        0x000019fc:    00001c88    ....    DCD    7304
        0x00001a00:    0040008c    ..@.    DCD    4194444
        0x00001a04:    00400038    8.@.    DCD    4194360
        0x00001a08:    00400064    d.@.    DCD    4194404
        0x00001a0c:    0040009c    ..@.    DCD    4194460
        0x00001a10:    00004684    .F..    DCD    18052
        0x00001a14:    004000b8    ..@.    DCD    4194488
        0x00001a18:    004000ec    ..@.    DCD    4194540
        0x00001a1c:    00400278    x.@.    DCD    4194936
        0x00001a20:    00400018    ..@.    DCD    4194328
        0x00001a24:    0040002c    ,.@.    DCD    4194348
        0x00001a28:    00400098    ..@.    DCD    4194456
        0x00001a2c:    0040000c    ..@.    DCD    4194316
        0x00001a30:    6e695f74    t_in    DCD    1852399476
        0x00001a34:    645f7469    it_d    DCD    1683977321
        0x00001a38:    61746c65    elta    DCD    1635019877
        0x00001a3c:    73203a73    s: s    DCD    1931491955
        0x00001a40:    69646e65    endi    DCD    1768189541
        0x00001a44:    7020676e    ng p    DCD    1881171822
        0x00001a48:    656b6361    acke    DCD    1701536609
        0x00001a4c:    69772074    t wi    DCD    1769414772
        0x00001a50:    61706874    thpa    DCD    1634756724
        0x00001a54:    616f6c79    yloa    DCD    1634692217
        0x00001a58:    64252064    d %d    DCD    1680154724
        0x00001a5c:    0000000a    ....    DCD    10
        0x00001a60:    004000a8    ..@.    DCD    4194472
    $a
    tf_advance_tick
        0x00001a64:    e51f006c    l...    LDR      r0,[pc,#-108] ; [0x1a00] = 0x40008c
        0x00001a68:    e92d4070    p@-.    PUSH     {r4-r6,lr}
        0x00001a6c:    e3a01000    ....    MOV      r1,#0
        0x00001a70:    e5801000    ....    STR      r1,[r0,#0]
        0x00001a74:    e51f00d8    ....    LDR      r0,[pc,#-216] ; [0x19a4] = 0x4001f4
        0x00001a78:    e59f4998    .I..    LDR      r4,[pc,#2456] ; [0x2418] = 0x4000ac
        0x00001a7c:    e5d00028    (...    LDRB     r0,[r0,#0x28]
        0x00001a80:    e51f5080    .P..    LDR      r5,[pc,#-128] ; [0x1a08] = 0x400064
        0x00001a84:    e3500000    ..P.    CMP      r0,#0
        0x00001a88:    0a000019    ....    BEQ      0x1af4 ; tf_advance_tick + 144
        0x00001a8c:    e51f00d8    ....    LDR      r0,[pc,#-216] ; [0x19bc] = 0x400160
        0x00001a90:    e5901004    ....    LDR      r1,[r0,#4]
        0x00001a94:    e2412001    . A.    SUB      r2,r1,#1
        0x00001a98:    e51f10e0    ....    LDR      r1,[pc,#-224] ; [0x19c0] = 0x400050
        0x00001a9c:    e5913000    .0..    LDR      r3,[r1,#0]
        0x00001aa0:    e2851000    ....    ADD      r1,r5,#0
        0x00001aa4:    e1520003    ..R.    CMP      r2,r3
        0x00001aa8:    051f20f8    . ..    LDREQ    r2,[pc,#-248] ; [0x19b8] = 0x400054
        0x00001aac:    05900008    ....    LDREQ    r0,[r0,#8]
        0x00001ab0:    05922000    . ..    LDREQ    r2,[r2,#0]
        0x00001ab4:    02400001    ..@.    SUBEQ    r0,r0,#1
        0x00001ab8:    01500002    ..P.    CMPEQ    r0,r2
        0x00001abc:    051f20f8    . ..    LDREQ    r2,[pc,#-248] ; [0x19cc] = 0x40005c
        0x00001ac0:    051f0104    ....    LDREQ    r0,[pc,#-260] ; [0x19c4] = 0x400058
        0x00001ac4:    05922000    . ..    LDREQ    r2,[r2,#0]
        0x00001ac8:    05900000    ....    LDREQ    r0,[r0,#0]
        0x00001acc:    e5911000    ....    LDR      r1,[r1,#0]
        0x00001ad0:    02422001    . B.    SUBEQ    r2,r2,#1
        0x00001ad4:    01500002    ..P.    CMPEQ    r0,r2
        0x00001ad8:    1a000003    ....    BNE      0x1aec ; tf_advance_tick + 136
        0x00001adc:    e5d40000    ....    LDRB     r0,[r4,#0]
        0x00001ae0:    e3500000    ..P.    CMP      r0,#0
        0x00001ae4:    13a00000    ....    MOVNE    r0,#0
        0x00001ae8:    1a000000    ....    BNE      0x1af0 ; tf_advance_tick + 140
        0x00001aec:    e3a00001    ....    MOV      r0,#1
        0x00001af0:    ebfffccf    ....    BL       send_outputs_to_host ; 0xe34
        0x00001af4:    e51f00f8    ....    LDR      r0,[pc,#-248] ; [0x1a04] = 0x400038
        0x00001af8:    e5901000    ....    LDR      r1,[r0,#0]
        0x00001afc:    e2811001    ....    ADD      r1,r1,#1
        0x00001b00:    e5801000    ....    STR      r1,[r0,#0]
        0x00001b04:    e5d40000    ....    LDRB     r0,[r4,#0]
        0x00001b08:    e3500000    ..P.    CMP      r0,#0
        0x00001b0c:    18bd4070    p@..    POPNE    {r4-r6,lr}
        0x00001b10:    1affff5f    _...    BNE      tf_advance_event ; 0x1894
        0x00001b14:    e5950000    ....    LDR      r0,[r5,#0]
        0x00001b18:    e2800001    ....    ADD      r0,r0,#1
        0x00001b1c:    e5850000    ....    STR      r0,[r5,#0]
        0x00001b20:    e51f00c8    ....    LDR      r0,[pc,#-200] ; [0x1a60] = 0x4000a8
        0x00001b24:    e5901000    ....    LDR      r1,[r0,#0]
        0x00001b28:    e2811001    ....    ADD      r1,r1,#1
        0x00001b2c:    e5801000    ....    STR      r1,[r0,#0]
        0x00001b30:    e8bd8070    p...    POP      {r4-r6,pc}
    tf_send_stop
        0x00001b34:    e92d4070    p@-.    PUSH     {r4-r6,lr}
        0x00001b38:    e59f48dc    .H..    LDR      r4,[pc,#2268] ; [0x241c] = 0x4000d5
        0x00001b3c:    e5d40000    ....    LDRB     r0,[r4,#0]
        0x00001b40:    e3500000    ..P.    CMP      r0,#0
        0x00001b44:    159f08d4    ....    LDRNE    r0,[pc,#2260] ; [0x2420] = 0x4000d4
        0x00001b48:    15d00000    ....    LDRBNE   r0,[r0,#0]
        0x00001b4c:    13500000    ..P.    CMPNE    r0,#0
        0x00001b50:    03a00000    ....    MOVEQ    r0,#0
        0x00001b54:    13a00001    ....    MOVNE    r0,#1
        0x00001b58:    e5c40000    ....    STRB     r0,[r4,#0]
        0x00001b5c:    e51f01c0    ....    LDR      r0,[pc,#-448] ; [0x19a4] = 0x4001f4
        0x00001b60:    e5d0006a    j...    LDRB     r0,[r0,#0x6a]
        0x00001b64:    e3500000    ..P.    CMP      r0,#0
        0x00001b68:    0a000014    ....    BEQ      0x1bc0 ; tf_send_stop + 140
        0x00001b6c:    e3a00e7d    }...    MOV      r0,#0x7d0
        0x00001b70:    fa0009b2    ....    BLX      spin1_delay_us ; 0x4240
        0x00001b74:    e51f011c    ....    LDR      r0,[pc,#-284] ; [0x1a60] = 0x4000a8
        0x00001b78:    e51f11a4    ....    LDR      r1,[pc,#-420] ; [0x19dc] = 0x4000a0
        0x00001b7c:    e5900000    ....    LDR      r0,[r0,#0]
        0x00001b80:    e5911000    ....    LDR      r1,[r1,#0]
        0x00001b84:    e1500001    ..P.    CMP      r0,r1
        0x00001b88:    0a000006    ....    BEQ      0x1ba8 ; tf_send_stop + 116
        0x00001b8c:    e5d41000    ....    LDRB     r1,[r4,#0]
        0x00001b90:    e3510000    ..Q.    CMP      r1,#0
        0x00001b94:    0a000005    ....    BEQ      0x1bb0 ; tf_send_stop + 124
        0x00001b98:    e51f11bc    ....    LDR      r1,[pc,#-444] ; [0x19e4] = 0x4000a4
        0x00001b9c:    e5911000    ....    LDR      r1,[r1,#0]
        0x00001ba0:    e1500001    ..P.    CMP      r0,r1
        0x00001ba4:    3a000001    ...:    BCC      0x1bb0 ; tf_send_stop + 124
        0x00001ba8:    e3a00001    ....    MOV      r0,#1
        0x00001bac:    ea000000    ....    B        0x1bb4 ; tf_send_stop + 128
        0x00001bb0:    e3a00000    ....    MOV      r0,#0
        0x00001bb4:    e59f185c    \...    LDR      r1,[pc,#2140] ; [0x2418] = 0x4000ac
        0x00001bb8:    e5c40000    ....    STRB     r0,[r4,#0]
        0x00001bbc:    e5c10000    ....    STRB     r0,[r1,#0]
        0x00001bc0:    e59f585c    \X..    LDR      r5,[pc,#2140] ; [0x2424] = 0x4000dc
        0x00001bc4:    e5d41000    ....    LDRB     r1,[r4,#0]
        0x00001bc8:    e5950000    ....    LDR      r0,[r5,#0]
        0x00001bcc:    e3a02000    . ..    MOV      r2,#0
        0x00001bd0:    e1800001    ....    ORR      r0,r0,r1
        0x00001bd4:    e1a01002    ....    MOV      r1,r2
        0x00001bd8:    fa0009d1    ....    BLX      spin1_send_mc_packet ; 0x4324
        0x00001bdc:    e3500000    ..P.    CMP      r0,#0
        0x00001be0:    0afffff7    ....    BEQ      0x1bc4 ; tf_send_stop + 144
        0x00001be4:    e59f083c    <...    LDR      r0,[pc,#2108] ; [0x2428] = 0x400024
        0x00001be8:    e5901000    ....    LDR      r1,[r0,#0]
        0x00001bec:    e2811001    ....    ADD      r1,r1,#1
        0x00001bf0:    e5801000    ....    STR      r1,[r0,#0]
        0x00001bf4:    e3a00001    ....    MOV      r0,#1
        0x00001bf8:    e5c40000    ....    STRB     r0,[r4,#0]
        0x00001bfc:    e8bd8070    p...    POP      {r4-r6,pc}
    store_output_deriv
        0x00001c00:    e12fff1e    ../.    BX       lr
    compute_out
        0x00001c04:    e92d41f0    .A-.    PUSH     {r4-r8,lr}
        0x00001c08:    e1a07000    .p..    MOV      r7,r0
        0x00001c0c:    e51f1274    t...    LDR      r1,[pc,#-628] ; [0x19a0] = 0x4000b0
        0x00001c10:    e3a00000    ....    MOV      r0,#0
        0x00001c14:    e5911000    ....    LDR      r1,[r1,#0]
        0x00001c18:    e51f527c    |R..    LDR      r5,[pc,#-636] ; [0x19a4] = 0x4001f4
        0x00001c1c:    e0811087    ....    ADD      r1,r1,r7,LSL #1
        0x00001c20:    e59f6804    .h..    LDR      r6,[pc,#2052] ; [0x242c] = 0x4670
        0x00001c24:    e1a04000    .@..    MOV      r4,r0
        0x00001c28:    e1c100b0    ....    STRH     r0,[r1,#0]
        0x00001c2c:    ea000005    ....    B        0x1c48 ; compute_out + 68
        0x00001c30:    e0850104    ....    ADD      r0,r5,r4,LSL #2
        0x00001c34:    e5900048    H...    LDR      r0,[r0,#0x48]
        0x00001c38:    e7961100    ....    LDR      r1,[r6,r0,LSL #2]
        0x00001c3c:    e1a00007    ....    MOV      r0,r7
        0x00001c40:    e12fff31    1./.    BLX      r1
        0x00001c44:    e2844001    .@..    ADD      r4,r4,#1
        0x00001c48:    e5950044    D...    LDR      r0,[r5,#0x44]
        0x00001c4c:    e1500004    ..P.    CMP      r0,r4
        0x00001c50:    8afffff6    ....    BHI      0x1c30 ; compute_out + 44
        0x00001c54:    e51f02a0    ....    LDR      r0,[pc,#-672] ; [0x19bc] = 0x400160
        0x00001c58:    e5d00001    ....    LDRB     r0,[r0,#1]
        0x00001c5c:    e3500000    ..P.    CMP      r0,#0
        0x00001c60:    15d50000    ....    LDRBNE   r0,[r5,#0]
        0x00001c64:    13500000    ..P.    CMPNE    r0,#0
        0x00001c68:    15d5106b    k...    LDRBNE   r1,[r5,#0x6b]
        0x00001c6c:    159f07bc    ....    LDRNE    r0,[pc,#1980] ; [0x2430] = 0x46b8
        0x00001c70:    17901101    ....    LDRNE    r1,[r0,r1,LSL #2]
        0x00001c74:    13510000    ..Q.    CMPNE    r1,#0
        0x00001c78:    08bd81f0    ....    POPEQ    {r4-r8,pc}
        0x00001c7c:    e1a00007    ....    MOV      r0,r7
        0x00001c80:    e8bd41f0    .A..    POP      {r4-r8,lr}
        0x00001c84:    e12fff11    ../.    BX       r1
    tf_process
        0x00001c88:    e92d47f0    .G-.    PUSH     {r4-r10,lr}
        0x00001c8c:    eb0002f5    ....    BL       cpu_int_disable ; 0x2868
        0x00001c90:    e51f72f4    .r..    LDR      r7,[pc,#-756] ; [0x19a4] = 0x4001f4
        0x00001c94:    e59f8798    ....    LDR      r8,[pc,#1944] ; [0x2434] = 0x4000d7
        0x00001c98:    e59f6798    .g..    LDR      r6,[pc,#1944] ; [0x2438] = 0x4000d0
        0x00001c9c:    e51f52b0    .R..    LDR      r5,[pc,#-688] ; [0x19f4] = 0x40026c
        0x00001ca0:    ea000061    a...    B        0x1e2c ; tf_process + 420
        0x00001ca4:    e5951008    ....    LDR      r1,[r5,#8]
        0x00001ca8:    e5952000    . ..    LDR      r2,[r5,#0]
        0x00001cac:    e7914182    .A..    LDR      r4,[r1,r2,LSL #3]
        0x00001cb0:    e5952000    . ..    LDR      r2,[r5,#0]
        0x00001cb4:    e0811182    ....    ADD      r1,r1,r2,LSL #3
        0x00001cb8:    e5919004    ....    LDR      r9,[r1,#4]
        0x00001cbc:    e5951000    ....    LDR      r1,[r5,#0]
        0x00001cc0:    e2811001    ....    ADD      r1,r1,#1
        0x00001cc4:    e20110ff    ....    AND      r1,r1,#0xff
        0x00001cc8:    e5851000    ....    STR      r1,[r5,#0]
        0x00001ccc:    eb0002e9    ....    BL       cpu_int_restore ; 0x2878
        0x00001cd0:    e59f0764    d...    LDR      r0,[pc,#1892] ; [0x243c] = 0x400014
        0x00001cd4:    e3140b02    ....    TST      r4,#0x800
        0x00001cd8:    e5901000    ....    LDR      r1,[r0,#0]
        0x00001cdc:    e20440ff    .@..    AND      r4,r4,#0xff
        0x00001ce0:    e2811001    ....    ADD      r1,r1,#1
        0x00001ce4:    e5801000    ....    STR      r1,[r0,#0]
        0x00001ce8:    151f02cc    ....    LDRNE    r0,[pc,#-716] ; [0x1a24] = 0x40002c
        0x00001cec:    15901000    ....    LDRNE    r1,[r0,#0]
        0x00001cf0:    12811001    ....    ADDNE    r1,r1,#1
        0x00001cf4:    15801000    ....    STRNE    r1,[r0,#0]
        0x00001cf8:    e59f0740    @...    LDR      r0,[pc,#1856] ; [0x2440] = 0x4000b4
        0x00001cfc:    e5900000    ....    LDR      r0,[r0,#0]
        0x00001d00:    e7809104    ....    STR      r9,[r0,r4,LSL #2]
        0x00001d04:    e1a00004    ....    MOV      r0,r4
        0x00001d08:    ebffffbd    ....    BL       compute_out ; 0x1c04
        0x00001d0c:    e51f0374    t...    LDR      r0,[pc,#-884] ; [0x19a0] = 0x4000b0
        0x00001d10:    e51f936c    l...    LDR      r9,[pc,#-876] ; [0x19ac] = 0x400094
        0x00001d14:    e5900000    ....    LDR      r0,[r0,#0]
        0x00001d18:    e0800084    ....    ADD      r0,r0,r4,LSL #1
        0x00001d1c:    e1d0a0f0    ....    LDRSH    r10,[r0,#0]
        0x00001d20:    e5990000    ....    LDR      r0,[r9,#0]
        0x00001d24:    e3a02001    . ..    MOV      r2,#1
        0x00001d28:    e1800004    ....    ORR      r0,r0,r4
        0x00001d2c:    e1a0100a    ....    MOV      r1,r10
        0x00001d30:    fa00097b    {...    BLX      spin1_send_mc_packet ; 0x4324
        0x00001d34:    e3500000    ..P.    CMP      r0,#0
        0x00001d38:    0afffff8    ....    BEQ      0x1d20 ; tf_process + 152
        0x00001d3c:    e51f0394    ....    LDR      r0,[pc,#-916] ; [0x19b0] = 0x400004
        0x00001d40:    e5901000    ....    LDR      r1,[r0,#0]
        0x00001d44:    e2811001    ....    ADD      r1,r1,#1
        0x00001d48:    e5801000    ....    STR      r1,[r0,#0]
        0x00001d4c:    e51f03a0    ....    LDR      r0,[pc,#-928] ; [0x19b4] = 0x400008
        0x00001d50:    e5901000    ....    LDR      r1,[r0,#0]
        0x00001d54:    e2811001    ....    ADD      r1,r1,#1
        0x00001d58:    e5801000    ....    STR      r1,[r0,#0]
        0x00001d5c:    e5d70000    ....    LDRB     r0,[r7,#0]
        0x00001d60:    e3500000    ..P.    CMP      r0,#0
        0x00001d64:    159f16d8    ....    LDRNE    r1,[pc,#1752] ; [0x2444] = 0x4000d8
        0x00001d68:    11a00004    ....    MOVNE    r0,r4
        0x00001d6c:    15911000    ....    LDRNE    r1,[r1,#0]
        0x00001d70:    112fff31    1./.    BLXNE    r1
        0x00001d74:    e51f137c    |...    LDR      r1,[pc,#-892] ; [0x1a00] = 0x40008c
        0x00001d78:    e5910000    ....    LDR      r0,[r1,#0]
        0x00001d7c:    e2800001    ....    ADD      r0,r0,#1
        0x00001d80:    e5810000    ....    STR      r0,[r1,#0]
        0x00001d84:    e5971018    ....    LDR      r1,[r7,#0x18]
        0x00001d88:    e1510000    ..Q.    CMP      r1,r0
        0x00001d8c:    1a000025    %...    BNE      0x1e28 ; tf_process + 416
        0x00001d90:    e5d70000    ....    LDRB     r0,[r7,#0]
        0x00001d94:    e3500000    ..P.    CMP      r0,#0
        0x00001d98:    0a000013    ....    BEQ      0x1dec ; tf_process + 356
        0x00001d9c:    eb0002b1    ....    BL       cpu_int_disable ; 0x2868
        0x00001da0:    e5d81000    ....    LDRB     r1,[r8,#0]
        0x00001da4:    e3510000    ..Q.    CMP      r1,#0
        0x00001da8:    1a00000c    ....    BNE      0x1de0 ; tf_process + 344
        0x00001dac:    e59f1694    ....    LDR      r1,[pc,#1684] ; [0x2448] = 0x4000d6
        0x00001db0:    e5d11000    ....    LDRB     r1,[r1,#0]
        0x00001db4:    e5c81000    ....    STRB     r1,[r8,#0]
        0x00001db8:    e5d7106a    j...    LDRB     r1,[r7,#0x6a]
        0x00001dbc:    e3510000    ..Q.    CMP      r1,#0
        0x00001dc0:    15961000    ....    LDRNE    r1,[r6,#0]
        0x00001dc4:    12411001    ..A.    SUBNE    r1,r1,#1
        0x00001dc8:    15861000    ....    STRNE    r1,[r6,#0]
        0x00001dcc:    eb0002a9    ....    BL       cpu_int_restore ; 0x2878
        0x00001dd0:    e3a01000    ....    MOV      r1,#0
        0x00001dd4:    e1a00001    ....    MOV      r0,r1
        0x00001dd8:    ebffff55    U...    BL       tf_send_stop ; 0x1b34
        0x00001ddc:    ea000002    ....    B        0x1dec ; tf_process + 356
        0x00001de0:    e2411001    ..A.    SUB      r1,r1,#1
        0x00001de4:    e5c81000    ....    STRB     r1,[r8,#0]
        0x00001de8:    eb0002a2    ....    BL       cpu_int_restore ; 0x2878
        0x00001dec:    eb00029d    ....    BL       cpu_int_disable ; 0x2868
        0x00001df0:    e5961000    ....    LDR      r1,[r6,#0]
        0x00001df4:    e3510000    ..Q.    CMP      r1,#0
        0x00001df8:    1a000007    ....    BNE      0x1e1c ; tf_process + 404
        0x00001dfc:    e59f1648    H...    LDR      r1,[pc,#1608] ; [0x244c] = 0x4000cc
        0x00001e00:    e5911000    ....    LDR      r1,[r1,#0]
        0x00001e04:    e5861000    ....    STR      r1,[r6,#0]
        0x00001e08:    eb00029a    ....    BL       cpu_int_restore ; 0x2878
        0x00001e0c:    e3a01000    ....    MOV      r1,#0
        0x00001e10:    e1a00001    ....    MOV      r0,r1
        0x00001e14:    ebffff12    ....    BL       tf_advance_tick ; 0x1a64
        0x00001e18:    ea000002    ....    B        0x1e28 ; tf_process + 416
        0x00001e1c:    e2411001    ..A.    SUB      r1,r1,#1
        0x00001e20:    e5861000    ....    STR      r1,[r6,#0]
        0x00001e24:    eb000293    ....    BL       cpu_int_restore ; 0x2878
        0x00001e28:    eb00028e    ....    BL       cpu_int_disable ; 0x2868
        0x00001e2c:    e5951000    ....    LDR      r1,[r5,#0]
        0x00001e30:    e5952004    . ..    LDR      r2,[r5,#4]
        0x00001e34:    e1510002    ..Q.    CMP      r1,r2
        0x00001e38:    1affff99    ....    BNE      0x1ca4 ; tf_process + 28
        0x00001e3c:    e51f244c    L$..    LDR      r2,[pc,#-1100] ; [0x19f8] = 0x400001
        0x00001e40:    e3a01000    ....    MOV      r1,#0
        0x00001e44:    e5c21000    ....    STRB     r1,[r2,#0]
        0x00001e48:    e8bd47f0    .G..    POP      {r4-r10,lr}
        0x00001e4c:    ea000289    ....    B        cpu_int_restore ; 0x2878
    store_outputs
        0x00001e50:    e12fff1e    ../.    BX       lr
    store_targets
        0x00001e54:    e12fff1e    ../.    BX       lr
    out_logistic
        0x00001e58:    e92d4010    .@-.    PUSH     {r4,lr}
        0x00001e5c:    e1a04000    .@..    MOV      r4,r0
        0x00001e60:    e59f05d8    ....    LDR      r0,[pc,#1496] ; [0x2440] = 0x4000b4
        0x00001e64:    e5900000    ....    LDR      r0,[r0,#0]
        0x00001e68:    e7900104    ....    LDR      r0,[r0,r4,LSL #2]
        0x00001e6c:    ebfffcc9    ....    BL       sigmoid ; 0x1198
        0x00001e70:    e51f14d8    ....    LDR      r1,[pc,#-1240] ; [0x19a0] = 0x4000b0
        0x00001e74:    e5911000    ....    LDR      r1,[r1,#0]
        0x00001e78:    e0811084    ....    ADD      r1,r1,r4,LSL #1
        0x00001e7c:    e1c100b0    ....    STRH     r0,[r1,#0]
        0x00001e80:    e8bd8010    ....    POP      {r4,pc}
    out_integr
        0x00001e84:    e92d4ff0    .O-.    PUSH     {r4-r11,lr}
        0x00001e88:    e1a04000    .@..    MOV      r4,r0
        0x00001e8c:    e51fa4ec    ....    LDR      r10,[pc,#-1260] ; [0x19a8] = 0x4000bc
        0x00001e90:    e51f54f8    .T..    LDR      r5,[pc,#-1272] ; [0x19a0] = 0x4000b0
        0x00001e94:    e59a0000    ....    LDR      r0,[r10,#0]
        0x00001e98:    e51f24fc    .$..    LDR      r2,[pc,#-1276] ; [0x19a4] = 0x4001f4
        0x00001e9c:    e0800084    ....    ADD      r0,r0,r4,LSL #1
        0x00001ea0:    e1d080f0    ....    LDRSH    r8,[r0,#0]
        0x00001ea4:    e5950000    ....    LDR      r0,[r5,#0]
        0x00001ea8:    e5926040    @`..    LDR      r6,[r2,#0x40]
        0x00001eac:    e0800084    ....    ADD      r0,r0,r4,LSL #1
        0x00001eb0:    e1d000f0    ....    LDRSH    r0,[r0,#0]
        0x00001eb4:    e1a09fc8    ....    ASR      r9,r8,#31
        0x00001eb8:    e1a01fc0    ....    ASR      r1,r0,#31
        0x00001ebc:    e0500008    ..P.    SUBS     r0,r0,r8
        0x00001ec0:    e0832690    .&..    UMULL    r2,r3,r0,r6
        0x00001ec4:    e0c11009    ....    SBC      r1,r1,r9
        0x00001ec8:    e0213196    .1!.    MLA      r1,r6,r1,r3
        0x00001ecc:    e1a07fc6    ....    ASR      r7,r6,#31
        0x00001ed0:    e0211790    ..!.    MLA      r1,r0,r7,r1
        0x00001ed4:    e1a02822    "(..    LSR      r2,r2,#16
        0x00001ed8:    e1820801    ....    ORR      r0,r2,r1,LSL #16
        0x00001edc:    e59fb56c    l...    LDR      r11,[pc,#1388] ; [0x2450] = 0x7fff
        0x00001ee0:    e0906008    .`..    ADDS     r6,r0,r8
        0x00001ee4:    e0a98841    A...    ADC      r8,r9,r1,ASR #16
        0x00001ee8:    e05b2006    . [.    SUBS     r2,r11,r6
        0x00001eec:    e2f83000    .0..    RSCS     r3,r8,#0
        0x00001ef0:    b5950000    ....    LDRLT    r0,[r5,#0]
        0x00001ef4:    b0800084    ....    ADDLT    r0,r0,r4,LSL #1
        0x00001ef8:    b1c0b0b0    ....    STRHLT   r11,[r0,#0]
        0x00001efc:    ba000006    ....    BLT      0x1f1c ; out_integr + 152
        0x00001f00:    e59f754c    Lu..    LDR      r7,[pc,#1356] ; [0x2454] = 0xffff8001
        0x00001f04:    e0560007    ..V.    SUBS     r0,r6,r7
        0x00001f08:    e5950000    ....    LDR      r0,[r5,#0]
        0x00001f0c:    e2b81000    ....    ADCS     r1,r8,#0
        0x00001f10:    e0800084    ....    ADD      r0,r0,r4,LSL #1
        0x00001f14:    b1c070b0    .p..    STRHLT   r7,[r0,#0]
        0x00001f18:    a1c060b0    .`..    STRHGE   r6,[r0,#0]
        0x00001f1c:    e5950000    ....    LDR      r0,[r5,#0]
        0x00001f20:    e59a1000    ....    LDR      r1,[r10,#0]
        0x00001f24:    e0800084    ....    ADD      r0,r0,r4,LSL #1
        0x00001f28:    e1d000b0    ....    LDRH     r0,[r0,#0]
        0x00001f2c:    e0811084    ....    ADD      r1,r1,r4,LSL #1
        0x00001f30:    e1c100b0    ....    STRH     r0,[r1,#0]
        0x00001f34:    e8bd8ff0    ....    POP      {r4-r11,pc}
    out_hard_clamp
        0x00001f38:    e51f1568    h...    LDR      r1,[pc,#-1384] ; [0x19d8] = 0x4000c4
        0x00001f3c:    e59f2514    .%..    LDR      r2,[pc,#1300] ; [0x2458] = 0x400084
        0x00001f40:    e5911000    ....    LDR      r1,[r1,#0]
        0x00001f44:    e5922000    . ..    LDR      r2,[r2,#0]
        0x00001f48:    e0811000    ....    ADD      r1,r1,r0
        0x00001f4c:    e0821081    ....    ADD      r1,r2,r1,LSL #1
        0x00001f50:    e1d110f0    ....    LDRSH    r1,[r1,#0]
        0x00001f54:    e3710902    ..q.    CMN      r1,#0x8000
        0x00001f58:    151f25c0    .%..    LDRNE    r2,[pc,#-1472] ; [0x19a0] = 0x4000b0
        0x00001f5c:    15922000    . ..    LDRNE    r2,[r2,#0]
        0x00001f60:    10820080    ....    ADDNE    r0,r2,r0,LSL #1
        0x00001f64:    11c010b0    ....    STRHNE   r1,[r0,#0]
        0x00001f68:    e12fff1e    ../.    BX       lr
    out_bias
        0x00001f6c:    e51f25d4    .%..    LDR      r2,[pc,#-1492] ; [0x19a0] = 0x4000b0
        0x00001f70:    e3e01902    ....    MVN      r1,#0x8000
        0x00001f74:    e5922000    . ..    LDR      r2,[r2,#0]
        0x00001f78:    e0820080    ....    ADD      r0,r2,r0,LSL #1
        0x00001f7c:    e1c010b0    ....    STRH     r1,[r0,#0]
        0x00001f80:    e12fff1e    ../.    BX       lr
    out_weak_clamp
        0x00001f84:    e92d4ff0    .O-.    PUSH     {r4-r11,lr}
        0x00001f88:    e1a04000    .@..    MOV      r4,r0
        0x00001f8c:    e51f05bc    ....    LDR      r0,[pc,#-1468] ; [0x19d8] = 0x4000c4
        0x00001f90:    e59f14c0    ....    LDR      r1,[pc,#1216] ; [0x2458] = 0x400084
        0x00001f94:    e5900000    ....    LDR      r0,[r0,#0]
        0x00001f98:    e5911000    ....    LDR      r1,[r1,#0]
        0x00001f9c:    e0800004    ....    ADD      r0,r0,r4
        0x00001fa0:    e0810080    ....    ADD      r0,r1,r0,LSL #1
        0x00001fa4:    e1d0a0f0    ....    LDRSH    r10,[r0,#0]
        0x00001fa8:    e59f24ac    .$..    LDR      r2,[pc,#1196] ; [0x245c] = 0xffff8000
        0x00001fac:    e1a0bfca    ....    ASR      r11,r10,#31
        0x00001fb0:    e51f6618    .f..    LDR      r6,[pc,#-1560] ; [0x19a0] = 0x4000b0
        0x00001fb4:    e29b3001    .0..    ADDS     r3,r11,#1
        0x00001fb8:    e1a0000a    ....    MOV      r0,r10
        0x00001fbc:    01500002    ..P.    CMPEQ    r0,r2
        0x00001fc0:    08bd8ff0    ....    POPEQ    {r4-r11,pc}
        0x00001fc4:    e51f0628    (...    LDR      r0,[pc,#-1576] ; [0x19a4] = 0x4001f4
        0x00001fc8:    e590505c    \P..    LDR      r5,[r0,#0x5c]
        0x00001fcc:    e5960000    ....    LDR      r0,[r6,#0]
        0x00001fd0:    e1a09fc5    ....    ASR      r9,r5,#31
        0x00001fd4:    e0800084    ....    ADD      r0,r0,r4,LSL #1
        0x00001fd8:    e1d070f0    .p..    LDRSH    r7,[r0,#0]
        0x00001fdc:    e05a0007    ..Z.    SUBS     r0,r10,r7
        0x00001fe0:    e0832590    .%..    UMULL    r2,r3,r0,r5
        0x00001fe4:    e1a08fc7    ....    ASR      r8,r7,#31
        0x00001fe8:    e0cb1008    ....    SBC      r1,r11,r8
        0x00001fec:    e0213195    .1!.    MLA      r1,r5,r1,r3
        0x00001ff0:    e1a02822    "(..    LSR      r2,r2,#16
        0x00001ff4:    e0211990    ..!.    MLA      r1,r0,r9,r1
        0x00001ff8:    e1820801    ....    ORR      r0,r2,r1,LSL #16
        0x00001ffc:    e0905007    .P..    ADDS     r5,r0,r7
        0x00002000:    e59f7448    Ht..    LDR      r7,[pc,#1096] ; [0x2450] = 0x7fff
        0x00002004:    e0a88841    A...    ADC      r8,r8,r1,ASR #16
        0x00002008:    e0572005    . W.    SUBS     r2,r7,r5
        0x0000200c:    e2f83000    .0..    RSCS     r3,r8,#0
        0x00002010:    ba000006    ....    BLT      0x2030 ; out_weak_clamp + 172
        0x00002014:    e06777c7    .wg.    RSB      r7,r7,r7,ASR #15
        0x00002018:    e0550007    ..U.    SUBS     r0,r5,r7
        0x0000201c:    e2b81000    ....    ADCS     r1,r8,#0
        0x00002020:    a5960000    ....    LDRGE    r0,[r6,#0]
        0x00002024:    a0800084    ....    ADDGE    r0,r0,r4,LSL #1
        0x00002028:    a1c050b0    .P..    STRHGE   r5,[r0,#0]
        0x0000202c:    a8bd8ff0    ....    POPGE    {r4-r11,pc}
        0x00002030:    e5960000    ....    LDR      r0,[r6,#0]
        0x00002034:    e0800084    ....    ADD      r0,r0,r4,LSL #1
        0x00002038:    e1c070b0    .p..    STRH     r7,[r0,#0]
        0x0000203c:    e8bd8ff0    ....    POP      {r4-r11,pc}
    out_logistic_back
        0x00002040:    e92d4010    .@-.    PUSH     {r4,lr}
        0x00002044:    e1a04000    .@..    MOV      r4,r0
        0x00002048:    e59f03f0    ....    LDR      r0,[pc,#1008] ; [0x2440] = 0x4000b4
        0x0000204c:    e5900000    ....    LDR      r0,[r0,#0]
        0x00002050:    e7900104    ....    LDR      r0,[r0,r4,LSL #2]
        0x00002054:    ebfffc6f    o...    BL       sigmoid_prime ; 0x1218
        0x00002058:    e51f1648    H...    LDR      r1,[pc,#-1608] ; [0x1a18] = 0x4000ec
        0x0000205c:    e1a0cfc0    ....    ASR      r12,r0,#31
        0x00002060:    e5911000    ....    LDR      r1,[r1,#0]
        0x00002064:    e7b12184    .!..    LDR      r2,[r1,r4,LSL #3]!
        0x00002068:    e591e004    ....    LDR      lr,[r1,#4]
        0x0000206c:    e0843290    .2..    UMULL    r3,r4,r0,r2
        0x00002070:    e1a037a3    .7..    LSR      r3,r3,#15
        0x00002074:    e022429c    .B".    MLA      r2,r12,r2,r4
        0x00002078:    e020209e    .  .    MLA      r0,lr,r0,r2
        0x0000207c:    e1832880    .(..    ORR      r2,r3,r0,LSL #17
        0x00002080:    e1a007c0    ....    ASR      r0,r0,#15
        0x00002084:    e5810004    ....    STR      r0,[r1,#4]
        0x00002088:    e5812000    . ..    STR      r2,[r1,#0]
        0x0000208c:    e8bd8010    ....    POP      {r4,pc}
    out_integr_back
        0x00002090:    e12fff1e    ../.    BX       lr
    out_hard_clamp_back
        0x00002094:    e12fff1e    ../.    BX       lr
    out_weak_clamp_back
        0x00002098:    e12fff1e    ../.    BX       lr
    out_bias_back
        0x0000209c:    e51f168c    ....    LDR      r1,[pc,#-1676] ; [0x1a18] = 0x4000ec
        0x000020a0:    e5911000    ....    LDR      r1,[r1,#0]
        0x000020a4:    e0810180    ....    ADD      r0,r1,r0,LSL #3
        0x000020a8:    e3a01000    ....    MOV      r1,#0
        0x000020ac:    e5801000    ....    STR      r1,[r0,#0]
        0x000020b0:    e5801004    ....    STR      r1,[r0,#4]
        0x000020b4:    e12fff1e    ../.    BX       lr
    init_out_integr
        0x000020b8:    e92d4010    .@-.    PUSH     {r4,lr}
        0x000020bc:    e51f4720     G..    LDR      r4,[pc,#-1824] ; [0x19a4] = 0x4001f4
        0x000020c0:    e5940004    ....    LDR      r0,[r4,#4]
        0x000020c4:    e1a00080    ....    LSL      r0,r0,#1
        0x000020c8:    fa00086f    o...    BLX      spin1_malloc ; 0x428c
        0x000020cc:    e51f172c    ,...    LDR      r1,[pc,#-1836] ; [0x19a8] = 0x4000bc
        0x000020d0:    e3500000    ..P.    CMP      r0,#0
        0x000020d4:    e5810000    ....    STR      r0,[r1,#0]
        0x000020d8:    03a00001    ....    MOVEQ    r0,#1
        0x000020dc:    08bd8010    ....    POPEQ    {r4,pc}
        0x000020e0:    e3a00000    ....    MOV      r0,#0
        0x000020e4:    e1a02000    . ..    MOV      r2,r0
        0x000020e8:    e5943004    .0..    LDR      r3,[r4,#4]
        0x000020ec:    e1530000    ..S.    CMP      r3,r0
        0x000020f0:    85913000    .0..    LDRHI    r3,[r1,#0]
        0x000020f4:    80833080    .0..    ADDHI    r3,r3,r0,LSL #1
        0x000020f8:    82800001    ....    ADDHI    r0,r0,#1
        0x000020fc:    81c320b0    . ..    STRHHI   r2,[r3,#0]
        0x00002100:    8afffff8    ....    BHI      0x20e8 ; init_out_integr + 48
        0x00002104:    e3a00000    ....    MOV      r0,#0
        0x00002108:    e8bd8010    ....    POP      {r4,pc}
    init_out_hard_clamp
        0x0000210c:    e3a00000    ....    MOV      r0,#0
        0x00002110:    e12fff1e    ../.    BX       lr
    init_out_weak_clamp
        0x00002114:    e3a00000    ....    MOV      r0,#0
        0x00002118:    e12fff1e    ../.    BX       lr
    std_stop_crit
        0x0000211c:    e51f174c    L...    LDR      r1,[pc,#-1868] ; [0x19d8] = 0x4000c4
        0x00002120:    e5911000    ....    LDR      r1,[r1,#0]
        0x00002124:    e0812000    . ..    ADD      r2,r1,r0
        0x00002128:    e59f1330    0...    LDR      r1,[pc,#816] ; [0x2460] = 0x400088
        0x0000212c:    e5911000    ....    LDR      r1,[r1,#0]
        0x00002130:    e0811082    ....    ADD      r1,r1,r2,LSL #1
        0x00002134:    e1d110f0    ....    LDRSH    r1,[r1,#0]
        0x00002138:    e3710902    ..q.    CMN      r1,#0x8000
        0x0000213c:    012fff1e    ../.    BXEQ     lr
        0x00002140:    e51f27a8    .'..    LDR      r2,[pc,#-1960] ; [0x19a0] = 0x4000b0
        0x00002144:    e5922000    . ..    LDR      r2,[r2,#0]
        0x00002148:    e0820080    ....    ADD      r0,r2,r0,LSL #1
        0x0000214c:    e1d020f0    . ..    LDRSH    r2,[r0,#0]
        0x00002150:    e0520001    ..R.    SUBS     r0,r2,r1
        0x00002154:    40410002    ..A@    SUBMI    r0,r1,r2
        0x00002158:    e59f12bc    ....    LDR      r1,[pc,#700] ; [0x241c] = 0x4000d5
        0x0000215c:    e5d12000    . ..    LDRB     r2,[r1,#0]
        0x00002160:    e3520000    ..R.    CMP      r2,#0
        0x00002164:    151f27c8    .'..    LDRNE    r2,[pc,#-1992] ; [0x19a4] = 0x4001f4
        0x00002168:    15922064    d ..    LDRNE    r2,[r2,#0x64]
        0x0000216c:    115000c2    ..P.    CMPNE    r0,r2,ASR #1
        0x00002170:    a3a00000    ....    MOVGE    r0,#0
        0x00002174:    b3a00001    ....    MOVLT    r0,#1
        0x00002178:    e5c10000    ....    STRB     r0,[r1,#0]
        0x0000217c:    e12fff1e    ../.    BX       lr
    max_stop_crit
        0x00002180:    e51f17b0    ....    LDR      r1,[pc,#-1968] ; [0x19d8] = 0x4000c4
        0x00002184:    e59f22d4    ."..    LDR      r2,[pc,#724] ; [0x2460] = 0x400088
        0x00002188:    e92d4010    .@-.    PUSH     {r4,lr}
        0x0000218c:    e5911000    ....    LDR      r1,[r1,#0]
        0x00002190:    e5922000    . ..    LDR      r2,[r2,#0]
        0x00002194:    e0811000    ....    ADD      r1,r1,r0
        0x00002198:    e0821081    ....    ADD      r1,r2,r1,LSL #1
        0x0000219c:    e1d120f0    . ..    LDRSH    r2,[r1,#0]
        0x000021a0:    e3720902    ..r.    CMN      r2,#0x8000
        0x000021a4:    08bd8010    ....    POPEQ    {r4,pc}
        0x000021a8:    e51f2810    .(..    LDR      r2,[pc,#-2064] ; [0x19a0] = 0x4000b0
        0x000021ac:    e59f32b0    .2..    LDR      r3,[pc,#688] ; [0x2464] = 0x4000e8
        0x000021b0:    e5922000    . ..    LDR      r2,[r2,#0]
        0x000021b4:    e1d3e0f0    ....    LDRSH    lr,[r3,#0]
        0x000021b8:    e0822080    . ..    ADD      r2,r2,r0,LSL #1
        0x000021bc:    e1d220f0    . ..    LDRSH    r2,[r2,#0]
        0x000021c0:    e59fc2a0    ....    LDR      r12,[pc,#672] ; [0x2468] = 0x4000e0
        0x000021c4:    e152000e    ..R.    CMP      r2,lr
        0x000021c8:    c1c320b0    . ..    STRHGT   r2,[r3,#0]
        0x000021cc:    e59f2298    ."..    LDR      r2,[pc,#664] ; [0x246c] = 0x4000ea
        0x000021d0:    c58c0000    ....    STRGT    r0,[r12,#0]
        0x000021d4:    e1d110f0    ....    LDRSH    r1,[r1,#0]
        0x000021d8:    e1d240f0    .@..    LDRSH    r4,[r2,#0]
        0x000021dc:    e59fe28c    ....    LDR      lr,[pc,#652] ; [0x2470] = 0x4000e4
        0x000021e0:    e1510004    ..Q.    CMP      r1,r4
        0x000021e4:    c1c210b0    ....    STRHGT   r1,[r2,#0]
        0x000021e8:    c58e0000    ....    STRGT    r0,[lr,#0]
        0x000021ec:    e1d310f0    ....    LDRSH    r1,[r3,#0]
        0x000021f0:    e1d220f0    . ..    LDRSH    r2,[r2,#0]
        0x000021f4:    e0510002    ..Q.    SUBS     r0,r1,r2
        0x000021f8:    40420001    ..B@    SUBMI    r0,r2,r1
        0x000021fc:    e59c1000    ....    LDR      r1,[r12,#0]
        0x00002200:    e59f2214    ."..    LDR      r2,[pc,#532] ; [0x241c] = 0x4000d5
        0x00002204:    e3710001    ..q.    CMN      r1,#1
        0x00002208:    0a000006    ....    BEQ      0x2228 ; max_stop_crit + 168
        0x0000220c:    e59e3000    .0..    LDR      r3,[lr,#0]
        0x00002210:    e1510003    ..Q.    CMP      r1,r3
        0x00002214:    1a000005    ....    BNE      0x2230 ; max_stop_crit + 176
        0x00002218:    e51f187c    |...    LDR      r1,[pc,#-2172] ; [0x19a4] = 0x4001f4
        0x0000221c:    e5911064    d...    LDR      r1,[r1,#0x64]
        0x00002220:    e1510000    ..Q.    CMP      r1,r0
        0x00002224:    da000001    ....    BLE      0x2230 ; max_stop_crit + 176
        0x00002228:    e3a00001    ....    MOV      r0,#1
        0x0000222c:    ea000000    ....    B        0x2234 ; max_stop_crit + 180
        0x00002230:    e3a00000    ....    MOV      r0,#0
        0x00002234:    e5c20000    ....    STRB     r0,[r2,#0]
        0x00002238:    e8bd8010    ....    POP      {r4,pc}
    error_squared
        0x0000223c:    e51f186c    l...    LDR      r1,[pc,#-2156] ; [0x19d8] = 0x4000c4
        0x00002240:    e59f2218    ."..    LDR      r2,[pc,#536] ; [0x2460] = 0x400088
        0x00002244:    e92d4010    .@-.    PUSH     {r4,lr}
        0x00002248:    e5911000    ....    LDR      r1,[r1,#0]
        0x0000224c:    e5922000    . ..    LDR      r2,[r2,#0]
        0x00002250:    e0811000    ....    ADD      r1,r1,r0
        0x00002254:    e0821081    ....    ADD      r1,r2,r1,LSL #1
        0x00002258:    e1d120f0    . ..    LDRSH    r2,[r1,#0]
        0x0000225c:    e51f184c    L...    LDR      r1,[pc,#-2124] ; [0x1a18] = 0x4000ec
        0x00002260:    e3720902    ..r.    CMN      r2,#0x8000
        0x00002264:    e5911000    ....    LDR      r1,[r1,#0]
        0x00002268:    e0814180    .A..    ADD      r4,r1,r0,LSL #3
        0x0000226c:    03a00000    ....    MOVEQ    r0,#0
        0x00002270:    05840000    ....    STREQ    r0,[r4,#0]
        0x00002274:    05840004    ....    STREQ    r0,[r4,#4]
        0x00002278:    08bd8010    ....    POPEQ    {r4,pc}
        0x0000227c:    e51f18e4    ....    LDR      r1,[pc,#-2276] ; [0x19a0] = 0x4000b0
        0x00002280:    e5911000    ....    LDR      r1,[r1,#0]
        0x00002284:    e0810080    ....    ADD      r0,r1,r0,LSL #1
        0x00002288:    e1d000f0    ....    LDRSH    r0,[r0,#0]
        0x0000228c:    e1a01fc0    ....    ASR      r1,r0,#31
        0x00002290:    e0500002    ..P.    SUBS     r0,r0,r2
        0x00002294:    e0c11fc2    ....    SBC      r1,r1,r2,ASR #31
        0x00002298:    e0900000    ....    ADDS     r0,r0,r0
        0x0000229c:    e0a11001    ....    ADC      r1,r1,r1
        0x000022a0:    e1c400f0    ....    STRD     r0,r1,[r4,#0]
        0x000022a4:    e8bd8010    ....    POP      {r4,pc}
    error_cross_entropy
        0x000022a8:    e92d5ff0    ._-.    PUSH     {r4-r12,lr}
        0x000022ac:    e1a04000    .@..    MOV      r4,r0
        0x000022b0:    e3a06000    .`..    MOV      r6,#0
        0x000022b4:    e51f98e4    ....    LDR      r9,[pc,#-2276] ; [0x19d8] = 0x4000c4
        0x000022b8:    e59fa1a0    ....    LDR      r10,[pc,#416] ; [0x2460] = 0x400088
        0x000022bc:    e5990000    ....    LDR      r0,[r9,#0]
        0x000022c0:    e59a1000    ....    LDR      r1,[r10,#0]
        0x000022c4:    e0800004    ....    ADD      r0,r0,r4
        0x000022c8:    e0810080    ....    ADD      r0,r1,r0,LSL #1
        0x000022cc:    e1d010f0    ....    LDRSH    r1,[r0,#0]
        0x000022d0:    e51f78c0    .x..    LDR      r7,[pc,#-2240] ; [0x1a18] = 0x4000ec
        0x000022d4:    e3710902    ..q.    CMN      r1,#0x8000
        0x000022d8:    e5970000    ....    LDR      r0,[r7,#0]
        0x000022dc:    e0805184    .Q..    ADD      r5,r0,r4,LSL #3
        0x000022e0:    05856000    .`..    STREQ    r6,[r5,#0]
        0x000022e4:    0a00000f    ....    BEQ      0x2328 ; error_cross_entropy + 128
        0x000022e8:    e51fb950    P...    LDR      r11,[pc,#-2384] ; [0x19a0] = 0x4000b0
        0x000022ec:    e3510000    ..Q.    CMP      r1,#0
        0x000022f0:    e59b0000    ....    LDR      r0,[r11,#0]
        0x000022f4:    e3e08102    ....    MVN      r8,#0x80000000
        0x000022f8:    e3a02001    . ..    MOV      r2,#1
        0x000022fc:    e0800084    ....    ADD      r0,r0,r4,LSL #1
        0x00002300:    1a00000a    ....    BNE      0x2330 ; error_cross_entropy + 136
        0x00002304:    e1d000f0    ....    LDRSH    r0,[r0,#0]
        0x00002308:    e260000f    ..`.    RSB      r0,r0,#0xf
        0x0000230c:    e1a02012    . ..    LSL      r2,r2,r0
        0x00002310:    e3520001    ..R.    CMP      r2,#1
        0x00002314:    c1a03fc2    .?..    ASRGT    r3,r2,#31
        0x00002318:    c1a01006    ....    MOVGT    r1,r6
        0x0000231c:    c3a00101    ....    MOVGT    r0,#0x40000000
        0x00002320:    ca00000d    ....    BGT      0x235c ; error_cross_entropy + 180
        0x00002324:    e5858000    ....    STR      r8,[r5,#0]
        0x00002328:    e5856004    .`..    STR      r6,[r5,#4]
        0x0000232c:    e8bd9ff0    ....    POP      {r4-r12,pc}
        0x00002330:    e3510902    ..Q.    CMP      r1,#0x8000
        0x00002334:    1a00000a    ....    BNE      0x2364 ; error_cross_entropy + 188
        0x00002338:    e1d020f0    . ..    LDRSH    r2,[r0,#0]
        0x0000233c:    e3e01000    ....    MVN      r1,#0
        0x00002340:    e3520001    ..R.    CMP      r2,#1
        0x00002344:    ca000002    ....    BGT      0x2354 ; error_cross_entropy + 172
        0x00002348:    e3a00102    ....    MOV      r0,#0x80000000
        0x0000234c:    e8850003    ....    STM      r5,{r0,r1}
        0x00002350:    e8bd9ff0    ....    POP      {r4-r12,pc}
        0x00002354:    e1a03fc2    .?..    ASR      r3,r2,#31
        0x00002358:    e3a00103    ....    MOV      r0,#0xc0000000
        0x0000235c:    eb000044    D...    BL       __aeabi_ldivmod ; 0x2474
        0x00002360:    eafffff9    ....    B        0x234c ; error_cross_entropy + 164
        0x00002364:    e1d000f0    ....    LDRSH    r0,[r0,#0]
        0x00002368:    e260100f    ..`.    RSB      r1,r0,#0xf
        0x0000236c:    e1a02112    .!..    LSL      r2,r2,r1
        0x00002370:    e0c10092    ....    SMULL    r0,r1,r2,r0
        0x00002374:    e1a01781    ....    LSL      r1,r1,#15
        0x00002378:    e18118a0    ....    ORR      r1,r1,r0,LSR #17
        0x0000237c:    e1a00780    ....    LSL      r0,r0,#15
        0x00002380:    e2702001    . p.    RSBS     r2,r0,#1
        0x00002384:    e2f13000    .0..    RSCS     r3,r1,#0
        0x00002388:    e5991000    ....    LDR      r1,[r9,#0]
        0x0000238c:    e59b0000    ....    LDR      r0,[r11,#0]
        0x00002390:    e59a2000    . ..    LDR      r2,[r10,#0]
        0x00002394:    e0811004    ....    ADD      r1,r1,r4
        0x00002398:    e0800084    ....    ADD      r0,r0,r4,LSL #1
        0x0000239c:    e0821081    ....    ADD      r1,r2,r1,LSL #1
        0x000023a0:    e1d000f0    ....    LDRSH    r0,[r0,#0]
        0x000023a4:    e1d110f0    ....    LDRSH    r1,[r1,#0]
        0x000023a8:    ba00000b    ....    BLT      0x23dc ; error_cross_entropy + 308
        0x000023ac:    e0400001    ..@.    SUB      r0,r0,r1
        0x000023b0:    e0832890    .(..    UMULL    r2,r3,r0,r8
        0x000023b4:    e1a01fc0    ....    ASR      r1,r0,#31
        0x000023b8:    e0213198    .1!.    MLA      r1,r8,r1,r3
        0x000023bc:    e1a027a2    .'..    LSR      r2,r2,#15
        0x000023c0:    e0201096    .. .    MLA      r0,r6,r0,r1
        0x000023c4:    e1821880    ....    ORR      r1,r2,r0,LSL #17
        0x000023c8:    e1a027c0    .'..    ASR      r2,r0,#15
        0x000023cc:    e5970000    ....    LDR      r0,[r7,#0]
        0x000023d0:    e7a01184    ....    STR      r1,[r0,r4,LSL #3]!
        0x000023d4:    e5802004    . ..    STR      r2,[r0,#4]
        0x000023d8:    e8bd9ff0    ....    POP      {r4-r12,pc}
        0x000023dc:    e040c001    ..@.    SUB      r12,r0,r1
        0x000023e0:    e2602902    .)`.    RSB      r2,r0,#0x8000
        0x000023e4:    e0c01092    ....    SMULL    r1,r0,r2,r0
        0x000023e8:    e1a017a1    ....    LSR      r1,r1,#15
        0x000023ec:    e1812880    .(..    ORR      r2,r1,r0,LSL #17
        0x000023f0:    e1a037c0    .7..    ASR      r3,r0,#15
        0x000023f4:    e1a00fcc    ....    ASR      r0,r12,#31
        0x000023f8:    e1a00780    ....    LSL      r0,r0,#15
        0x000023fc:    e18018ac    ....    ORR      r1,r0,r12,LSR #17
        0x00002400:    e1a0078c    ....    LSL      r0,r12,#15
        0x00002404:    e597c000    ....    LDR      r12,[r7,#0]
        0x00002408:    e08c4184    .A..    ADD      r4,r12,r4,LSL #3
        0x0000240c:    eb000018    ....    BL       __aeabi_ldivmod ; 0x2474
        0x00002410:    e8840003    ....    STM      r4,{r0,r1}
        0x00002414:    e8bd9ff0    ....    POP      {r4-r12,pc}
    $d
        0x00002418:    004000ac    ..@.    DCD    4194476
        0x0000241c:    004000d5    ..@.    DCD    4194517
        0x00002420:    004000d4    ..@.    DCD    4194516
        0x00002424:    004000dc    ..@.    DCD    4194524
        0x00002428:    00400024    $.@.    DCD    4194340
        0x0000242c:    00004670    pF..    DCD    18032
        0x00002430:    000046b8    .F..    DCD    18104
        0x00002434:    004000d7    ..@.    DCD    4194519
        0x00002438:    004000d0    ..@.    DCD    4194512
        0x0000243c:    00400014    ..@.    DCD    4194324
        0x00002440:    004000b4    ..@.    DCD    4194484
        0x00002444:    004000d8    ..@.    DCD    4194520
        0x00002448:    004000d6    ..@.    DCD    4194518
        0x0000244c:    004000cc    ..@.    DCD    4194508
        0x00002450:    00007fff    ....    DCD    32767
        0x00002454:    ffff8001    ....    DCD    4294934529
        0x00002458:    00400084    ..@.    DCD    4194436
        0x0000245c:    ffff8000    ....    DCD    4294934528
        0x00002460:    00400088    ..@.    DCD    4194440
        0x00002464:    004000e8    ..@.    DCD    4194536
        0x00002468:    004000e0    ..@.    DCD    4194528
        0x0000246c:    004000ea    ..@.    DCD    4194538
        0x00002470:    004000e4    ..@.    DCD    4194532
    $a
    .text
    __aeabi_ldivmod
    _ll_sdiv
        0x00002474:    e92d4010    .@-.    PUSH     {r4,lr}
        0x00002478:    e1b040c1    .@..    ASRS     r4,r1,#1
        0x0000247c:    e02440a3    .@$.    EOR      r4,r4,r3,LSR #1
        0x00002480:    5a000001    ...Z    BPL      0x248c ; __aeabi_ldivmod + 24
        0x00002484:    e2700000    ..p.    RSBS     r0,r0,#0
        0x00002488:    e2e11000    ....    RSC      r1,r1,#0
        0x0000248c:    e1130003    ....    TST      r3,r3
        0x00002490:    5a000001    ...Z    BPL      0x249c ; __aeabi_ldivmod + 40
        0x00002494:    e2722000    . r.    RSBS     r2,r2,#0
        0x00002498:    e2e33000    .0..    RSC      r3,r3,#0
        0x0000249c:    eb000008    ....    BL       __aeabi_uldivmod ; 0x24c4
        0x000024a0:    e3140101    ....    TST      r4,#0x40000000
        0x000024a4:    0a000001    ....    BEQ      0x24b0 ; __aeabi_ldivmod + 60
        0x000024a8:    e2700000    ..p.    RSBS     r0,r0,#0
        0x000024ac:    e2e11000    ....    RSC      r1,r1,#0
        0x000024b0:    e3140102    ....    TST      r4,#0x80000000
        0x000024b4:    0a000001    ....    BEQ      0x24c0 ; __aeabi_ldivmod + 76
        0x000024b8:    e2722000    . r.    RSBS     r2,r2,#0
        0x000024bc:    e2e33000    .0..    RSC      r3,r3,#0
        0x000024c0:    e8bd8010    ....    POP      {r4,pc}
    .text
    __aeabi_uldivmod
    _ll_udiv
        0x000024c4:    e92d4070    p@-.    PUSH     {r4-r6,lr}
        0x000024c8:    e1a04003    .@..    MOV      r4,r3
        0x000024cc:    e1a05002    .P..    MOV      r5,r2
        0x000024d0:    e1a03001    .0..    MOV      r3,r1
        0x000024d4:    e1a02000    . ..    MOV      r2,r0
    _ll_udiv_donemoving
        0x000024d8:    e3540000    ..T.    CMP      r4,#0
        0x000024dc:    11a0c004    ....    MOVNE    r12,r4
        0x000024e0:    01a0c005    ....    MOVEQ    r12,r5
        0x000024e4:    e16fef1c    ..o.    CLZ      lr,r12
        0x000024e8:    e28e0001    ....    ADD      r0,lr,#1
        0x000024ec:    e1a0c01c    ....    LSL      r12,r12,r0
        0x000024f0:    127ee03f    ?.~.    RSBSNE   lr,lr,#0x3f
        0x000024f4:    027ee01f    ..~.    RSBSEQ   lr,lr,#0x1f
        0x000024f8:    4a000085    ...J    BMI      0x2714 ; _ll_udiv_donemoving + 572
        0x000024fc:    e3530000    ..S.    CMP      r3,#0
        0x00002500:    116f1f13    ..o.    CLZNE    r1,r3
        0x00002504:    016f1f12    ..o.    CLZEQ    r1,r2
        0x00002508:    1271103f    ?.q.    RSBSNE   r1,r1,#0x3f
        0x0000250c:    0271101f    ..q.    RSBSEQ   r1,r1,#0x1f
        0x00002510:    e051600e    .`Q.    SUBS     r6,r1,lr
        0x00002514:    4a000083    ...J    BMI      0x2728 ; _ll_udiv_donemoving + 592
        0x00002518:    52760004    ..vR    RSBSPL   r0,r6,#4
        0x0000251c:    5a000084    ...Z    BPL      0x2734 ; _ll_udiv_donemoving + 604
        0x00002520:    e24e0020     .N.    SUB      r0,lr,#0x20
        0x00002524:    e3500004    ..P.    CMP      r0,#4
        0x00002528:    d18cc035    5...    ORRLE    r12,r12,r5,LSR r0
        0x0000252c:    e1a0ce2c    ,...    LSR      r12,r12,#28
        0x00002530:    e28f1f8f    ....    ADR      r1,{pc}+0x244 ; 0x2774
        0x00002534:    e791c10c    ....    LDR      r12,[r1,r12,LSL #2]
        0x00002538:    e35e001f    ..^.    CMP      lr,#0x1f
        0x0000253c:    824ee020     .N.    SUBHI    lr,lr,#0x20
        0x00002540:    e26e6020     `n.    RSB      r6,lr,#0x20
        0x00002544:    8a000040    @...    BHI      0x264c ; _ll_udiv_donemoving + 372
        0x00002548:    e081059c    ....    UMULL    r0,r1,r12,r5
        0x0000254c:    e1a01611    ....    LSL      r1,r1,r6
        0x00002550:    e1811e30    0...    ORR      r1,r1,r0,LSR lr
        0x00002554:    e1a00610    ....    LSL      r0,r0,r6
        0x00002558:    e2700000    ..p.    RSBS     r0,r0,#0
        0x0000255c:    e2e11000    ....    RSC      r1,r1,#0
        0x00002560:    e081019c    ....    UMULL    r0,r1,r12,r1
        0x00002564:    e08cc001    ....    ADD      r12,r12,r1
        0x00002568:    e081059c    ....    UMULL    r0,r1,r12,r5
        0x0000256c:    e1a01611    ....    LSL      r1,r1,r6
        0x00002570:    e1811e30    0...    ORR      r1,r1,r0,LSR lr
        0x00002574:    e1a00610    ....    LSL      r0,r0,r6
        0x00002578:    e2700000    ..p.    RSBS     r0,r0,#0
        0x0000257c:    e2e11000    ....    RSC      r1,r1,#0
        0x00002580:    e3530000    ..S.    CMP      r3,#0
        0x00002584:    e081019c    ....    UMULL    r0,r1,r12,r1
        0x00002588:    e08cc001    ....    ADD      r12,r12,r1
        0x0000258c:    0a000007    ....    BEQ      0x25b0 ; _ll_udiv_donemoving + 216
        0x00002590:    e081059c    ....    UMULL    r0,r1,r12,r5
        0x00002594:    e1a01611    ....    LSL      r1,r1,r6
        0x00002598:    e1811e30    0...    ORR      r1,r1,r0,LSR lr
        0x0000259c:    e1a00610    ....    LSL      r0,r0,r6
        0x000025a0:    e2700000    ..p.    RSBS     r0,r0,#0
        0x000025a4:    e2e11000    ....    RSC      r1,r1,#0
        0x000025a8:    e081019c    ....    UMULL    r0,r1,r12,r1
        0x000025ac:    e08cc001    ....    ADD      r12,r12,r1
        0x000025b0:    e080129c    ....    UMULL    r1,r0,r12,r2
        0x000025b4:    e3a01000    ....    MOV      r1,#0
        0x000025b8:    e0a1039c    ....    UMLAL    r0,r1,r12,r3
        0x000025bc:    e1a00e30    0...    LSR      r0,r0,lr
        0x000025c0:    e1800611    ....    ORR      r0,r0,r1,LSL r6
        0x000025c4:    e0846590    .e..    UMULL    r6,r4,r0,r5
        0x000025c8:    e1a01e31    1...    LSR      r1,r1,lr
        0x000025cc:    e0244591    .E$.    MLA      r4,r1,r5,r4
        0x000025d0:    e0522006    . R.    SUBS     r2,r2,r6
        0x000025d4:    e0c33004    .0..    SBC      r3,r3,r4
        0x000025d8:    e3530001    ..S.    CMP      r3,#1
        0x000025dc:    31520005    ..R1    CMPCC    r2,r5
        0x000025e0:    38bd8070    p..8    POPCC    {r4-r6,pc}
        0x000025e4:    e086429c    .B..    UMULL    r4,r6,r12,r2
        0x000025e8:    e3a04000    .@..    MOV      r4,#0
        0x000025ec:    e0a4639c    .c..    UMLAL    r6,r4,r12,r3
        0x000025f0:    e3a03000    .0..    MOV      r3,#0
        0x000025f4:    e26ec020     .n.    RSB      r12,lr,#0x20
        0x000025f8:    e1a06e36    6n..    LSR      r6,r6,lr
        0x000025fc:    e1866c14    .l..    ORR      r6,r6,r4,LSL r12
        0x00002600:    e1a04e34    4N..    LSR      r4,r4,lr
        0x00002604:    e08ce596    ....    UMULL    lr,r12,r6,r5
        0x00002608:    e0900006    ....    ADDS     r0,r0,r6
        0x0000260c:    e0a11004    ....    ADC      r1,r1,r4
        0x00002610:    e042200e    . B.    SUB      r2,r2,lr
        0x00002614:    e1520005    ..R.    CMP      r2,r5
        0x00002618:    38bd8070    p..8    POPCC    {r4-r6,pc}
        0x0000261c:    e2900001    ....    ADDS     r0,r0,#1
        0x00002620:    e2a11000    ....    ADC      r1,r1,#0
        0x00002624:    e0422005    . B.    SUB      r2,r2,r5
        0x00002628:    e052c005    ..R.    SUBS     r12,r2,r5
        0x0000262c:    21a0200c    . .!    MOVCS    r2,r12
        0x00002630:    e2b00000    ....    ADCS     r0,r0,#0
        0x00002634:    e2a11000    ....    ADC      r1,r1,#0
        0x00002638:    e052c005    ..R.    SUBS     r12,r2,r5
        0x0000263c:    21a0200c    . .!    MOVCS    r2,r12
        0x00002640:    e2b00000    ....    ADCS     r0,r0,#0
        0x00002644:    e2a11000    ....    ADC      r1,r1,#0
        0x00002648:    e8bd8070    p...    POP      {r4-r6,pc}
        0x0000264c:    e080159c    ....    UMULL    r1,r0,r12,r5
        0x00002650:    e3a01000    ....    MOV      r1,#0
        0x00002654:    e0a1049c    ....    UMLAL    r0,r1,r12,r4
        0x00002658:    e1a01611    ....    LSL      r1,r1,r6
        0x0000265c:    e1811e30    0...    ORR      r1,r1,r0,LSR lr
        0x00002660:    e1a00610    ....    LSL      r0,r0,r6
        0x00002664:    e2700000    ..p.    RSBS     r0,r0,#0
        0x00002668:    e2e11000    ....    RSC      r1,r1,#0
        0x0000266c:    e081019c    ....    UMULL    r0,r1,r12,r1
        0x00002670:    e08cc001    ....    ADD      r12,r12,r1
        0x00002674:    e080159c    ....    UMULL    r1,r0,r12,r5
        0x00002678:    e3a01000    ....    MOV      r1,#0
        0x0000267c:    e0a1049c    ....    UMLAL    r0,r1,r12,r4
        0x00002680:    e1a01611    ....    LSL      r1,r1,r6
        0x00002684:    e1811e30    0...    ORR      r1,r1,r0,LSR lr
        0x00002688:    e1a00610    ....    LSL      r0,r0,r6
        0x0000268c:    e2700000    ..p.    RSBS     r0,r0,#0
        0x00002690:    e2e11000    ....    RSC      r1,r1,#0
        0x00002694:    e081019c    ....    UMULL    r0,r1,r12,r1
        0x00002698:    e08cc001    ....    ADD      r12,r12,r1
        0x0000269c:    e24cc001    ..L.    SUB      r12,r12,#1
        0x000026a0:    e080129c    ....    UMULL    r1,r0,r12,r2
        0x000026a4:    e3a01000    ....    MOV      r1,#0
        0x000026a8:    e0a1039c    ....    UMLAL    r0,r1,r12,r3
        0x000026ac:    e1a00e31    1...    LSR      r0,r1,lr
        0x000026b0:    e0816590    .e..    UMULL    r6,r1,r0,r5
        0x000026b4:    e0522006    . R.    SUBS     r2,r2,r6
        0x000026b8:    e0211490    ..!.    MLA      r1,r0,r4,r1
        0x000026bc:    e0c33001    .0..    SBC      r3,r3,r1
        0x000026c0:    e1530004    ..S.    CMP      r3,r4
        0x000026c4:    01520005    ..R.    CMPEQ    r2,r5
        0x000026c8:    33a01000    ...3    MOVCC    r1,#0
        0x000026cc:    38bd8070    p..8    POPCC    {r4-r6,pc}
        0x000026d0:    e081629c    .b..    UMULL    r6,r1,r12,r2
        0x000026d4:    e3a06000    .`..    MOV      r6,#0
        0x000026d8:    e0a6139c    ....    UMLAL    r1,r6,r12,r3
        0x000026dc:    e3a01000    ....    MOV      r1,#0
        0x000026e0:    e1a06e36    6n..    LSR      r6,r6,lr
        0x000026e4:    e08ce596    ....    UMULL    lr,r12,r6,r5
        0x000026e8:    e0800006    ....    ADD      r0,r0,r6
        0x000026ec:    e052200e    . R.    SUBS     r2,r2,lr
        0x000026f0:    e02ec496    ....    MLA      lr,r6,r4,r12
        0x000026f4:    e0c3300e    .0..    SBC      r3,r3,lr
        0x000026f8:    e1530004    ..S.    CMP      r3,r4
        0x000026fc:    01520005    ..R.    CMPEQ    r2,r5
        0x00002700:    38bd8070    p..8    POPCC    {r4-r6,pc}
        0x00002704:    e2800001    ....    ADD      r0,r0,#1
        0x00002708:    e0522005    . R.    SUBS     r2,r2,r5
        0x0000270c:    e0c33004    .0..    SBC      r3,r3,r4
        0x00002710:    e8bd8070    p...    POP      {r4-r6,pc}
        0x00002714:    e92d000c    ..-.    PUSH     {r2,r3}
        0x00002718:    e3a01000    ....    MOV      r1,#0
        0x0000271c:    e3a00000    ....    MOV      r0,#0
        0x00002720:    e1a00000    ....    MOV      r0,r0
        0x00002724:    e8bd807c    |...    POP      {r2-r6,pc}
        0x00002728:    e3a01000    ....    MOV      r1,#0
        0x0000272c:    e3a00000    ....    MOV      r0,#0
        0x00002730:    e8bd8070    p...    POP      {r4-r6,pc}
        0x00002734:    e266e020     .f.    RSB      lr,r6,#0x20
        0x00002738:    e3a00000    ....    MOV      r0,#0
        0x0000273c:    e3a01000    ....    MOV      r1,#0
        0x00002740:    e1a04614    .F..    LSL      r4,r4,r6
        0x00002744:    e1844e35    5N..    ORR      r4,r4,r5,LSR lr
        0x00002748:    e1a05615    .V..    LSL      r5,r5,r6
        0x0000274c:    e052e005    ..R.    SUBS     lr,r2,r5
        0x00002750:    e0d3c004    ....    SBCS     r12,r3,r4
        0x00002754:    e0a00000    ....    ADC      r0,r0,r0
        0x00002758:    21a0300c    .0.!    MOVCS    r3,r12
        0x0000275c:    21a0200e    . .!    MOVCS    r2,lr
        0x00002760:    e2566001    .`V.    SUBS     r6,r6,#1
        0x00002764:    38bd8070    p..8    POPCC    {r4-r6,pc}
        0x00002768:    e1b040a4    .@..    LSRS     r4,r4,#1
        0x0000276c:    e1a05065    eP..    RRX      r5,r5
        0x00002770:    eafffff5    ....    B        0x274c ; _ll_udiv_donemoving + 628
    $d
        0x00002774:    f0f0f0f0    ....    DCD    4042322160
        0x00002778:    e38e38e3    .8..    DCD    3817748707
        0x0000277c:    d79435e5    .5..    DCD    3616814565
        0x00002780:    cccccccc    ....    DCD    3435973836
        0x00002784:    c30c30c3    .0..    DCD    3272356035
        0x00002788:    ba2e8ba2    ....    DCD    3123612578
        0x0000278c:    b21642c8    .B..    DCD    2987803336
        0x00002790:    aaaaaaaa    ....    DCD    2863311530
        0x00002794:    a3d70a3d    =...    DCD    2748779069
        0x00002798:    9d89d89d    ....    DCD    2643056797
        0x0000279c:    97b425ed    .%..    DCD    2545165805
        0x000027a0:    92492492    .$I.    DCD    2454267026
        0x000027a4:    8d3dcb08    ..=.    DCD    2369637128
        0x000027a8:    88888888    ....    DCD    2290649224
        0x000027ac:    84210842    B.!.    DCD    2216757314
        0x000027b0:    80000000    ....    DCD    2147483648
    $t
    alib_aplx
    sark_aplx
        0x000027b4:    b5f2        ..      PUSH     {r1,r4-r7,lr}
        0x000027b6:    4905        .I      LDR      r1,aplx_buffer ; [0x27cc] = 0x7fc0
        0x000027b8:    a605        ..      ADR      r6,{pc}+0x18 ; 0x27d0
        0x000027ba:    2740        @'      MOVS     r7,#0x40
    aplx_l0
        0x000027bc:    ce3c        <.      LDM      r6!,{r2-r5}
        0x000027be:    c13c        <.      STM      r1!,{r2-r5}
        0x000027c0:    3f10        .?      SUBS     r7,r7,#0x10
        0x000027c2:    d1fb        ..      BNE      aplx_l0 ; 0x27bc
        0x000027c4:    1c04        ..      ADDS     r4,r0,#0
        0x000027c6:    393f        ?9      SUBS     r1,r1,#0x3f
        0x000027c8:    4708        .G      BX       r1
    $d
        0x000027ca:    0000        ..      DCW    0
    aplx_buffer
        0x000027cc:    00007fc0    ....    DCD    32704
    $t
    aplx_loader
        0x000027d0:    cc0f        ..      LDM      r4!,{r0-r3}
        0x000027d2:    2801        .(      CMP      r0,#1
        0x000027d4:    d008        ..      BEQ      aplx_copy ; 0x27e8
        0x000027d6:    2802        .(      CMP      r0,#2
        0x000027d8:    d004        ..      BEQ      aplx_rcopy ; 0x27e4
        0x000027da:    2803        .(      CMP      r0,#3
        0x000027dc:    d00b        ..      BEQ      aplx_fill ; 0x27f6
        0x000027de:    2804        .(      CMP      r0,#4
        0x000027e0:    d011        ..      BEQ      aplx_exec ; 0x2806
        0x000027e2:    bdf2        ..      POP      {r1,r4-r7,pc}
    aplx_rcopy
        0x000027e4:    1912        ..      ADDS     r2,r2,r4
        0x000027e6:    3a10        .:      SUBS     r2,r2,#0x10
    aplx_copy
        0x000027e8:    cae1        ..      LDM      r2!,{r0,r5-r7}
        0x000027ea:    c1e1        ..      STM      r1!,{r0,r5-r7}
        0x000027ec:    cae1        ..      LDM      r2!,{r0,r5-r7}
        0x000027ee:    c1e1        ..      STM      r1!,{r0,r5-r7}
        0x000027f0:    3b20         ;      SUBS     r3,r3,#0x20
        0x000027f2:    d8f9        ..      BHI      aplx_copy ; 0x27e8
        0x000027f4:    e7ec        ..      B        aplx_loader ; 0x27d0
    aplx_fill
        0x000027f6:    1c1d        ..      ADDS     r5,r3,#0
        0x000027f8:    1c1e        ..      ADDS     r6,r3,#0
        0x000027fa:    1c1f        ..      ADDS     r7,r3,#0
    aplx_l1
        0x000027fc:    c1e8        ..      STM      r1!,{r3,r5-r7}
        0x000027fe:    c1e8        ..      STM      r1!,{r3,r5-r7}
        0x00002800:    3a20         :      SUBS     r2,r2,#0x20
        0x00002802:    d8fb        ..      BHI      aplx_l1 ; 0x27fc
        0x00002804:    e7e4        ..      B        aplx_loader ; 0x27d0
    aplx_exec
        0x00002806:    9800        ..      LDR      r0,[sp,#0]
        0x00002808:    4788        .G      BLX      r1
        0x0000280a:    e7e1        ..      B        aplx_loader ; 0x27d0
    alib_delay
    sark_delay_us
        0x0000280c:    4903        .I      LDR      r1,[pc,#12] ; [0x281c] = 0x400400
        0x0000280e:    8809        ..      LDRH     r1,[r1,#0]
        0x00002810:    4341        AC      MULS     r1,r0,r1
        0x00002812:    0888        ..      LSRS     r0,r1,#2
    delay1
        0x00002814:    3801        .8      SUBS     r0,#1
        0x00002816:    d2fd        ..      BCS      delay1 ; 0x2814
        0x00002818:    4770        pG      BX       lr
    $d
        0x0000281a:    0000        ..      DCW    0
        0x0000281c:    00400400    ..@.    DCD    4195328
    $a
    alib_div10
    sark_div10
        0x00002820:    e241200a    . A.    SUB      r2,r1,#0xa
        0x00002824:    e0411121    !.A.    SUB      r1,r1,r1,LSR #2
        0x00002828:    e0811221    !...    ADD      r1,r1,r1,LSR #4
        0x0000282c:    e0811421    !...    ADD      r1,r1,r1,LSR #8
        0x00002830:    e0811821    !...    ADD      r1,r1,r1,LSR #16
        0x00002834:    e1a011a1    ....    LSR      r1,r1,#3
        0x00002838:    e0813101    .1..    ADD      r3,r1,r1,LSL #2
        0x0000283c:    e0522083    . R.    SUBS     r2,r2,r3,LSL #1
        0x00002840:    52811001    ...R    ADDPL    r1,r1,#1
        0x00002844:    4282200a    . .B    ADDMI    r2,r2,#0xa
        0x00002848:    e8800006    ....    STM      r0,{r1,r2}
        0x0000284c:    e12fff1e    ../.    BX       lr
    alib_init_mode
    cpu_init_mode
        0x00002850:    e10f3000    .0..    MRS      r3,APSR ; formerly CPSR
        0x00002854:    e121f001    ..!.    MSR      CPSR_c,r1
        0x00002858:    e1a0d000    ....    MOV      sp,r0
        0x0000285c:    e12ff003    ../.    MSR      CPSR_cxsf,r3
        0x00002860:    e0400102    ..@.    SUB      r0,r0,r2,LSL #2
        0x00002864:    e12fff1e    ../.    BX       lr
    alib_int_disable
    cpu_int_disable
    spin1_int_disable
        0x00002868:    e10f0000    ....    MRS      r0,APSR ; formerly CPSR
        0x0000286c:    e38010c0    ....    ORR      r1,r0,#0xc0
        0x00002870:    e121f001    ..!.    MSR      CPSR_c,r1
        0x00002874:    e12fff1e    ../.    BX       lr
    alib_int_restore
    cpu_int_restore
    spin1_mode_restore
        0x00002878:    e12ff000    ../.    MSR      CPSR_cxsf,r0
        0x0000287c:    e12fff1e    ../.    BX       lr
    alib_irq_disable
    cpu_irq_disable
    spin1_irq_disable
        0x00002880:    e10f0000    ....    MRS      r0,APSR ; formerly CPSR
        0x00002884:    e3801080    ....    ORR      r1,r0,#0x80
        0x00002888:    e121f001    ..!.    MSR      CPSR_c,r1
        0x0000288c:    e12fff1e    ../.    BX       lr
    alib_irq_on
    cpu_irq_enable
    spin1_irq_enable
        0x00002890:    e10f0000    ....    MRS      r0,APSR ; formerly CPSR
        0x00002894:    e3c01080    ....    BIC      r1,r0,#0x80
        0x00002898:    e121f001    ..!.    MSR      CPSR_c,r1
        0x0000289c:    e12fff1e    ../.    BX       lr
    alib_lock
    sark_lock_get
        0x000028a0:    e3a0c4e2    ....    MOV      r12,#0xe2000000
        0x000028a4:    e08cc100    ....    ADD      r12,r12,r0,LSL #2
        0x000028a8:    e10f0000    ....    MRS      r0,APSR ; formerly CPSR
        0x000028ac:    e38010c0    ....    ORR      r1,r0,#0xc0
        0x000028b0:    e121f001    ..!.    MSR      CPSR_c,r1
    lg1
        0x000028b4:    e59c1100    ....    LDR      r1,[r12,#0x100]
        0x000028b8:    e3110102    ....    TST      r1,#0x80000000
        0x000028bc:    1afffffc    ....    BNE      lg1 ; 0x28b4
        0x000028c0:    e12fff1e    ../.    BX       lr
    sark_lock_free
        0x000028c4:    e3a0c4e2    ....    MOV      r12,#0xe2000000
        0x000028c8:    e08c1101    ....    ADD      r1,r12,r1,LSL #2
        0x000028cc:    e5911180    ....    LDR      r1,[r1,#0x180]
        0x000028d0:    e121f000    ..!.    MSR      CPSR_c,r0
        0x000028d4:    e12fff1e    ../.    BX       lr
    alib_sark_int
    sark_int_han
        0x000028d8:    e92d500f    .P-.    PUSH     {r0-r3,r12,lr}
        0x000028dc:    e24e0004    ..N.    SUB      r0,lr,#4
        0x000028e0:    e14fc000    ..O.    MRS      r12,SPSR
        0x000028e4:    e321f01f    ..!.    MSR      CPSR_c,#0x1f
        0x000028e8:    e92d5000    .P-.    PUSH     {r12,lr}
        0x000028ec:    fa00048c    ....    BLX      sark_int ; 0x3b24
        0x000028f0:    e8bd5000    .P..    POP      {r12,lr}
        0x000028f4:    e321f092    ..!.    MSR      CPSR_c,#0x92
        0x000028f8:    e16ff00c    ..o.    MSR      SPSR_cxsf,r12
        0x000028fc:    e3a0042f    /...    MOV      r0,#0x2f000000
        0x00002900:    e5800030    0...    STR      r0,[r0,#0x30]
        0x00002904:    e8bd500f    .P..    POP      {r0-r3,r12,lr}
    null_int_han
        0x00002908:    e25ef004    ..^.    SUBS     pc,lr,#4
    alib_schedule
    schedule
        0x0000290c:    e92d5000    .P-.    PUSH     {r12,lr}
        0x00002910:    e10fc000    ....    MRS      r12,APSR ; formerly CPSR
        0x00002914:    e3cce01f    ....    BIC      lr,r12,#0x1f
        0x00002918:    e38ee01f    ....    ORR      lr,lr,#0x1f
        0x0000291c:    e121f00e    ..!.    MSR      CPSR_c,lr
        0x00002920:    e92d5000    .P-.    PUSH     {r12,lr}
        0x00002924:    fa0005d6    ....    BLX      schedule_sysmode ; 0x4084
        0x00002928:    e8bd5000    .P..    POP      {r12,lr}
        0x0000292c:    e121f00c    ..!.    MSR      CPSR_c,r12
        0x00002930:    e8bd5000    .P..    POP      {r12,lr}
        0x00002934:    e12fff1e    ../.    BX       lr
    alib_strcpy
    sark_str_cpy
        0x00002938:    e4d12001    . ..    LDRB     r2,[r1],#1
        0x0000293c:    e3520000    ..R.    CMP      r2,#0
        0x00002940:    e4c02001    . ..    STRB     r2,[r0],#1
        0x00002944:    1afffffb    ....    BNE      sark_str_cpy ; 0x2938
        0x00002948:    e12fff1e    ../.    BX       lr
    alib_wfi
    cpu_wfi
    spin1_wfi
        0x0000294c:    ee070f90    ....    MCR      p15,#0x0,r0,c7,c0,#4
        0x00002950:    e12fff1e    ../.    BX       lr
    alib_word_cpy
    sark_msg_cpy
        0x00002954:    e2800004    ....    ADD      r0,r0,#4
        0x00002958:    e2811004    ....    ADD      r1,r1,#4
        0x0000295c:    e1d120b0    . ..    LDRH     r2,[r1,#0]
        0x00002960:    e2822004    . ..    ADD      r2,r2,#4
    sark_word_cpy
        0x00002964:    e3120003    ....    TST      r2,#3
        0x00002968:    13c22003    . ..    BICNE    r2,r2,#3
        0x0000296c:    12822004    . ..    ADDNE    r2,r2,#4
        0x00002970:    e92d4010    .@-.    PUSH     {r4,lr}
        0x00002974:    e2522020      R.    SUBS     r2,r2,#0x20
        0x00002978:    3a000005    ...:    BCC      wc2 ; 0x2994
    wc1
        0x0000297c:    e8b15018    .P..    LDM      r1!,{r3,r4,r12,lr}
        0x00002980:    e8a05018    .P..    STM      r0!,{r3,r4,r12,lr}
        0x00002984:    e8b15018    .P..    LDM      r1!,{r3,r4,r12,lr}
        0x00002988:    e8a05018    .P..    STM      r0!,{r3,r4,r12,lr}
        0x0000298c:    e2522020      R.    SUBS     r2,r2,#0x20
        0x00002990:    2afffff9    ...*    BCS      wc1 ; 0x297c
    wc2
        0x00002994:    e1b0ce02    ....    LSLS     r12,r2,#28
        0x00002998:    28b15018    .P.(    LDMCS    r1!,{r3,r4,r12,lr}
        0x0000299c:    28a05018    .P.(    STMCS    r0!,{r3,r4,r12,lr}
        0x000029a0:    48b10018    ...H    LDMMI    r1!,{r3,r4}
        0x000029a4:    48a00018    ...H    STMMI    r0!,{r3,r4}
        0x000029a8:    e1b0cf02    ....    LSLS     r12,r2,#30
        0x000029ac:    24913004    .0.$    LDRCS    r3,[r1],#4
        0x000029b0:    24803004    .0.$    STRCS    r3,[r0],#4
        0x000029b4:    e8bd8010    ....    POP      {r4,pc}
    alib_word_set
    sark_word_set
        0x000029b8:    e1a03001    .0..    MOV      r3,r1
    ws1
        0x000029bc:    e2522010    . R.    SUBS     r2,r2,#0x10
        0x000029c0:    28a0000a    ...(    STMCS    r0!,{r1,r3}
        0x000029c4:    28a0000a    ...(    STMCS    r0!,{r1,r3}
        0x000029c8:    2afffffb    ...*    BCS      ws1 ; 0x29bc
        0x000029cc:    e1b02e82    ....    LSLS     r2,r2,#29
        0x000029d0:    28a0000a    ...(    STMCS    r0!,{r1,r3}
        0x000029d4:    48a00002    ...H    STMMI    r0!,{r1}
        0x000029d8:    e12fff1e    ../.    BX       lr
    i.__ARM_common_switch8
    __ARM_common_switch8
        0x000029dc:    e55ec001    ..^.    LDRB     r12,[lr,#-1]
        0x000029e0:    e153000c    ..S.    CMP      r3,r12
        0x000029e4:    37de3003    .0.7    LDRBCC   r3,[lr,r3]
        0x000029e8:    27de300c    .0.'    LDRBCS   r3,[lr,r12]
        0x000029ec:    e08ec083    ....    ADD      r12,lr,r3,LSL #1
        0x000029f0:    e12fff1c    ../.    BX       r12
    i.barrier_packet_handler
    barrier_packet_handler
        0x000029f4:    e92d000f    ..-.    PUSH     {r0-r3}
        0x000029f8:    e3a00202    ....    MOV      r0,#0x20000000
        0x000029fc:    e5900014    ....    LDR      r0,[r0,#0x14]
        0x00002a00:    e59f1074    t...    LDR      r1,[pc,#116] ; [0x2a7c] = 0xf0000800
        0x00002a04:    e3a02001    . ..    MOV      r2,#1
        0x00002a08:    e0900001    ....    ADDS     r0,r0,r1
        0x00002a0c:    e3a0142f    /...    MOV      r1,#0x2f000000
        0x00002a10:    0a00000e    ....    BEQ      0x2a50 ; barrier_packet_handler + 92
        0x00002a14:    e3500001    ..P.    CMP      r0,#1
        0x00002a18:    059f0060    `...    LDREQ    r0,[pc,#96] ; [0x2a80] = 0x40012c
        0x00002a1c:    0a000014    ....    BEQ      0x2a74 ; barrier_packet_handler + 128
        0x00002a20:    e3500002    ..P.    CMP      r0,#2
        0x00002a24:    059f0058    X...    LDREQ    r0,[pc,#88] ; [0x2a84] = 0x400138
        0x00002a28:    0a000002    ....    BEQ      0x2a38 ; barrier_packet_handler + 68
        0x00002a2c:    e3500003    ..P.    CMP      r0,#3
        0x00002a30:    1a000003    ....    BNE      0x2a44 ; barrier_packet_handler + 80
        0x00002a34:    e59f004c    L...    LDR      r0,[pc,#76] ; [0x2a88] = 0x40013c
        0x00002a38:    e5903000    .0..    LDR      r3,[r0,#0]
        0x00002a3c:    e2833001    .0..    ADD      r3,r3,#1
        0x00002a40:    e5803000    .0..    STR      r3,[r0,#0]
        0x00002a44:    e5812030    0 ..    STR      r2,[r1,#0x30]
        0x00002a48:    e8bd000f    ....    POP      {r0-r3}
        0x00002a4c:    e25ef004    ..^.    SUBS     pc,lr,#4
        0x00002a50:    e59f0034    4...    LDR      r0,[pc,#52] ; [0x2a8c] = 0x4009d4
        0x00002a54:    e5900004    ....    LDR      r0,[r0,#4]
        0x00002a58:    e3500000    ..P.    CMP      r0,#0
        0x00002a5c:    a59f002c    ,...    LDRGE    r0,[pc,#44] ; [0x2a90] = 0x2e88
        0x00002a60:    a581010c    ....    STRGE    r0,[r1,#0x10c]
        0x00002a64:    b591000c    ....    LDRLT    r0,[r1,#0xc]
        0x00002a68:    b3800040    @...    ORRLT    r0,r0,#0x40
        0x00002a6c:    b581000c    ....    STRLT    r0,[r1,#0xc]
        0x00002a70:    e59f001c    ....    LDR      r0,[pc,#28] ; [0x2a94] = 0x400128
        0x00002a74:    e5802000    . ..    STR      r2,[r0,#0]
        0x00002a78:    eafffff1    ....    B        0x2a44 ; barrier_packet_handler + 80
    $d
        0x00002a7c:    f0000800    ....    DCD    4026533888
        0x00002a80:    0040012c    ,.@.    DCD    4194604
        0x00002a84:    00400138    8.@.    DCD    4194616
        0x00002a88:    0040013c    <.@.    DCD    4194620
        0x00002a8c:    004009d4    ..@.    DCD    4196820
        0x00002a90:    00002e88    ....    DCD    11912
        0x00002a94:    00400128    (.@.    DCD    4194600
    $t
    i.barrier_setup
    barrier_setup
        0x00002a98:    b5f7        ..      PUSH     {r0-r2,r4-r7,lr}
        0x00002a9a:    468c        .F      MOV      r12,r1
        0x00002a9c:    2301        .#      MOVS     r3,#1
        0x00002a9e:    b084        ..      SUB      sp,sp,#0x10
        0x00002aa0:    484a        JH      LDR      r0,[pc,#296] ; [0x2bcc] = 0xe5007f00
        0x00002aa2:    8801        ..      LDRH     r1,[r0,#0]
        0x00002aa4:    060f        ..      LSLS     r7,r1,#24
        0x00002aa6:    0a08        ..      LSRS     r0,r1,#8
        0x00002aa8:    0e3f        ?.      LSRS     r7,r7,#24
        0x00002aaa:    2900        .)      CMP      r1,#0
        0x00002aac:    d000        ..      BEQ      0x2ab0 ; barrier_setup + 24
        0x00002aae:    2300        .#      MOVS     r3,#0
        0x00002ab0:    4e47        GN      LDR      r6,[pc,#284] ; [0x2bd0] = 0x400100
        0x00002ab2:    2100        .!      MOVS     r1,#0
        0x00002ab4:    70b3        .p      STRB     r3,[r6,#2]
        0x00002ab6:    80b1        ..      STRH     r1,[r6,#4]
        0x00002ab8:    000d        ..      MOVS     r5,r1
        0x00002aba:    000c        ..      MOVS     r4,r1
        0x00002abc:    9103        ..      STR      r1,[sp,#0xc]
        0x00002abe:    68b1        .h      LDR      r1,[r6,#8]
        0x00002ac0:    9102        ..      STR      r1,[sp,#8]
        0x00002ac2:    0089        ..      LSLS     r1,r1,#2
        0x00002ac4:    9101        ..      STR      r1,[sp,#4]
        0x00002ac6:    5851        QX      LDR      r1,[r2,r1]
        0x00002ac8:    2301        .#      MOVS     r3,#1
        0x00002aca:    0849        I.      LSRS     r1,r1,#1
        0x00002acc:    0049        I.      LSLS     r1,r1,#1
        0x00002ace:    9100        ..      STR      r1,[sp,#0]
        0x00002ad0:    493e        >I      LDR      r1,[pc,#248] ; [0x2bcc] = 0xe5007f00
        0x00002ad2:    31a0        .1      ADDS     r1,r1,#0xa0
        0x00002ad4:    7f09        ..      LDRB     r1,[r1,#0x1c]
        0x00002ad6:    468e        .F      MOV      lr,r1
        0x00002ad8:    e00d        ..      B        0x2af6 ; barrier_setup + 94
        0x00002ada:    2601        .&      MOVS     r6,#1
        0x00002adc:    9900        ..      LDR      r1,[sp,#0]
        0x00002ade:    409e        .@      LSLS     r6,r6,r3
        0x00002ae0:    420e        .B      TST      r6,r1
        0x00002ae2:    d007        ..      BEQ      0x2af4 ; barrier_setup + 92
        0x00002ae4:    1d99        ..      ADDS     r1,r3,#6
        0x00002ae6:    2601        .&      MOVS     r6,#1
        0x00002ae8:    408e        .@      LSLS     r6,r6,r1
        0x00002aea:    4939        9I      LDR      r1,[pc,#228] ; [0x2bd0] = 0x400100
        0x00002aec:    4335        5C      ORRS     r5,r5,r6
        0x00002aee:    6a0e        .j      LDR      r6,[r1,#0x20]
        0x00002af0:    1c76        v.      ADDS     r6,r6,#1
        0x00002af2:    620e        .b      STR      r6,[r1,#0x20]
        0x00002af4:    1c5b        [.      ADDS     r3,r3,#1
        0x00002af6:    459e        .E      CMP      lr,r3
        0x00002af8:    d8ef        ..      BHI      0x2ada ; barrier_setup + 66
        0x00002afa:    4661        aF      MOV      r1,r12
        0x00002afc:    1e49        I.      SUBS     r1,r1,#1
        0x00002afe:    2800        .(      CMP      r0,#0
        0x00002b00:    468e        .F      MOV      lr,r1
        0x00002b02:    d108        ..      BNE      0x2b16 ; barrier_setup + 126
        0x00002b04:    4577        wE      CMP      r7,lr
        0x00002b06:    d206        ..      BCS      0x2b16 ; barrier_setup + 126
        0x00002b08:    9901        ..      LDR      r1,[sp,#4]
        0x00002b0a:    1889        ..      ADDS     r1,r1,r2
        0x00002b0c:    6849        Ih      LDR      r1,[r1,#4]
        0x00002b0e:    0849        I.      LSRS     r1,r1,#1
        0x00002b10:    d001        ..      BEQ      0x2b16 ; barrier_setup + 126
        0x00002b12:    2104        .!      MOVS     r1,#4
        0x00002b14:    430c        .C      ORRS     r4,r4,r1
        0x00002b16:    4e2e        .N      LDR      r6,[pc,#184] ; [0x2bd0] = 0x400100
        0x00002b18:    9b04        ..      LDR      r3,[sp,#0x10]
        0x00002b1a:    68b6        .h      LDR      r6,[r6,#8]
        0x00002b1c:    1e5b        [.      SUBS     r3,r3,#1
        0x00002b1e:    4466        fD      ADD      r6,r6,r12
        0x00002b20:    00b6        ..      LSLS     r6,r6,#2
        0x00002b22:    4298        .B      CMP      r0,r3
        0x00002b24:    d206        ..      BCS      0x2b34 ; barrier_setup + 156
        0x00002b26:    2f00        ./      CMP      r7,#0
        0x00002b28:    d104        ..      BNE      0x2b34 ; barrier_setup + 156
        0x00002b2a:    5991        .Y      LDR      r1,[r2,r6]
        0x00002b2c:    0849        I.      LSRS     r1,r1,#1
        0x00002b2e:    d001        ..      BEQ      0x2b34 ; barrier_setup + 156
        0x00002b30:    2101        .!      MOVS     r1,#1
        0x00002b32:    430c        .C      ORRS     r4,r4,r1
        0x00002b34:    4298        .B      CMP      r0,r3
        0x00002b36:    d207        ..      BCS      0x2b48 ; barrier_setup + 176
        0x00002b38:    4577        wE      CMP      r7,lr
        0x00002b3a:    d205        ..      BCS      0x2b48 ; barrier_setup + 176
        0x00002b3c:    18b0        ..      ADDS     r0,r6,r2
        0x00002b3e:    6840        @h      LDR      r0,[r0,#4]
        0x00002b40:    0840        @.      LSRS     r0,r0,#1
        0x00002b42:    d001        ..      BEQ      0x2b48 ; barrier_setup + 176
        0x00002b44:    2002        .       MOVS     r0,#2
        0x00002b46:    4304        .C      ORRS     r4,r4,r0
        0x00002b48:    4821        !H      LDR      r0,[pc,#132] ; [0x2bd0] = 0x400100
        0x00002b4a:    2601        .&      MOVS     r6,#1
        0x00002b4c:    7881        .x      LDRB     r1,[r0,#2]
        0x00002b4e:    4821        !H      LDR      r0,[pc,#132] ; [0x2bd4] = 0x4003d0
        0x00002b50:    6800        .h      LDR      r0,[r0,#0]
        0x00002b52:    1d80        ..      ADDS     r0,r0,#6
        0x00002b54:    4086        .@      LSLS     r6,r6,r0
        0x00002b56:    2900        .)      CMP      r1,#0
        0x00002b58:    d014        ..      BEQ      0x2b84 ; barrier_setup + 236
        0x00002b5a:    9b04        ..      LDR      r3,[sp,#0x10]
        0x00002b5c:    2000        .       MOVS     r0,#0
        0x00002b5e:    4661        aF      MOV      r1,r12
        0x00002b60:    434b        KC      MULS     r3,r1,r3
        0x00002b62:    4f1b        .O      LDR      r7,[pc,#108] ; [0x2bd0] = 0x400100
        0x00002b64:    e00a        ..      B        0x2b7c ; barrier_setup + 228
        0x00002b66:    9902        ..      LDR      r1,[sp,#8]
        0x00002b68:    4288        .B      CMP      r0,r1
        0x00002b6a:    d006        ..      BEQ      0x2b7a ; barrier_setup + 226
        0x00002b6c:    0081        ..      LSLS     r1,r0,#2
        0x00002b6e:    5851        QX      LDR      r1,[r2,r1]
        0x00002b70:    0849        I.      LSRS     r1,r1,#1
        0x00002b72:    d002        ..      BEQ      0x2b7a ; barrier_setup + 226
        0x00002b74:    69b9        .i      LDR      r1,[r7,#0x18]
        0x00002b76:    1c49        I.      ADDS     r1,r1,#1
        0x00002b78:    61b9        .a      STR      r1,[r7,#0x18]
        0x00002b7a:    1c40        @.      ADDS     r0,r0,#1
        0x00002b7c:    4283        .B      CMP      r3,r0
        0x00002b7e:    d8f2        ..      BHI      0x2b66 ; barrier_setup + 206
        0x00002b80:    0027        '.      MOVS     r7,r4
        0x00002b82:    e006        ..      B        0x2b92 ; barrier_setup + 250
        0x00002b84:    4326        &C      ORRS     r6,r6,r4
        0x00002b86:    9803        ..      LDR      r0,[sp,#0xc]
        0x00002b88:    0037        7.      MOVS     r7,r6
        0x00002b8a:    f000fe97    ....    BL       rtr_p2p_get ; 0x38bc
        0x00002b8e:    2601        .&      MOVS     r6,#1
        0x00002b90:    4086        .@      LSLS     r6,r6,r0
        0x00002b92:    003b        ;.      MOVS     r3,r7
        0x00002b94:    4f0e        .O      LDR      r7,[pc,#56] ; [0x2bd0] = 0x400100
        0x00002b96:    2200        ."      MOVS     r2,#0
        0x00002b98:    6c78        xl      LDR      r0,[r7,#0x44]
        0x00002b9a:    490f        .I      LDR      r1,[pc,#60] ; [0x2bd8] = 0xffff801
        0x00002b9c:    43d2        .C      MVNS     r2,r2
        0x00002b9e:    1c40        @.      ADDS     r0,r0,#1
        0x00002ba0:    f000fe58    ..X.    BL       rtr_mc_set ; 0x3854
        0x00002ba4:    490c        .I      LDR      r1,[pc,#48] ; [0x2bd8] = 0xffff801
        0x00002ba6:    6c78        xl      LDR      r0,[r7,#0x44]
        0x00002ba8:    2200        ."      MOVS     r2,#0
        0x00002baa:    0033        3.      MOVS     r3,r6
        0x00002bac:    43d2        .C      MVNS     r2,r2
        0x00002bae:    1c89        ..      ADDS     r1,r1,#2
        0x00002bb0:    1cc0        ..      ADDS     r0,r0,#3
        0x00002bb2:    f000fe4f    ..O.    BL       rtr_mc_set ; 0x3854
        0x00002bb6:    4908        .I      LDR      r1,[pc,#32] ; [0x2bd8] = 0xffff801
        0x00002bb8:    002b        +.      MOVS     r3,r5
        0x00002bba:    2200        ."      MOVS     r2,#0
        0x00002bbc:    6c78        xl      LDR      r0,[r7,#0x44]
        0x00002bbe:    4323        #C      ORRS     r3,r3,r4
        0x00002bc0:    43d2        .C      MVNS     r2,r2
        0x00002bc2:    1e49        I.      SUBS     r1,r1,#1
        0x00002bc4:    f000fe46    ..F.    BL       rtr_mc_set ; 0x3854
        0x00002bc8:    b007        ..      ADD      sp,sp,#0x1c
        0x00002bca:    bdf0        ..      POP      {r4-r7,pc}
    $d
        0x00002bcc:    e5007f00    ....    DCD    3842014976
        0x00002bd0:    00400100    ..@.    DCD    4194560
        0x00002bd4:    004003d0    ..@.    DCD    4195280
        0x00002bd8:    0ffff801    ....    DCD    268433409
    $t
    i.barrier_wait
    barrier_wait
        0x00002bdc:    b5fe        ..      PUSH     {r1-r7,lr}
        0x00002bde:    2710        .'      MOVS     r7,#0x10
        0x00002be0:    4e53        SN      LDR      r6,[pc,#332] ; [0x2d30] = 0x400100
        0x00002be2:    4b52        RK      LDR      r3,[pc,#328] ; [0x2d2c] = 0xe5007f10
        0x00002be4:    0030        0.      MOVS     r0,r6
        0x00002be6:    6d00        .m      LDR      r0,[r0,#0x50]
        0x00002be8:    7871        qx      LDRB     r1,[r6,#1]
        0x00002bea:    4c50        PL      LDR      r4,[pc,#320] ; [0x2d2c] = 0xe5007f10
        0x00002bec:    4338        8C      ORRS     r0,r0,r7
        0x00002bee:    3350        P3      ADDS     r3,r3,#0x50
        0x00002bf0:    2900        .)      CMP      r1,#0
        0x00002bf2:    d06d        m.      BEQ      0x2cd0 ; barrier_wait + 244
        0x00002bf4:    21be        .!      MOVS     r1,#0xbe
        0x00002bf6:    7119        .q      STRB     r1,[r3,#4]
        0x00002bf8:    78b1        .x      LDRB     r1,[r6,#2]
        0x00002bfa:    2900        .)      CMP      r1,#0
        0x00002bfc:    d03b        ;.      BEQ      0x2c76 ; barrier_wait + 154
        0x00002bfe:    2200        ."      MOVS     r2,#0
        0x00002c00:    484c        LH      LDR      r0,[pc,#304] ; [0x2d34] = 0xffff801
        0x00002c02:    0011        ..      MOVS     r1,r2
        0x00002c04:    f001fb8e    ....    BL       spin1_send_mc_packet ; 0x4324
        0x00002c08:    6825        %h      LDR      r5,[r4,#0]
        0x00002c0a:    0028        (.      MOVS     r0,r5
        0x00002c0c:    e009        ..      B        0x2c22 ; barrier_wait + 70
        0x00002c0e:    6821        !h      LDR      r1,[r4,#0]
        0x00002c10:    1a09        ..      SUBS     r1,r1,r0
        0x00002c12:    2964        d)      CMP      r1,#0x64
        0x00002c14:    d905        ..      BLS      0x2c22 ; barrier_wait + 70
        0x00002c16:    2200        ."      MOVS     r2,#0
        0x00002c18:    4846        FH      LDR      r0,[pc,#280] ; [0x2d34] = 0xffff801
        0x00002c1a:    0011        ..      MOVS     r1,r2
        0x00002c1c:    f001fb82    ....    BL       spin1_send_mc_packet ; 0x4324
        0x00002c20:    6820         h      LDR      r0,[r4,#0]
        0x00002c22:    6821        !h      LDR      r1,[r4,#0]
        0x00002c24:    4a44        DJ      LDR      r2,[pc,#272] ; [0x2d38] = 0x61a8
        0x00002c26:    1b49        I.      SUBS     r1,r1,r5
        0x00002c28:    4291        .B      CMP      r1,r2
        0x00002c2a:    d207        ..      BCS      0x2c3c ; barrier_wait + 96
        0x00002c2c:    6bb1        .k      LDR      r1,[r6,#0x38]
        0x00002c2e:    6a32        2j      LDR      r2,[r6,#0x20]
        0x00002c30:    4291        .B      CMP      r1,r2
        0x00002c32:    d3ec        ..      BCC      0x2c0e ; barrier_wait + 50
        0x00002c34:    6bf1        .k      LDR      r1,[r6,#0x3c]
        0x00002c36:    69b2        .i      LDR      r2,[r6,#0x18]
        0x00002c38:    4291        .B      CMP      r1,r2
        0x00002c3a:    d3e8        ..      BCC      0x2c0e ; barrier_wait + 50
        0x00002c3c:    6bb0        .k      LDR      r0,[r6,#0x38]
        0x00002c3e:    6a31        1j      LDR      r1,[r6,#0x20]
        0x00002c40:    4288        .B      CMP      r0,r1
        0x00002c42:    d103        ..      BNE      0x2c4c ; barrier_wait + 112
        0x00002c44:    6bf0        .k      LDR      r0,[r6,#0x3c]
        0x00002c46:    69b1        .i      LDR      r1,[r6,#0x18]
        0x00002c48:    4288        .B      CMP      r0,r1
        0x00002c4a:    d00f        ..      BEQ      0x2c6c ; barrier_wait + 144
        0x00002c4c:    6d30        0m      LDR      r0,[r6,#0x50]
        0x00002c4e:    4338        8C      ORRS     r0,r0,r7
        0x00002c50:    6530        0e      STR      r0,[r6,#0x50]
        0x00002c52:    69b2        .i      LDR      r2,[r6,#0x18]
        0x00002c54:    6bf1        .k      LDR      r1,[r6,#0x3c]
        0x00002c56:    9201        ..      STR      r2,[sp,#4]
        0x00002c58:    9100        ..      STR      r1,[sp,#0]
        0x00002c5a:    6a33        3j      LDR      r3,[r6,#0x20]
        0x00002c5c:    6bb2        .k      LDR      r2,[r6,#0x38]
        0x00002c5e:    2000        .       MOVS     r0,#0
        0x00002c60:    a136        6.      ADR      r1,{pc}+0xdc ; 0x2d3c
        0x00002c62:    f000fb29    ..).    BL       io_printf ; 0x32b8
        0x00002c66:    20c8        .       MOVS     r0,#0xc8
        0x00002c68:    f7fffdd0    ....    BL       sark_delay_us ; 0x280c
        0x00002c6c:    4831        1H      LDR      r0,[pc,#196] ; [0x2d34] = 0xffff801
        0x00002c6e:    2200        ."      MOVS     r2,#0
        0x00002c70:    0011        ..      MOVS     r1,r2
        0x00002c72:    1e40        @.      SUBS     r0,r0,#1
        0x00002c74:    e027        '.      B        0x2cc6 ; barrier_wait + 234
        0x00002c76:    6822        "h      LDR      r2,[r4,#0]
        0x00002c78:    4b2f        /K      LDR      r3,[pc,#188] ; [0x2d38] = 0x61a8
        0x00002c7a:    6821        !h      LDR      r1,[r4,#0]
        0x00002c7c:    1a89        ..      SUBS     r1,r1,r2
        0x00002c7e:    4299        .B      CMP      r1,r3
        0x00002c80:    d206        ..      BCS      0x2c90 ; barrier_wait + 180
        0x00002c82:    6bb1        .k      LDR      r1,[r6,#0x38]
        0x00002c84:    6a35        5j      LDR      r5,[r6,#0x20]
        0x00002c86:    42a9        .B      CMP      r1,r5
        0x00002c88:    d3f7        ..      BCC      0x2c7a ; barrier_wait + 158
        0x00002c8a:    6af1        .j      LDR      r1,[r6,#0x2c]
        0x00002c8c:    2900        .)      CMP      r1,#0
        0x00002c8e:    d0f4        ..      BEQ      0x2c7a ; barrier_wait + 158
        0x00002c90:    6bb1        .k      LDR      r1,[r6,#0x38]
        0x00002c92:    6a32        2j      LDR      r2,[r6,#0x20]
        0x00002c94:    4291        .B      CMP      r1,r2
        0x00002c96:    d007        ..      BEQ      0x2ca8 ; barrier_wait + 204
        0x00002c98:    6530        0e      STR      r0,[r6,#0x50]
        0x00002c9a:    6a33        3j      LDR      r3,[r6,#0x20]
        0x00002c9c:    6bb2        .k      LDR      r2,[r6,#0x38]
        0x00002c9e:    2000        .       MOVS     r0,#0
        0x00002ca0:    a136        6.      ADR      r1,{pc}+0xdc ; 0x2d7c
        0x00002ca2:    f000fb09    ....    BL       io_printf ; 0x32b8
        0x00002ca6:    e007        ..      B        0x2cb8 ; barrier_wait + 220
        0x00002ca8:    6af1        .j      LDR      r1,[r6,#0x2c]
        0x00002caa:    2900        .)      CMP      r1,#0
        0x00002cac:    d107        ..      BNE      0x2cbe ; barrier_wait + 226
        0x00002cae:    6530        0e      STR      r0,[r6,#0x50]
        0x00002cb0:    2000        .       MOVS     r0,#0
        0x00002cb2:    a140        @.      ADR      r1,{pc}+0x102 ; 0x2db4
        0x00002cb4:    f000fb00    ....    BL       io_printf ; 0x32b8
        0x00002cb8:    20c8        .       MOVS     r0,#0xc8
        0x00002cba:    f7fffda7    ....    BL       sark_delay_us ; 0x280c
        0x00002cbe:    481d        .H      LDR      r0,[pc,#116] ; [0x2d34] = 0xffff801
        0x00002cc0:    2200        ."      MOVS     r2,#0
        0x00002cc2:    0011        ..      MOVS     r1,r2
        0x00002cc4:    1c80        ..      ADDS     r0,r0,#2
        0x00002cc6:    f001fb2d    ..-.    BL       spin1_send_mc_packet ; 0x4324
        0x00002cca:    6821        !h      LDR      r1,[r4,#0]
        0x00002ccc:    4847        GH      LDR      r0,[pc,#284] ; [0x2dec] = 0xc350
        0x00002cce:    e018        ..      B        0x2d02 ; barrier_wait + 294
        0x00002cd0:    6822        "h      LDR      r2,[r4,#0]
        0x00002cd2:    4d46        FM      LDR      r5,[pc,#280] ; [0x2dec] = 0xc350
        0x00002cd4:    6821        !h      LDR      r1,[r4,#0]
        0x00002cd6:    1a89        ..      SUBS     r1,r1,r2
        0x00002cd8:    42a9        .B      CMP      r1,r5
        0x00002cda:    d202        ..      BCS      0x2ce2 ; barrier_wait + 262
        0x00002cdc:    7919        .y      LDRB     r1,[r3,#4]
        0x00002cde:    29be        .)      CMP      r1,#0xbe
        0x00002ce0:    d3f8        ..      BCC      0x2cd4 ; barrier_wait + 248
        0x00002ce2:    7919        .y      LDRB     r1,[r3,#4]
        0x00002ce4:    29be        .)      CMP      r1,#0xbe
        0x00002ce6:    d207        ..      BCS      0x2cf8 ; barrier_wait + 284
        0x00002ce8:    6530        0e      STR      r0,[r6,#0x50]
        0x00002cea:    2000        .       MOVS     r0,#0
        0x00002cec:    a140        @.      ADR      r1,{pc}+0x104 ; 0x2df0
        0x00002cee:    f000fae3    ....    BL       io_printf ; 0x32b8
        0x00002cf2:    20c8        .       MOVS     r0,#0xc8
        0x00002cf4:    f7fffd8a    ....    BL       sark_delay_us ; 0x280c
        0x00002cf8:    480e        .H      LDR      r0,[pc,#56] ; [0x2d34] = 0xffff801
        0x00002cfa:    2200        ."      MOVS     r2,#0
        0x00002cfc:    0011        ..      MOVS     r1,r2
        0x00002cfe:    1c40        @.      ADDS     r0,r0,#1
        0x00002d00:    e7e1        ..      B        0x2cc6 ; barrier_wait + 234
        0x00002d02:    6822        "h      LDR      r2,[r4,#0]
        0x00002d04:    1a52        R.      SUBS     r2,r2,r1
        0x00002d06:    4282        .B      CMP      r2,r0
        0x00002d08:    d202        ..      BCS      0x2d10 ; barrier_wait + 308
        0x00002d0a:    6ab2        .j      LDR      r2,[r6,#0x28]
        0x00002d0c:    2a00        .*      CMP      r2,#0
        0x00002d0e:    d0f8        ..      BEQ      0x2d02 ; barrier_wait + 294
        0x00002d10:    6ab0        .j      LDR      r0,[r6,#0x28]
        0x00002d12:    2800        .(      CMP      r0,#0
        0x00002d14:    d109        ..      BNE      0x2d2a ; barrier_wait + 334
        0x00002d16:    6d30        0m      LDR      r0,[r6,#0x50]
        0x00002d18:    a143        C.      ADR      r1,{pc}+0x110 ; 0x2e28
        0x00002d1a:    4338        8C      ORRS     r0,r0,r7
        0x00002d1c:    6530        0e      STR      r0,[r6,#0x50]
        0x00002d1e:    2000        .       MOVS     r0,#0
        0x00002d20:    f000faca    ....    BL       io_printf ; 0x32b8
        0x00002d24:    20c8        .       MOVS     r0,#0xc8
        0x00002d26:    f7fffd71    ..q.    BL       sark_delay_us ; 0x280c
        0x00002d2a:    bdfe        ..      POP      {r1-r7,pc}
    $d
        0x00002d2c:    e5007f10    ....    DCD    3842014992
        0x00002d30:    00400100    ..@.    DCD    4194560
        0x00002d34:    0ffff801    ....    DCD    268433409
        0x00002d38:    000061a8    .a..    DCD    25000
        0x00002d3c:    615b0909    ..[a    DCD    1633356041
        0x00002d40:    775f6970    pi_w    DCD    2002741616
        0x00002d44:    5d6e7261    arn]    DCD    1567519329
        0x00002d48:    72617720     war    DCD    1918990112
        0x00002d4c:    676e696e    ning    DCD    1735289198
        0x00002d50:    6166203a    : fa    DCD    1634082874
        0x00002d54:    64656c69    iled    DCD    1684368489
        0x00002d58:    206f7420     to     DCD    544175136
        0x00002d5c:    636e7973    sync    DCD    1668184435
        0x00002d60:    6e6f7268    hron    DCD    1852797544
        0x00002d64:    20657369    ise     DCD    543519593
        0x00002d68:    2f642528    (%d/    DCD    795092264
        0x00002d6c:    20296425    %d)     DCD    539583525
        0x00002d70:    2f642528    (%d/    DCD    795092264
        0x00002d74:    2e296425    %d).    DCD    774464549
        0x00002d78:    0000000a    ....    DCD    10
        0x00002d7c:    615b0909    ..[a    DCD    1633356041
        0x00002d80:    775f6970    pi_w    DCD    2002741616
        0x00002d84:    5d6e7261    arn]    DCD    1567519329
        0x00002d88:    72617720     war    DCD    1918990112
        0x00002d8c:    676e696e    ning    DCD    1735289198
        0x00002d90:    6166203a    : fa    DCD    1634082874
        0x00002d94:    64656c69    iled    DCD    1684368489
        0x00002d98:    206f7420     to     DCD    544175136
        0x00002d9c:    636e7973    sync    DCD    1668184435
        0x00002da0:    6e6f7268    hron    DCD    1852797544
        0x00002da4:    20657369    ise     DCD    543519593
        0x00002da8:    2f642528    (%d/    DCD    795092264
        0x00002dac:    2e296425    %d).    DCD    774464549
        0x00002db0:    0000000a    ....    DCD    10
        0x00002db4:    615b0909    ..[a    DCD    1633356041
        0x00002db8:    775f6970    pi_w    DCD    2002741616
        0x00002dbc:    5d6e7261    arn]    DCD    1567519329
        0x00002dc0:    72617720     war    DCD    1918990112
        0x00002dc4:    676e696e    ning    DCD    1735289198
        0x00002dc8:    7973203a    : sy    DCD    2037588026
        0x00002dcc:    7268636e    nchr    DCD    1919443822
        0x00002dd0:    73696e6f    onis    DCD    1936289391
        0x00002dd4:    6f697461    atio    DCD    1869182049
        0x00002dd8:    6166206e    n fa    DCD    1634082926
        0x00002ddc:    64656c69    iled    DCD    1684368489
        0x00002de0:    64722820     (rd    DCD    1685202976
        0x00002de4:    296f6779    ygo)    DCD    695166841
        0x00002de8:    00000a2e    ....    DCD    2606
        0x00002dec:    0000c350    P...    DCD    50000
        0x00002df0:    615b0909    ..[a    DCD    1633356041
        0x00002df4:    775f6970    pi_w    DCD    2002741616
        0x00002df8:    5d6e7261    arn]    DCD    1567519329
        0x00002dfc:    72617720     war    DCD    1918990112
        0x00002e00:    676e696e    ning    DCD    1735289198
        0x00002e04:    7973203a    : sy    DCD    2037588026
        0x00002e08:    7268636e    nchr    DCD    1919443822
        0x00002e0c:    73696e6f    onis    DCD    1936289391
        0x00002e10:    6f697461    atio    DCD    1869182049
        0x00002e14:    6166206e    n fa    DCD    1634082926
        0x00002e18:    64656c69    iled    DCD    1684368489
        0x00002e1c:    6f6c2820     (lo    DCD    1869359136
        0x00002e20:    2e296b63    ck).    DCD    774466403
        0x00002e24:    0000000a    ....    DCD    10
        0x00002e28:    615b0909    ..[a    DCD    1633356041
        0x00002e2c:    775f6970    pi_w    DCD    2002741616
        0x00002e30:    5d6e7261    arn]    DCD    1567519329
        0x00002e34:    72617720     war    DCD    1918990112
        0x00002e38:    676e696e    ning    DCD    1735289198
        0x00002e3c:    7973203a    : sy    DCD    2037588026
        0x00002e40:    7268636e    nchr    DCD    1919443822
        0x00002e44:    73696e6f    onis    DCD    1936289391
        0x00002e48:    6f697461    atio    DCD    1869182049
        0x00002e4c:    6974206e    n ti    DCD    1769218158
        0x00002e50:    756f656d    meou    DCD    1970234733
        0x00002e54:    67282074    t (g    DCD    1730682996
        0x00002e58:    0a2e296f    o)..    DCD    170797423
        0x00002e5c:    00000000    ....    DCD    0
    $a
    i.cc_rx_ready_fiqsr
    cc_rx_ready_fiqsr
        0x00002e60:    e92d500f    .P-.    PUSH     {r0-r3,r12,lr}
        0x00002e64:    e3a00202    ....    MOV      r0,#0x20000000
        0x00002e68:    e5901010    ....    LDR      r1,[r0,#0x10]
        0x00002e6c:    e5900014    ....    LDR      r0,[r0,#0x14]
        0x00002e70:    e59f200c    . ..    LDR      r2,[pc,#12] ; [0x2e84] = 0x4009d4
        0x00002e74:    e5922000    . ..    LDR      r2,[r2,#0]
        0x00002e78:    e12fff32    2./.    BLX      r2
        0x00002e7c:    e8bd500f    .P..    POP      {r0-r3,r12,lr}
        0x00002e80:    e25ef004    ..^.    SUBS     pc,lr,#4
    $d
        0x00002e84:    004009d4    ..@.    DCD    4196820
    $a
    i.cc_rx_ready_isr
    cc_rx_ready_isr
        0x00002e88:    e92d500f    .P-.    PUSH     {r0-r3,r12,lr}
        0x00002e8c:    e3a00202    ....    MOV      r0,#0x20000000
        0x00002e90:    e5902010    . ..    LDR      r2,[r0,#0x10]
        0x00002e94:    e5901014    ....    LDR      r1,[r0,#0x14]
        0x00002e98:    e59f0020     ...    LDR      r0,[pc,#32] ; [0x2ec0] = 0x4009d4
        0x00002e9c:    e5900000    ....    LDR      r0,[r0,#0]
        0x00002ea0:    e3500000    ..P.    CMP      r0,#0
        0x00002ea4:    13a00000    ....    MOVNE    r0,#0
        0x00002ea8:    1bfffe97    ....    BLNE     schedule ; 0x290c
        0x00002eac:    e3a00001    ....    MOV      r0,#1
        0x00002eb0:    e3a0142f    /...    MOV      r1,#0x2f000000
        0x00002eb4:    e5810030    0...    STR      r0,[r1,#0x30]
        0x00002eb8:    e8bd500f    .P..    POP      {r0-r3,r12,lr}
        0x00002ebc:    e25ef004    ..^.    SUBS     pc,lr,#4
    $d
        0x00002ec0:    004009d4    ..@.    DCD    4196820
    $a
    i.cc_tx_empty_isr
    cc_tx_empty_isr
        0x00002ec4:    e92d503f    ?P-.    PUSH     {r0-r5,r12,lr}
        0x00002ec8:    e3a00000    ....    MOV      r0,#0
        0x00002ecc:    e3a05202    .R..    MOV      r5,#0x20000000
        0x00002ed0:    e5850000    ....    STR      r0,[r5,#0]
        0x00002ed4:    e59f4060    `@..    LDR      r4,[pc,#96] ; [0x2f3c] = 0x4005ec
        0x00002ed8:    ea000007    ....    B        0x2efc ; cc_tx_empty_isr + 56
        0x00002edc:    e0830083    ....    ADD      r0,r3,r3,LSL #1
        0x00002ee0:    e0842100    .!..    ADD      r2,r4,r0,LSL #2
        0x00002ee4:    e2822008    . ..    ADD      r2,r2,#8
        0x00002ee8:    e8920007    ....    LDM      r2,{r0-r2}
        0x00002eec:    e2833001    .0..    ADD      r3,r3,#1
        0x00002ef0:    e203300f    .0..    AND      r3,r3,#0xf
        0x00002ef4:    e5843000    .0..    STR      r3,[r4,#0]
        0x00002ef8:    fa000480    ....    BLX      send_mc_packet_fulfil ; 0x4100
        0x00002efc:    e5940004    ....    LDR      r0,[r4,#4]
        0x00002f00:    e5943000    .0..    LDR      r3,[r4,#0]
        0x00002f04:    e1530000    ..S.    CMP      r3,r0
        0x00002f08:    0a000002    ....    BEQ      0x2f18 ; cc_tx_empty_isr + 84
        0x00002f0c:    e5950000    ....    LDR      r0,[r5,#0]
        0x00002f10:    e3100101    ....    TST      r0,#0x40000000
        0x00002f14:    0afffff0    ....    BEQ      0x2edc ; cc_tx_empty_isr + 24
        0x00002f18:    e5942004    . ..    LDR      r2,[r4,#4]
        0x00002f1c:    e3a0042f    /...    MOV      r0,#0x2f000000
        0x00002f20:    e1530002    ..S.    CMP      r3,r2
        0x00002f24:    03a01b02    ....    MOVEQ    r1,#0x800
        0x00002f28:    05801014    ....    STREQ    r1,[r0,#0x14]
        0x00002f2c:    e3a01001    ....    MOV      r1,#1
        0x00002f30:    e5801030    0...    STR      r1,[r0,#0x30]
        0x00002f34:    e8bd503f    ?P..    POP      {r0-r5,r12,lr}
        0x00002f38:    e25ef004    ..^.    SUBS     pc,lr,#4
    $d
        0x00002f3c:    004005ec    ..@.    DCD    4195820
    $t
    i.clean_up
    clean_up
        0x00002f40:    b510        ..      PUSH     {r4,lr}
        0x00002f42:    f7ffec92    ....    BLX      cpu_int_disable ; 0x2868
        0x00002f46:    222f        /"      MOVS     r2,#0x2f
        0x00002f48:    0612        ..      LSLS     r2,r2,#24
        0x00002f4a:    68d1        .h      LDR      r1,[r2,#0xc]
        0x00002f4c:    4b0e        .K      LDR      r3,[pc,#56] ; [0x2f88] = 0xffffcfad
        0x00002f4e:    4019        .@      ANDS     r1,r1,r3
        0x00002f50:    60d1        .`      STR      r1,[r2,#0xc]
        0x00002f52:    490e        .I      LDR      r1,[pc,#56] ; [0x2f8c] = 0x400100
        0x00002f54:    2200        ."      MOVS     r2,#0
        0x00002f56:    6c09        .l      LDR      r1,[r1,#0x40]
        0x00002f58:    4b0e        .K      LDR      r3,[pc,#56] ; [0x2f94] = 0x2f000100
        0x00002f5a:    63d1        .c      STR      r1,[r2,#0x3c]
        0x00002f5c:    490c        .I      LDR      r1,[pc,#48] ; [0x2f90] = 0x2e88
        0x00002f5e:    60d9        .`      STR      r1,[r3,#0xc]
        0x00002f60:    4b0d        .K      LDR      r3,[pc,#52] ; [0x2f98] = 0x4009d4
        0x00002f62:    0011        ..      MOVS     r1,r2
        0x00002f64:    00cc        ..      LSLS     r4,r1,#3
        0x00002f66:    1c49        I.      ADDS     r1,r1,#1
        0x00002f68:    2905        .)      CMP      r1,#5
        0x00002f6a:    511a        .Q      STR      r2,[r3,r4]
        0x00002f6c:    d3fa        ..      BCC      0x2f64 ; clean_up + 36
        0x00002f6e:    2101        .!      MOVS     r1,#1
        0x00002f70:    2321        !#      MOVS     r3,#0x21
        0x00002f72:    061b        ..      LSLS     r3,r3,#24
        0x00002f74:    60d9        .`      STR      r1,[r3,#0xc]
        0x00002f76:    0789        ..      LSLS     r1,r1,#30
        0x00002f78:    618a        .a      STR      r2,[r1,#0x18]
        0x00002f7a:    223f        ?"      MOVS     r2,#0x3f
        0x00002f7c:    610a        .a      STR      r2,[r1,#0x10]
        0x00002f7e:    220d        ."      MOVS     r2,#0xd
        0x00002f80:    610a        .a      STR      r2,[r1,#0x10]
        0x00002f82:    f7ffec7a    ..z.    BLX      cpu_int_restore ; 0x2878
        0x00002f86:    bd10        ..      POP      {r4,pc}
    $d
        0x00002f88:    ffffcfad    ....    DCD    4294954925
        0x00002f8c:    00400100    ..@.    DCD    4194560
        0x00002f90:    00002e88    ....    DCD    11912
        0x00002f94:    2f000100    .../    DCD    788529408
        0x00002f98:    004009d4    ..@.    DCD    4196820
    $t
    i.configure_vic
    configure_vic
        0x00002f9c:    b530        0.      PUSH     {r4,r5,lr}
        0x00002f9e:    2000        .       MOVS     r0,#0
        0x00002fa0:    232f        /#      MOVS     r3,#0x2f
        0x00002fa2:    4c1b        .L      LDR      r4,[pc,#108] ; [0x3010] = 0x3012
        0x00002fa4:    061b        ..      LSLS     r3,r3,#24
        0x00002fa6:    615c        \a      STR      r4,[r3,#0x14]
        0x00002fa8:    491a        .I      LDR      r1,[pc,#104] ; [0x3014] = 0x400100
        0x00002faa:    0002        ..      MOVS     r2,r0
        0x00002fac:    6b09        .k      LDR      r1,[r1,#0x30]
        0x00002fae:    2900        .)      CMP      r1,#0
        0x00002fb0:    d021        !.      BEQ      0x2ff6 ; configure_vic + 90
        0x00002fb2:    2901        .)      CMP      r1,#1
        0x00002fb4:    d022        ".      BEQ      0x2ffc ; configure_vic + 96
        0x00002fb6:    2902        .)      CMP      r1,#2
        0x00002fb8:    d025        %.      BEQ      0x3006 ; configure_vic + 106
        0x00002fba:    2904        .)      CMP      r1,#4
        0x00002fbc:    d102        ..      BNE      0x2fc4 ; configure_vic + 40
        0x00002fbe:    4816        .H      LDR      r0,[pc,#88] ; [0x3018] = 0x4110
        0x00002fc0:    63d0        .c      STR      r0,[r2,#0x3c]
        0x00002fc2:    2002        .       MOVS     r0,#2
        0x00002fc4:    4916        .I      LDR      r1,[pc,#88] ; [0x3020] = 0x2f000100
        0x00002fc6:    4a15        .J      LDR      r2,[pc,#84] ; [0x301c] = 0x3140
        0x00002fc8:    608a        .`      STR      r2,[r1,#8]
        0x00002fca:    4a16        .J      LDR      r2,[pc,#88] ; [0x3024] = 0x2f000200
        0x00002fcc:    252c        ,%      MOVS     r5,#0x2c
        0x00002fce:    6095        .`      STR      r5,[r2,#8]
        0x00002fd0:    4d15        .M      LDR      r5,[pc,#84] ; [0x3028] = 0x45f0
        0x00002fd2:    604d        M`      STR      r5,[r1,#4]
        0x00002fd4:    2524        $%      MOVS     r5,#0x24
        0x00002fd6:    6055        U`      STR      r5,[r2,#4]
        0x00002fd8:    4d14        .M      LDR      r5,[pc,#80] ; [0x302c] = 0x2ec4
        0x00002fda:    610d        .a      STR      r5,[r1,#0x10]
        0x00002fdc:    252b        +%      MOVS     r5,#0x2b
        0x00002fde:    6115        .a      STR      r5,[r2,#0x10]
        0x00002fe0:    4d13        .M      LDR      r5,[pc,#76] ; [0x3030] = 0x4160
        0x00002fe2:    614d        Ma      STR      r5,[r1,#0x14]
        0x00002fe4:    2121        !!      MOVS     r1,#0x21
        0x00002fe6:    6151        Qa      STR      r1,[r2,#0x14]
        0x00002fe8:    68d9        .h      LDR      r1,[r3,#0xc]
        0x00002fea:    43a1        .C      BICS     r1,r1,r4
        0x00002fec:    4301        .C      ORRS     r1,r1,r0
        0x00002fee:    60d9        .`      STR      r1,[r3,#0xc]
        0x00002ff0:    4810        .H      LDR      r0,[pc,#64] ; [0x3034] = 0x1012
        0x00002ff2:    6118        .a      STR      r0,[r3,#0x10]
        0x00002ff4:    bd30        0.      POP      {r4,r5,pc}
        0x00002ff6:    4910        .I      LDR      r1,[pc,#64] ; [0x3038] = 0x2e60
        0x00002ff8:    63d1        .c      STR      r1,[r2,#0x3c]
        0x00002ffa:    e7e3        ..      B        0x2fc4 ; configure_vic + 40
        0x00002ffc:    480f        .H      LDR      r0,[pc,#60] ; [0x303c] = 0x30c4
        0x00002ffe:    63d0        .c      STR      r0,[r2,#0x3c]
        0x00003000:    2001        .       MOVS     r0,#1
        0x00003002:    0300        ..      LSLS     r0,r0,#12
        0x00003004:    e7de        ..      B        0x2fc4 ; configure_vic + 40
        0x00003006:    480e        .H      LDR      r0,[pc,#56] ; [0x3040] = 0x45ac
        0x00003008:    63d0        .c      STR      r0,[r2,#0x3c]
        0x0000300a:    2010        .       MOVS     r0,#0x10
        0x0000300c:    e7da        ..      B        0x2fc4 ; configure_vic + 40
    $d
        0x0000300e:    0000        ..      DCW    0
        0x00003010:    00003012    .0..    DCD    12306
        0x00003014:    00400100    ..@.    DCD    4194560
        0x00003018:    00004110    .A..    DCD    16656
        0x0000301c:    00003140    @1..    DCD    12608
        0x00003020:    2f000100    .../    DCD    788529408
        0x00003024:    2f000200    .../    DCD    788529664
        0x00003028:    000045f0    .E..    DCD    17904
        0x0000302c:    00002ec4    ....    DCD    11972
        0x00003030:    00004160    `A..    DCD    16736
        0x00003034:    00001012    ....    DCD    4114
        0x00003038:    00002e60    `...    DCD    11872
        0x0000303c:    000030c4    .0..    DCD    12484
        0x00003040:    000045ac    .E..    DCD    17836
    $t
    i.dispatch
    dispatch
        0x00003044:    b5f8        ..      PUSH     {r3-r7,lr}
        0x00003046:    e033        3.      B        0x30b0 ; dispatch + 108
        0x00003048:    2400        .$      MOVS     r4,#0
        0x0000304a:    f7ffec0e    ....    BLX      cpu_int_disable ; 0x2868
        0x0000304e:    0005        ..      MOVS     r5,r0
        0x00003050:    e01f        ..      B        0x3092 ; dispatch + 78
        0x00003052:    20c8        .       MOVS     r0,#0xc8
        0x00003054:    4360        `C      MULS     r0,r4,r0
        0x00003056:    4919        .I      LDR      r1,[pc,#100] ; [0x30bc] = 0x4006b4
        0x00003058:    1c64        d.      ADDS     r4,r4,#1
        0x0000305a:    1840        @.      ADDS     r0,r0,r1
        0x0000305c:    6802        .h      LDR      r2,[r0,#0]
        0x0000305e:    6841        Ah      LDR      r1,[r0,#4]
        0x00003060:    428a        .B      CMP      r2,r1
        0x00003062:    d016        ..      BEQ      0x3092 ; dispatch + 78
        0x00003064:    210c        .!      MOVS     r1,#0xc
        0x00003066:    4351        QC      MULS     r1,r2,r1
        0x00003068:    1c52        R.      ADDS     r2,r2,#1
        0x0000306a:    1809        ..      ADDS     r1,r1,r0
        0x0000306c:    68cf        .h      LDR      r7,[r1,#0xc]
        0x0000306e:    688e        .h      LDR      r6,[r1,#8]
        0x00003070:    6909        .i      LDR      r1,[r1,#0x10]
        0x00003072:    9100        ..      STR      r1,[sp,#0]
        0x00003074:    0711        ..      LSLS     r1,r2,#28
        0x00003076:    0f09        ..      LSRS     r1,r1,#28
        0x00003078:    2e00        ..      CMP      r6,#0
        0x0000307a:    6001        .`      STR      r1,[r0,#0]
        0x0000307c:    d009        ..      BEQ      0x3092 ; dispatch + 78
        0x0000307e:    0028        (.      MOVS     r0,r5
        0x00003080:    f7ffebfa    ....    BLX      cpu_int_restore ; 0x2878
        0x00003084:    9900        ..      LDR      r1,[sp,#0]
        0x00003086:    0038        8.      MOVS     r0,r7
        0x00003088:    47b0        .G      BLX      r6
        0x0000308a:    f7ffebee    ....    BLX      cpu_int_disable ; 0x2868
        0x0000308e:    0005        ..      MOVS     r5,r0
        0x00003090:    2400        .$      MOVS     r4,#0
        0x00003092:    480b        .H      LDR      r0,[pc,#44] ; [0x30c0] = 0x400100
        0x00003094:    68c0        .h      LDR      r0,[r0,#0xc]
        0x00003096:    2800        .(      CMP      r0,#0
        0x00003098:    d001        ..      BEQ      0x309e ; dispatch + 90
        0x0000309a:    2c04        .,      CMP      r4,#4
        0x0000309c:    d3d9        ..      BCC      0x3052 ; dispatch + 14
        0x0000309e:    4808        .H      LDR      r0,[pc,#32] ; [0x30c0] = 0x400100
        0x000030a0:    68c0        .h      LDR      r0,[r0,#0xc]
        0x000030a2:    2800        .(      CMP      r0,#0
        0x000030a4:    d004        ..      BEQ      0x30b0 ; dispatch + 108
        0x000030a6:    f7ffec52    ..R.    BLX      cpu_wfi ; 0x294c
        0x000030aa:    0028        (.      MOVS     r0,r5
        0x000030ac:    f7ffebe4    ....    BLX      cpu_int_restore ; 0x2878
        0x000030b0:    4e03        .N      LDR      r6,[pc,#12] ; [0x30c0] = 0x400100
        0x000030b2:    68f0        .h      LDR      r0,[r6,#0xc]
        0x000030b4:    2800        .(      CMP      r0,#0
        0x000030b6:    d1c7        ..      BNE      0x3048 ; dispatch + 4
        0x000030b8:    bdf8        ..      POP      {r3-r7,pc}
    $d
        0x000030ba:    0000        ..      DCW    0
        0x000030bc:    004006b4    ..@.    DCD    4196020
        0x000030c0:    00400100    ..@.    DCD    4194560
    $a
    i.dma_done_fiqsr
    dma_done_fiqsr
        0x000030c4:    e92d500f    .P-.    PUSH     {r0-r3,r12,lr}
        0x000030c8:    e3a00008    ....    MOV      r0,#8
        0x000030cc:    e3a0c101    ....    MOV      r12,#0x40000000
        0x000030d0:    e58c0010    ....    STR      r0,[r12,#0x10]
        0x000030d4:    e59f305c    \0..    LDR      r3,[pc,#92] ; [0x3138] = 0x4004a4
        0x000030d8:    e5932000    . ..    LDR      r2,[r3,#0]
        0x000030dc:    e0820102    ....    ADD      r0,r2,r2,LSL #2
        0x000030e0:    e0831100    ....    ADD      r1,r3,r0,LSL #2
        0x000030e4:    e5910008    ....    LDR      r0,[r1,#8]
        0x000030e8:    e2822001    . ..    ADD      r2,r2,#1
        0x000030ec:    e591100c    ....    LDR      r1,[r1,#0xc]
        0x000030f0:    e202200f    . ..    AND      r2,r2,#0xf
        0x000030f4:    e5832000    . ..    STR      r2,[r3,#0]
        0x000030f8:    e593e004    ....    LDR      lr,[r3,#4]
        0x000030fc:    e152000e    ..R.    CMP      r2,lr
        0x00003100:    0a000007    ....    BEQ      0x3124 ; dma_done_fiqsr + 96
        0x00003104:    e0822102    .!..    ADD      r2,r2,r2,LSL #2
        0x00003108:    e0832102    .!..    ADD      r2,r3,r2,LSL #2
        0x0000310c:    e5923014    .0..    LDR      r3,[r2,#0x14]
        0x00003110:    e592e010    ....    LDR      lr,[r2,#0x10]
        0x00003114:    e5922018    . ..    LDR      r2,[r2,#0x18]
        0x00003118:    e58ce004    ....    STR      lr,[r12,#4]
        0x0000311c:    e58c3008    .0..    STR      r3,[r12,#8]
        0x00003120:    e58c200c    . ..    STR      r2,[r12,#0xc]
        0x00003124:    e59f2010    . ..    LDR      r2,[pc,#16] ; [0x313c] = 0x4009d4
        0x00003128:    e5922008    . ..    LDR      r2,[r2,#8]
        0x0000312c:    e12fff32    2./.    BLX      r2
        0x00003130:    e8bd500f    .P..    POP      {r0-r3,r12,lr}
        0x00003134:    e25ef004    ..^.    SUBS     pc,lr,#4
    $d
        0x00003138:    004004a4    ..@.    DCD    4195492
        0x0000313c:    004009d4    ..@.    DCD    4196820
    $a
    i.dma_done_isr
    dma_done_isr
        0x00003140:    e92d500f    .P-.    PUSH     {r0-r3,r12,lr}
        0x00003144:    e3a00008    ....    MOV      r0,#8
        0x00003148:    e3a0c101    ....    MOV      r12,#0x40000000
        0x0000314c:    e58c0010    ....    STR      r0,[r12,#0x10]
        0x00003150:    e59f3070    p0..    LDR      r3,[pc,#112] ; [0x31c8] = 0x4004a4
        0x00003154:    e5930000    ....    LDR      r0,[r3,#0]
        0x00003158:    e0801100    ....    ADD      r1,r0,r0,LSL #2
        0x0000315c:    e0832101    .!..    ADD      r2,r3,r1,LSL #2
        0x00003160:    e5921008    ....    LDR      r1,[r2,#8]
        0x00003164:    e2800001    ....    ADD      r0,r0,#1
        0x00003168:    e592200c    . ..    LDR      r2,[r2,#0xc]
        0x0000316c:    e200000f    ....    AND      r0,r0,#0xf
        0x00003170:    e5830000    ....    STR      r0,[r3,#0]
        0x00003174:    e593e004    ....    LDR      lr,[r3,#4]
        0x00003178:    e150000e    ..P.    CMP      r0,lr
        0x0000317c:    0a000007    ....    BEQ      0x31a0 ; dma_done_isr + 96
        0x00003180:    e0800100    ....    ADD      r0,r0,r0,LSL #2
        0x00003184:    e0830100    ....    ADD      r0,r3,r0,LSL #2
        0x00003188:    e5903010    .0..    LDR      r3,[r0,#0x10]
        0x0000318c:    e590e014    ....    LDR      lr,[r0,#0x14]
        0x00003190:    e5900018    ....    LDR      r0,[r0,#0x18]
        0x00003194:    e58c3004    .0..    STR      r3,[r12,#4]
        0x00003198:    e58ce008    ....    STR      lr,[r12,#8]
        0x0000319c:    e58c000c    ....    STR      r0,[r12,#0xc]
        0x000031a0:    e59f0024    $...    LDR      r0,[pc,#36] ; [0x31cc] = 0x4009d4
        0x000031a4:    e5900008    ....    LDR      r0,[r0,#8]
        0x000031a8:    e3500000    ..P.    CMP      r0,#0
        0x000031ac:    13a00001    ....    MOVNE    r0,#1
        0x000031b0:    1bfffdd5    ....    BLNE     schedule ; 0x290c
        0x000031b4:    e3a00001    ....    MOV      r0,#1
        0x000031b8:    e3a0142f    /...    MOV      r1,#0x2f000000
        0x000031bc:    e5810030    0...    STR      r0,[r1,#0x30]
        0x000031c0:    e8bd500f    .P..    POP      {r0-r3,r12,lr}
        0x000031c4:    e25ef004    ..^.    SUBS     pc,lr,#4
    $d
        0x000031c8:    004004a4    ..@.    DCD    4195492
        0x000031cc:    004009d4    ..@.    DCD    4196820
    $t
    i.event_alloc
    event_alloc
        0x000031d0:    b570        p.      PUSH     {r4-r6,lr}
        0x000031d2:    0006        ..      MOVS     r6,r0
        0x000031d4:    2118        .!      MOVS     r1,#0x18
        0x000031d6:    f000fb87    ....    BL       sark_alloc ; 0x38e8
        0x000031da:    4d0c        .M      LDR      r5,[pc,#48] ; [0x320c] = 0x400408
        0x000031dc:    0004        ..      MOVS     r4,r0
        0x000031de:    d00e        ..      BEQ      0x31fe ; event_alloc + 46
        0x000031e0:    2218        ."      MOVS     r2,#0x18
        0x000031e2:    0031        1.      MOVS     r1,r6
        0x000031e4:    0020         .      MOVS     r0,r4
        0x000031e6:    f000fb8b    ....    BL       sark_block_init ; 0x3900
        0x000031ea:    0006        ..      MOVS     r6,r0
        0x000031ec:    f7ffeb3c    ..<.    BLX      cpu_int_disable ; 0x2868
        0x000031f0:    6829        )h      LDR      r1,[r5,#0]
        0x000031f2:    6031        1`      STR      r1,[r6,#0]
        0x000031f4:    602c        ,`      STR      r4,[r5,#0]
        0x000031f6:    f7ffeb40    ..@.    BLX      cpu_int_restore ; 0x2878
        0x000031fa:    2001        .       MOVS     r0,#1
        0x000031fc:    bd70        p.      POP      {r4-r6,pc}
        0x000031fe:    6968        hi      LDR      r0,[r5,#0x14]
        0x00003200:    2108        .!      MOVS     r1,#8
        0x00003202:    4308        .C      ORRS     r0,r0,r1
        0x00003204:    6168        ha      STR      r0,[r5,#0x14]
        0x00003206:    2000        .       MOVS     r0,#0
        0x00003208:    bd70        p.      POP      {r4-r6,pc}
    $d
        0x0000320a:    0000        ..      DCW    0
        0x0000320c:    00400408    ..@.    DCD    4195336
    $t
    i.event_pause
    event_pause
        0x00003210:    4909        .I      LDR      r1,[pc,#36] ; [0x3238] = 0x4003d0
        0x00003212:    4b0a        .K      LDR      r3,[pc,#40] ; [0x323c] = 0x400408
        0x00003214:    69c9        .i      LDR      r1,[r1,#0x1c]
        0x00003216:    3120         1      ADDS     r1,r1,#0x20
        0x00003218:    2800        .(      CMP      r0,#0
        0x0000321a:    d003        ..      BEQ      0x3224 ; event_pause + 20
        0x0000321c:    2201        ."      MOVS     r2,#1
        0x0000321e:    761a        .v      STRB     r2,[r3,#0x18]
        0x00003220:    2209        ."      MOVS     r2,#9
        0x00003222:    e002        ..      B        0x322a ; event_pause + 26
        0x00003224:    2200        ."      MOVS     r2,#0
        0x00003226:    761a        .v      STRB     r2,[r3,#0x18]
        0x00003228:    2205        ."      MOVS     r2,#5
        0x0000322a:    738a        .s      STRB     r2,[r1,#0xe]
        0x0000322c:    6b1a        .k      LDR      r2,[r3,#0x30]
        0x0000322e:    2a00        .*      CMP      r2,#0
        0x00003230:    d001        ..      BEQ      0x3236 ; event_pause + 38
        0x00003232:    6b59        Yk      LDR      r1,[r3,#0x34]
        0x00003234:    4710        .G      BX       r2
        0x00003236:    4770        pG      BX       lr
    $d
        0x00003238:    004003d0    ..@.    DCD    4195280
        0x0000323c:    00400408    ..@.    DCD    4195336
    $t
    i.event_stop
    event_stop
        0x00003240:    4904        .I      LDR      r1,[pc,#16] ; [0x3254] = 0x400408
        0x00003242:    2202        ."      MOVS     r2,#2
        0x00003244:    760a        .v      STRB     r2,[r1,#0x18]
        0x00003246:    232f        /#      MOVS     r3,#0x2f
        0x00003248:    6cca        .l      LDR      r2,[r1,#0x4c]
        0x0000324a:    061b        ..      LSLS     r3,r3,#24
        0x0000324c:    615a        Za      STR      r2,[r3,#0x14]
        0x0000324e:    6388        .c      STR      r0,[r1,#0x38]
        0x00003250:    4770        pG      BX       lr
    $d
        0x00003252:    0000        ..      DCW    0
        0x00003254:    00400408    ..@.    DCD    4195336
    $t
    i.get4
    get4
        0x00003258:    08ca        ..      LSRS     r2,r1,#3
        0x0000325a:    0092        ..      LSLS     r2,r2,#2
        0x0000325c:    0749        I.      LSLS     r1,r1,#29
        0x0000325e:    5880        .X      LDR      r0,[r0,r2]
        0x00003260:    0ec9        ..      LSRS     r1,r1,#27
        0x00003262:    40c8        .@      LSRS     r0,r0,r1
        0x00003264:    0700        ..      LSLS     r0,r0,#28
        0x00003266:    0f00        ..      LSRS     r0,r0,#28
        0x00003268:    4770        pG      BX       lr
        0x0000326a:    0000        ..      MOVS     r0,r0
    i.io_buf_init
    io_buf_init
        0x0000326c:    480e        .H      LDR      r0,[pc,#56] ; [0x32a8] = 0xe5007f40
        0x0000326e:    b510        ..      PUSH     {r4,lr}
        0x00003270:    6901        .i      LDR      r1,[r0,#0x10]
        0x00003272:    480d        .H      LDR      r0,[pc,#52] ; [0x32a8] = 0xe5007f40
        0x00003274:    3110        .1      ADDS     r1,r1,#0x10
        0x00003276:    3080        .0      ADDS     r0,r0,#0x80
        0x00003278:    6900        .i      LDR      r0,[r0,#0x10]
        0x0000327a:    2200        ."      MOVS     r2,#0
        0x0000327c:    2301        .#      MOVS     r3,#1
        0x0000327e:    f000fe9f    ....    BL       sark_xalloc ; 0x3fc0
        0x00003282:    0004        ..      MOVS     r4,r0
        0x00003284:    d102        ..      BNE      0x328c ; io_buf_init + 32
        0x00003286:    200e        .       MOVS     r0,#0xe
        0x00003288:    f7fcef4e    ..N.    BLX      rt_error ; 0x128
        0x0000328c:    4806        .H      LDR      r0,[pc,#24] ; [0x32a8] = 0xe5007f40
        0x0000328e:    3840        @8      SUBS     r0,r0,#0x40
        0x00003290:    69c1        .i      LDR      r1,[r0,#0x1c]
        0x00003292:    6061        a`      STR      r1,[r4,#4]
        0x00003294:    8b00        ..      LDRH     r0,[r0,#0x18]
        0x00003296:    60a0        .`      STR      r0,[r4,#8]
        0x00003298:    4904        .I      LDR      r1,[pc,#16] ; [0x32ac] = 0x4000f0
        0x0000329a:    2000        .       MOVS     r0,#0
        0x0000329c:    6020         `      STR      r0,[r4,#0]
        0x0000329e:    6048        H`      STR      r0,[r1,#4]
        0x000032a0:    60e0        .`      STR      r0,[r4,#0xc]
        0x000032a2:    0020         .      MOVS     r0,r4
        0x000032a4:    bd10        ..      POP      {r4,pc}
    $d
        0x000032a6:    0000        ..      DCW    0
        0x000032a8:    e5007f40    @...    DCD    3842015040
        0x000032ac:    004000f0    ..@.    DCD    4194544
    $a
    $Ven$AT$I$$io_printf
        0x000032b0:    e28fc001    ....    ADR      r12,{pc}+9 ; 0x32b9
        0x000032b4:    e12fff1c    ../.    BX       r12
    $t
    i.io_printf
    io_printf
        0x000032b8:    b40f        ..      PUSH     {r0-r3}
        0x000032ba:    b5f0        ..      PUSH     {r4-r7,lr}
        0x000032bc:    b089        ..      SUB      sp,sp,#0x24
        0x000032be:    980e        ..      LDR      r0,[sp,#0x38]
        0x000032c0:    2803        .(      CMP      r0,#3
        0x000032c2:    d073        s.      BEQ      0x33ac ; io_printf + 244
        0x000032c4:    d904        ..      BLS      0x32d0 ; io_printf + 24
        0x000032c6:    990e        ..      LDR      r1,[sp,#0x38]
        0x000032c8:    2000        .       MOVS     r0,#0
        0x000032ca:    7008        .p      STRB     r0,[r1,#0]
        0x000032cc:    4977        wI      LDR      r1,[pc,#476] ; [0x34ac] = 0x4000f0
        0x000032ce:    6008        .`      STR      r0,[r1,#0]
        0x000032d0:    ac10        ..      ADD      r4,sp,#0x40
        0x000032d2:    980f        ..      LDR      r0,[sp,#0x3c]
        0x000032d4:    7801        .x      LDRB     r1,[r0,#0]
        0x000032d6:    1c40        @.      ADDS     r0,r0,#1
        0x000032d8:    2900        .)      CMP      r1,#0
        0x000032da:    900f        ..      STR      r0,[sp,#0x3c]
        0x000032dc:    d066        f.      BEQ      0x33ac ; io_printf + 244
        0x000032de:    2925        %)      CMP      r1,#0x25
        0x000032e0:    d14d        M.      BNE      0x337e ; io_printf + 198
        0x000032e2:    7801        .x      LDRB     r1,[r0,#0]
        0x000032e4:    1c40        @.      ADDS     r0,r0,#1
        0x000032e6:    2900        .)      CMP      r1,#0
        0x000032e8:    900f        ..      STR      r0,[sp,#0x3c]
        0x000032ea:    d05f        _.      BEQ      0x33ac ; io_printf + 244
        0x000032ec:    2720         '      MOVS     r7,#0x20
        0x000032ee:    2930        0)      CMP      r1,#0x30
        0x000032f0:    d100        ..      BNE      0x32f4 ; io_printf + 60
        0x000032f2:    000f        ..      MOVS     r7,r1
        0x000032f4:    2600        .&      MOVS     r6,#0
        0x000032f6:    e009        ..      B        0x330c ; io_printf + 84
        0x000032f8:    200a        .       MOVS     r0,#0xa
        0x000032fa:    4346        FC      MULS     r6,r0,r6
        0x000032fc:    980f        ..      LDR      r0,[sp,#0x3c]
        0x000032fe:    1876        v.      ADDS     r6,r6,r1
        0x00003300:    7801        .x      LDRB     r1,[r0,#0]
        0x00003302:    1c40        @.      ADDS     r0,r0,#1
        0x00003304:    3e30        0>      SUBS     r6,r6,#0x30
        0x00003306:    2900        .)      CMP      r1,#0
        0x00003308:    900f        ..      STR      r0,[sp,#0x3c]
        0x0000330a:    d04f        O.      BEQ      0x33ac ; io_printf + 244
        0x0000330c:    0008        ..      MOVS     r0,r1
        0x0000330e:    3830        08      SUBS     r0,r0,#0x30
        0x00003310:    2809        .(      CMP      r0,#9
        0x00003312:    d9f1        ..      BLS      0x32f8 ; io_printf + 64
        0x00003314:    2506        .%      MOVS     r5,#6
        0x00003316:    292e        .)      CMP      r1,#0x2e
        0x00003318:    d10f        ..      BNE      0x333a ; io_printf + 130
        0x0000331a:    2500        .%      MOVS     r5,#0
        0x0000331c:    e003        ..      B        0x3326 ; io_printf + 110
        0x0000331e:    200a        .       MOVS     r0,#0xa
        0x00003320:    4345        EC      MULS     r5,r0,r5
        0x00003322:    186d        m.      ADDS     r5,r5,r1
        0x00003324:    3d30        0=      SUBS     r5,r5,#0x30
        0x00003326:    980f        ..      LDR      r0,[sp,#0x3c]
        0x00003328:    7801        .x      LDRB     r1,[r0,#0]
        0x0000332a:    1c40        @.      ADDS     r0,r0,#1
        0x0000332c:    900f        ..      STR      r0,[sp,#0x3c]
        0x0000332e:    0008        ..      MOVS     r0,r1
        0x00003330:    3830        08      SUBS     r0,r0,#0x30
        0x00003332:    2809        .(      CMP      r0,#9
        0x00003334:    d9f3        ..      BLS      0x331e ; io_printf + 102
        0x00003336:    2900        .)      CMP      r1,#0
        0x00003338:    d038        8.      BEQ      0x33ac ; io_printf + 244
        0x0000333a:    296b        k)      CMP      r1,#0x6b
        0x0000333c:    d071        q.      BEQ      0x3422 ; io_printf + 362
        0x0000333e:    dc13        ..      BGT      0x3368 ; io_printf + 176
        0x00003340:    2963        c)      CMP      r1,#0x63
        0x00003342:    d01b        ..      BEQ      0x337c ; io_printf + 196
        0x00003344:    dc04        ..      BGT      0x3350 ; io_printf + 152
        0x00003346:    294b        K)      CMP      r1,#0x4b
        0x00003348:    d006        ..      BEQ      0x3358 ; io_printf + 160
        0x0000334a:    2952        R)      CMP      r1,#0x52
        0x0000334c:    d117        ..      BNE      0x337e ; io_printf + 198
        0x0000334e:    e003        ..      B        0x3358 ; io_printf + 160
        0x00003350:    2964        d)      CMP      r1,#0x64
        0x00003352:    d034        4.      BEQ      0x33be ; io_printf + 262
        0x00003354:    2966        f)      CMP      r1,#0x66
        0x00003356:    d112        ..      BNE      0x337e ; io_printf + 198
        0x00003358:    9700        ..      STR      r7,[sp,#0]
        0x0000335a:    cc02        ..      LDM      r4!,{r1}
        0x0000335c:    980e        ..      LDR      r0,[sp,#0x38]
        0x0000335e:    002b        +.      MOVS     r3,r5
        0x00003360:    0032        2.      MOVS     r2,r6
        0x00003362:    f000f9b5    ....    BL       io_put_ufixed ; 0x36d0
        0x00003366:    e7b4        ..      B        0x32d2 ; io_printf + 26
        0x00003368:    000b        ..      MOVS     r3,r1
        0x0000336a:    3b72        r;      SUBS     r3,r3,#0x72
        0x0000336c:    f7ffeb36    ..6.    BLX      __ARM_common_switch8 ; 0x29dc
    $d
        0x00003370:    070b5909    .Y..    DCD    118184201
        0x00003374:    6107072e    ...a    DCD    1627850542
        0x00003378:    00078907    ....    DCD    493831
    $t
        0x0000337c:    cc02        ..      LDM      r4!,{r1}
        0x0000337e:    980e        ..      LDR      r0,[sp,#0x38]
        0x00003380:    f000f898    ....    BL       io_put_char ; 0x34b4
        0x00003384:    e7a5        ..      B        0x32d2 ; io_printf + 26
        0x00003386:    cc20         .      LDM      r4!,{r5}
        0x00003388:    0028        (.      MOVS     r0,r5
        0x0000338a:    2700        .'      MOVS     r7,#0
        0x0000338c:    e000        ..      B        0x3390 ; io_printf + 216
        0x0000338e:    1c7f        ..      ADDS     r7,r7,#1
        0x00003390:    7801        .x      LDRB     r1,[r0,#0]
        0x00003392:    1c40        @.      ADDS     r0,r0,#1
        0x00003394:    2900        .)      CMP      r1,#0
        0x00003396:    d1fa        ..      BNE      0x338e ; io_printf + 214
        0x00003398:    e003        ..      B        0x33a2 ; io_printf + 234
        0x0000339a:    980e        ..      LDR      r0,[sp,#0x38]
        0x0000339c:    2120         !      MOVS     r1,#0x20
        0x0000339e:    f000f889    ....    BL       io_put_char ; 0x34b4
        0x000033a2:    0030        0.      MOVS     r0,r6
        0x000033a4:    1e76        v.      SUBS     r6,r6,#1
        0x000033a6:    42b8        .B      CMP      r0,r7
        0x000033a8:    dcf7        ..      BGT      0x339a ; io_printf + 226
        0x000033aa:    e004        ..      B        0x33b6 ; io_printf + 254
        0x000033ac:    e079        y.      B        0x34a2 ; io_printf + 490
        0x000033ae:    980e        ..      LDR      r0,[sp,#0x38]
        0x000033b0:    1c6d        m.      ADDS     r5,r5,#1
        0x000033b2:    f000f87f    ....    BL       io_put_char ; 0x34b4
        0x000033b6:    7829        )x      LDRB     r1,[r5,#0]
        0x000033b8:    2900        .)      CMP      r1,#0
        0x000033ba:    d1f8        ..      BNE      0x33ae ; io_printf + 246
        0x000033bc:    e789        ..      B        0x32d2 ; io_printf + 26
        0x000033be:    cc02        ..      LDM      r4!,{r1}
        0x000033c0:    980e        ..      LDR      r0,[sp,#0x38]
        0x000033c2:    003b        ;.      MOVS     r3,r7
        0x000033c4:    0032        2.      MOVS     r2,r6
        0x000033c6:    f000f941    ..A.    BL       io_put_int ; 0x364c
        0x000033ca:    e782        ..      B        0x32d2 ; io_printf + 26
        0x000033cc:    cc02        ..      LDM      r4!,{r1}
        0x000033ce:    2500        .%      MOVS     r5,#0
        0x000033d0:    a801        ..      ADD      r0,sp,#4
        0x000033d2:    f7ffea26    ..&.    BLX      sark_div10 ; 0x2820
        0x000033d6:    9902        ..      LDR      r1,[sp,#8]
        0x000033d8:    a803        ..      ADD      r0,sp,#0xc
        0x000033da:    3130        01      ADDS     r1,r1,#0x30
        0x000033dc:    5541        AU      STRB     r1,[r0,r5]
        0x000033de:    9901        ..      LDR      r1,[sp,#4]
        0x000033e0:    1c6d        m.      ADDS     r5,r5,#1
        0x000033e2:    2900        .)      CMP      r1,#0
        0x000033e4:    d1f4        ..      BNE      0x33d0 ; io_printf + 280
        0x000033e6:    2d00        .-      CMP      r5,#0
        0x000033e8:    dd04        ..      BLE      0x33f4 ; io_printf + 316
        0x000033ea:    1e6d        m.      SUBS     r5,r5,#1
        0x000033ec:    a803        ..      ADD      r0,sp,#0xc
        0x000033ee:    5d40        @]      LDRB     r0,[r0,r5]
        0x000033f0:    2830        0(      CMP      r0,#0x30
        0x000033f2:    d0f8        ..      BEQ      0x33e6 ; io_printf + 302
        0x000033f4:    1c68        h.      ADDS     r0,r5,#1
        0x000033f6:    9008        ..      STR      r0,[sp,#0x20]
        0x000033f8:    e003        ..      B        0x3402 ; io_printf + 330
        0x000033fa:    980e        ..      LDR      r0,[sp,#0x38]
        0x000033fc:    0039        9.      MOVS     r1,r7
        0x000033fe:    f000f859    ..Y.    BL       io_put_char ; 0x34b4
        0x00003402:    9908        ..      LDR      r1,[sp,#0x20]
        0x00003404:    0030        0.      MOVS     r0,r6
        0x00003406:    1e76        v.      SUBS     r6,r6,#1
        0x00003408:    4288        .B      CMP      r0,r1
        0x0000340a:    d8f6        ..      BHI      0x33fa ; io_printf + 322
        0x0000340c:    ae03        ..      ADD      r6,sp,#0xc
        0x0000340e:    e004        ..      B        0x341a ; io_printf + 354
        0x00003410:    5d71        q]      LDRB     r1,[r6,r5]
        0x00003412:    980e        ..      LDR      r0,[sp,#0x38]
        0x00003414:    1e6d        m.      SUBS     r5,r5,#1
        0x00003416:    f000f84d    ..M.    BL       io_put_char ; 0x34b4
        0x0000341a:    2d00        .-      CMP      r5,#0
        0x0000341c:    daf8        ..      BGE      0x3410 ; io_printf + 344
        0x0000341e:    e758        X.      B        0x32d2 ; io_printf + 26
        0x00003420:    e7ff        ..      B        0x3422 ; io_printf + 362
        0x00003422:    9700        ..      STR      r7,[sp,#0]
        0x00003424:    cc02        ..      LDM      r4!,{r1}
        0x00003426:    980e        ..      LDR      r0,[sp,#0x38]
        0x00003428:    002b        +.      MOVS     r3,r5
        0x0000342a:    0032        2.      MOVS     r2,r6
        0x0000342c:    f000f940    ..@.    BL       io_put_sfixed ; 0x36b0
        0x00003430:    e74f        O.      B        0x32d2 ; io_printf + 26
        0x00003432:    cc01        ..      LDM      r4!,{r0}
        0x00003434:    4b1e        .K      LDR      r3,[pc,#120] ; [0x34b0] = 0x5090
        0x00003436:    2500        .%      MOVS     r5,#0
        0x00003438:    a903        ..      ADD      r1,sp,#0xc
        0x0000343a:    0702        ..      LSLS     r2,r0,#28
        0x0000343c:    0f12        ..      LSRS     r2,r2,#28
        0x0000343e:    5c9a        .\      LDRB     r2,[r3,r2]
        0x00003440:    554a        JU      STRB     r2,[r1,r5]
        0x00003442:    1c6d        m.      ADDS     r5,r5,#1
        0x00003444:    0900        ..      LSRS     r0,r0,#4
        0x00003446:    d1f8        ..      BNE      0x343a ; io_printf + 386
        0x00003448:    2d00        .-      CMP      r5,#0
        0x0000344a:    dd04        ..      BLE      0x3456 ; io_printf + 414
        0x0000344c:    1e6d        m.      SUBS     r5,r5,#1
        0x0000344e:    a803        ..      ADD      r0,sp,#0xc
        0x00003450:    5d40        @]      LDRB     r0,[r0,r5]
        0x00003452:    2830        0(      CMP      r0,#0x30
        0x00003454:    d0f8        ..      BEQ      0x3448 ; io_printf + 400
        0x00003456:    1c68        h.      ADDS     r0,r5,#1
        0x00003458:    9007        ..      STR      r0,[sp,#0x1c]
        0x0000345a:    e003        ..      B        0x3464 ; io_printf + 428
        0x0000345c:    980e        ..      LDR      r0,[sp,#0x38]
        0x0000345e:    0039        9.      MOVS     r1,r7
        0x00003460:    f000f828    ..(.    BL       io_put_char ; 0x34b4
        0x00003464:    9907        ..      LDR      r1,[sp,#0x1c]
        0x00003466:    0030        0.      MOVS     r0,r6
        0x00003468:    1e76        v.      SUBS     r6,r6,#1
        0x0000346a:    4288        .B      CMP      r0,r1
        0x0000346c:    d8f6        ..      BHI      0x345c ; io_printf + 420
        0x0000346e:    ae03        ..      ADD      r6,sp,#0xc
        0x00003470:    e004        ..      B        0x347c ; io_printf + 452
        0x00003472:    5d71        q]      LDRB     r1,[r6,r5]
        0x00003474:    980e        ..      LDR      r0,[sp,#0x38]
        0x00003476:    1e6d        m.      SUBS     r5,r5,#1
        0x00003478:    f000f81c    ....    BL       io_put_char ; 0x34b4
        0x0000347c:    2d00        .-      CMP      r5,#0
        0x0000347e:    daf8        ..      BGE      0x3472 ; io_printf + 442
        0x00003480:    e727        '.      B        0x32d2 ; io_printf + 26
        0x00003482:    cc20         .      LDM      r4!,{r5}
        0x00003484:    1e76        v.      SUBS     r6,r6,#1
        0x00003486:    d499        ..      BMI      0x33bc ; io_printf + 260
        0x00003488:    4f09        .O      LDR      r7,[pc,#36] ; [0x34b0] = 0x5090
        0x0000348a:    00b1        ..      LSLS     r1,r6,#2
        0x0000348c:    0028        (.      MOVS     r0,r5
        0x0000348e:    40c8        .@      LSRS     r0,r0,r1
        0x00003490:    0700        ..      LSLS     r0,r0,#28
        0x00003492:    0f00        ..      LSRS     r0,r0,#28
        0x00003494:    5c39        9\      LDRB     r1,[r7,r0]
        0x00003496:    980e        ..      LDR      r0,[sp,#0x38]
        0x00003498:    f000f80c    ....    BL       io_put_char ; 0x34b4
        0x0000349c:    1e76        v.      SUBS     r6,r6,#1
        0x0000349e:    d5f4        ..      BPL      0x348a ; io_printf + 466
        0x000034a0:    e717        ..      B        0x32d2 ; io_printf + 26
        0x000034a2:    b009        ..      ADD      sp,sp,#0x24
        0x000034a4:    bcf0        ..      POP      {r4-r7}
        0x000034a6:    bc08        ..      POP      {r3}
        0x000034a8:    b004        ..      ADD      sp,sp,#0x10
        0x000034aa:    4718        .G      BX       r3
    $d
        0x000034ac:    004000f0    ..@.    DCD    4194544
        0x000034b0:    00005090    .P..    DCD    20624
    $t
    i.io_put_char
    io_put_char
        0x000034b4:    b5f8        ..      PUSH     {r3-r7,lr}
        0x000034b6:    000d        ..      MOVS     r5,r1
        0x000034b8:    060e        ..      LSLS     r6,r1,#24
        0x000034ba:    4f33        3O      LDR      r7,[pc,#204] ; [0x3588] = 0x4000f0
        0x000034bc:    0e36        6.      LSRS     r6,r6,#24
        0x000034be:    2803        .(      CMP      r0,#3
        0x000034c0:    d906        ..      BLS      0x34d0 ; io_put_char + 28
        0x000034c2:    6839        9h      LDR      r1,[r7,#0]
        0x000034c4:    5446        FT      STRB     r6,[r0,r1]
        0x000034c6:    1c49        I.      ADDS     r1,r1,#1
        0x000034c8:    2200        ."      MOVS     r2,#0
        0x000034ca:    6039        9`      STR      r1,[r7,#0]
        0x000034cc:    5442        BT      STRB     r2,[r0,r1]
        0x000034ce:    bdf8        ..      POP      {r3-r7,pc}
        0x000034d0:    2800        .(      CMP      r0,#0
        0x000034d2:    d136        6.      BNE      0x3542 ; io_put_char + 142
        0x000034d4:    68b8        .h      LDR      r0,[r7,#8]
        0x000034d6:    2800        .(      CMP      r0,#0
        0x000034d8:    d11c        ..      BNE      0x3514 ; io_put_char + 96
        0x000034da:    21ff        .!      MOVS     r1,#0xff
        0x000034dc:    3125        %1      ADDS     r1,r1,#0x25
        0x000034de:    2001        .       MOVS     r0,#1
        0x000034e0:    f000fa02    ....    BL       sark_alloc ; 0x38e8
        0x000034e4:    0004        ..      MOVS     r4,r0
        0x000034e6:    d102        ..      BNE      0x34ee ; io_put_char + 58
        0x000034e8:    200e        .       MOVS     r0,#0xe
        0x000034ea:    f7fcee1e    ....    BLX      rt_error ; 0x128
        0x000034ee:    2007        .       MOVS     r0,#7
        0x000034f0:    7220         r      STRB     r0,[r4,#8]
        0x000034f2:    2000        .       MOVS     r0,#0
        0x000034f4:    7260        `r      STRB     r0,[r4,#9]
        0x000034f6:    4925        %I      LDR      r1,[pc,#148] ; [0x358c] = 0xe5007f00
        0x000034f8:    20ff        .       MOVS     r0,#0xff
        0x000034fa:    72a0        .r      STRB     r0,[r4,#0xa]
        0x000034fc:    8888        ..      LDRH     r0,[r1,#4]
        0x000034fe:    81a0        ..      STRH     r0,[r4,#0xc]
        0x00003500:    4823        #H      LDR      r0,[pc,#140] ; [0x3590] = 0x4003d0
        0x00003502:    6800        .h      LDR      r0,[r0,#0]
        0x00003504:    72e0        .r      STRB     r0,[r4,#0xb]
        0x00003506:    8808        ..      LDRH     r0,[r1,#0]
        0x00003508:    81e0        ..      STRH     r0,[r4,#0xe]
        0x0000350a:    2040        @       MOVS     r0,#0x40
        0x0000350c:    8220         .      STRH     r0,[r4,#0x10]
        0x0000350e:    200c        .       MOVS     r0,#0xc
        0x00003510:    80a0        ..      STRH     r0,[r4,#4]
        0x00003512:    60bc        .`      STR      r4,[r7,#8]
        0x00003514:    68b8        .h      LDR      r0,[r7,#8]
        0x00003516:    8881        ..      LDRH     r1,[r0,#4]
        0x00003518:    0002        ..      MOVS     r2,r0
        0x0000351a:    1c4b        K.      ADDS     r3,r1,#1
        0x0000351c:    3208        .2      ADDS     r2,r2,#8
        0x0000351e:    8083        ..      STRH     r3,[r0,#4]
        0x00003520:    2d0a        .-      CMP      r5,#0xa
        0x00003522:    5456        VT      STRB     r6,[r2,r1]
        0x00003524:    d006        ..      BEQ      0x3534 ; io_put_char + 128
        0x00003526:    2d00        .-      CMP      r5,#0
        0x00003528:    d004        ..      BEQ      0x3534 ; io_put_char + 128
        0x0000352a:    8882        ..      LDRH     r2,[r0,#4]
        0x0000352c:    0011        ..      MOVS     r1,r2
        0x0000352e:    39ff        .9      SUBS     r1,r1,#0xff
        0x00003530:    390d        .9      SUBS     r1,r1,#0xd
        0x00003532:    d1cc        ..      BNE      0x34ce ; io_put_char + 26
        0x00003534:    210a        .!      MOVS     r1,#0xa
        0x00003536:    f000fbf9    ....    BL       sark_msg_send ; 0x3d2c
        0x0000353a:    68b9        .h      LDR      r1,[r7,#8]
        0x0000353c:    200c        .       MOVS     r0,#0xc
        0x0000353e:    8088        ..      STRH     r0,[r1,#4]
        0x00003540:    bdf8        ..      POP      {r3-r7,pc}
        0x00003542:    2802        .(      CMP      r0,#2
        0x00003544:    d1fc        ..      BNE      0x3540 ; io_put_char + 140
        0x00003546:    68f8        .h      LDR      r0,[r7,#0xc]
        0x00003548:    2800        .(      CMP      r0,#0
        0x0000354a:    d105        ..      BNE      0x3558 ; io_put_char + 164
        0x0000354c:    f7fffe8e    ....    BL       io_buf_init ; 0x326c
        0x00003550:    490f        .I      LDR      r1,[pc,#60] ; [0x3590] = 0x4003d0
        0x00003552:    69c9        .i      LDR      r1,[r1,#0x1c]
        0x00003554:    6588        .e      STR      r0,[r1,#0x58]
        0x00003556:    60f8        .`      STR      r0,[r7,#0xc]
        0x00003558:    0001        ..      MOVS     r1,r0
        0x0000355a:    6878        xh      LDR      r0,[r7,#4]
        0x0000355c:    180a        ..      ADDS     r2,r1,r0
        0x0000355e:    7416        .t      STRB     r6,[r2,#0x10]
        0x00003560:    4a0a        .J      LDR      r2,[pc,#40] ; [0x358c] = 0xe5007f00
        0x00003562:    1c40        @.      ADDS     r0,r0,#1
        0x00003564:    3240        @2      ADDS     r2,r2,#0x40
        0x00003566:    6078        x`      STR      r0,[r7,#4]
        0x00003568:    6912        .i      LDR      r2,[r2,#0x10]
        0x0000356a:    4282        .B      CMP      r2,r0
        0x0000356c:    d106        ..      BNE      0x357c ; io_put_char + 200
        0x0000356e:    60c8        .`      STR      r0,[r1,#0xc]
        0x00003570:    f7fffe7c    ..|.    BL       io_buf_init ; 0x326c
        0x00003574:    68f9        .h      LDR      r1,[r7,#0xc]
        0x00003576:    6008        .`      STR      r0,[r1,#0]
        0x00003578:    60f8        .`      STR      r0,[r7,#0xc]
        0x0000357a:    bdf8        ..      POP      {r3-r7,pc}
        0x0000357c:    2d0a        .-      CMP      r5,#0xa
        0x0000357e:    d001        ..      BEQ      0x3584 ; io_put_char + 208
        0x00003580:    2d00        .-      CMP      r5,#0
        0x00003582:    d1fa        ..      BNE      0x357a ; io_put_char + 198
        0x00003584:    60c8        .`      STR      r0,[r1,#0xc]
        0x00003586:    bdf8        ..      POP      {r3-r7,pc}
    $d
        0x00003588:    004000f0    ..@.    DCD    4194544
        0x0000358c:    e5007f00    ....    DCD    3842014976
        0x00003590:    004003d0    ..@.    DCD    4195280
    $t
    i.io_put_fixed
    io_put_fixed
        0x00003594:    b5ff        ..      PUSH     {r0-r7,lr}
        0x00003596:    b089        ..      SUB      sp,sp,#0x24
        0x00003598:    2400        .$      MOVS     r4,#0
        0x0000359a:    0015        ..      MOVS     r5,r2
        0x0000359c:    468c        .F      MOV      r12,r1
        0x0000359e:    2b0c        .+      CMP      r3,#0xc
        0x000035a0:    4660        `F      MOV      r0,r12
        0x000035a2:    ae02        ..      ADD      r6,sp,#8
        0x000035a4:    d909        ..      BLS      0x35ba ; io_put_fixed + 38
        0x000035a6:    230c        .#      MOVS     r3,#0xc
        0x000035a8:    0400        ..      LSLS     r0,r0,#16
        0x000035aa:    0c00        ..      LSRS     r0,r0,#16
        0x000035ac:    210a        .!      MOVS     r1,#0xa
        0x000035ae:    4348        HC      MULS     r0,r1,r0
        0x000035b0:    1c64        d.      ADDS     r4,r4,#1
        0x000035b2:    0c01        ..      LSRS     r1,r0,#16
        0x000035b4:    3130        01      ADDS     r1,r1,#0x30
        0x000035b6:    1b1a        ..      SUBS     r2,r3,r4
        0x000035b8:    54b1        .T      STRB     r1,[r6,r2]
        0x000035ba:    429c        .B      CMP      r4,r3
        0x000035bc:    d3f4        ..      BCC      0x35a8 ; io_put_fixed + 20
        0x000035be:    0400        ..      LSLS     r0,r0,#16
        0x000035c0:    0c00        ..      LSRS     r0,r0,#16
        0x000035c2:    210a        .!      MOVS     r1,#0xa
        0x000035c4:    4348        HC      MULS     r0,r1,r0
        0x000035c6:    2201        ."      MOVS     r2,#1
        0x000035c8:    0c00        ..      LSRS     r0,r0,#16
        0x000035ca:    2804        .(      CMP      r0,#4
        0x000035cc:    d800        ..      BHI      0x35d0 ; io_put_fixed + 60
        0x000035ce:    2200        ."      MOVS     r2,#0
        0x000035d0:    2000        .       MOVS     r0,#0
        0x000035d2:    2730        0'      MOVS     r7,#0x30
        0x000035d4:    e004        ..      B        0x35e0 ; io_put_fixed + 76
        0x000035d6:    5c31        1\      LDRB     r1,[r6,r0]
        0x000035d8:    2939        9)      CMP      r1,#0x39
        0x000035da:    d30e        ..      BCC      0x35fa ; io_put_fixed + 102
        0x000035dc:    5437        7T      STRB     r7,[r6,r0]
        0x000035de:    1c40        @.      ADDS     r0,r0,#1
        0x000035e0:    2a00        .*      CMP      r2,#0
        0x000035e2:    d001        ..      BEQ      0x35e8 ; io_put_fixed + 84
        0x000035e4:    4298        .B      CMP      r0,r3
        0x000035e6:    d3f6        ..      BCC      0x35d6 ; io_put_fixed + 66
        0x000035e8:    2b00        .+      CMP      r3,#0
        0x000035ea:    d002        ..      BEQ      0x35f2 ; io_put_fixed + 94
        0x000035ec:    202e        .       MOVS     r0,#0x2e
        0x000035ee:    5530        0U      STRB     r0,[r6,r4]
        0x000035f0:    1c64        d.      ADDS     r4,r4,#1
        0x000035f2:    4660        `F      MOV      r0,r12
        0x000035f4:    0c00        ..      LSRS     r0,r0,#16
        0x000035f6:    1881        ..      ADDS     r1,r0,r2
        0x000035f8:    e004        ..      B        0x3604 ; io_put_fixed + 112
        0x000035fa:    5c31        1\      LDRB     r1,[r6,r0]
        0x000035fc:    1c49        I.      ADDS     r1,r1,#1
        0x000035fe:    2200        ."      MOVS     r2,#0
        0x00003600:    5431        1T      STRB     r1,[r6,r0]
        0x00003602:    e7f1        ..      B        0x35e8 ; io_put_fixed + 84
        0x00003604:    4668        hF      MOV      r0,sp
        0x00003606:    f7ffe90c    ....    BLX      sark_div10 ; 0x2820
        0x0000360a:    9801        ..      LDR      r0,[sp,#4]
        0x0000360c:    3030        00      ADDS     r0,r0,#0x30
        0x0000360e:    5530        0U      STRB     r0,[r6,r4]
        0x00003610:    9900        ..      LDR      r1,[sp,#0]
        0x00003612:    1c64        d.      ADDS     r4,r4,#1
        0x00003614:    2900        .)      CMP      r1,#0
        0x00003616:    d1f5        ..      BNE      0x3604 ; io_put_fixed + 112
        0x00003618:    9813        ..      LDR      r0,[sp,#0x4c]
        0x0000361a:    2800        .(      CMP      r0,#0
        0x0000361c:    d002        ..      BEQ      0x3624 ; io_put_fixed + 144
        0x0000361e:    212d        -!      MOVS     r1,#0x2d
        0x00003620:    5531        1U      STRB     r1,[r6,r4]
        0x00003622:    1c64        d.      ADDS     r4,r4,#1
        0x00003624:    1c67        g.      ADDS     r7,r4,#1
        0x00003626:    e003        ..      B        0x3630 ; io_put_fixed + 156
        0x00003628:    9912        ..      LDR      r1,[sp,#0x48]
        0x0000362a:    9809        ..      LDR      r0,[sp,#0x24]
        0x0000362c:    f7ffff42    ..B.    BL       io_put_char ; 0x34b4
        0x00003630:    0028        (.      MOVS     r0,r5
        0x00003632:    1e6d        m.      SUBS     r5,r5,#1
        0x00003634:    42b8        .B      CMP      r0,r7
        0x00003636:    d8f7        ..      BHI      0x3628 ; io_put_fixed + 148
        0x00003638:    e004        ..      B        0x3644 ; io_put_fixed + 176
        0x0000363a:    1e64        d.      SUBS     r4,r4,#1
        0x0000363c:    5d31        1]      LDRB     r1,[r6,r4]
        0x0000363e:    9809        ..      LDR      r0,[sp,#0x24]
        0x00003640:    f7ffff38    ..8.    BL       io_put_char ; 0x34b4
        0x00003644:    2c00        .,      CMP      r4,#0
        0x00003646:    dcf8        ..      BGT      0x363a ; io_put_fixed + 166
        0x00003648:    b00d        ..      ADD      sp,sp,#0x34
        0x0000364a:    bdf0        ..      POP      {r4-r7,pc}
    i.io_put_int
    io_put_int
        0x0000364c:    b5ff        ..      PUSH     {r0-r7,lr}
        0x0000364e:    b087        ..      SUB      sp,sp,#0x1c
        0x00003650:    2400        .$      MOVS     r4,#0
        0x00003652:    0015        ..      MOVS     r5,r2
        0x00003654:    0026        &.      MOVS     r6,r4
        0x00003656:    2900        .)      CMP      r1,#0
        0x00003658:    da01        ..      BGE      0x365e ; io_put_int + 18
        0x0000365a:    4249        IB      RSBS     r1,r1,#0
        0x0000365c:    262d        -&      MOVS     r6,#0x2d
        0x0000365e:    af03        ..      ADD      r7,sp,#0xc
        0x00003660:    a801        ..      ADD      r0,sp,#4
        0x00003662:    f7ffe8de    ....    BLX      sark_div10 ; 0x2820
        0x00003666:    9802        ..      LDR      r0,[sp,#8]
        0x00003668:    3030        00      ADDS     r0,r0,#0x30
        0x0000366a:    5538        8U      STRB     r0,[r7,r4]
        0x0000366c:    9901        ..      LDR      r1,[sp,#4]
        0x0000366e:    1c64        d.      ADDS     r4,r4,#1
        0x00003670:    2900        .)      CMP      r1,#0
        0x00003672:    d1f5        ..      BNE      0x3660 ; io_put_int + 20
        0x00003674:    2c00        .,      CMP      r4,#0
        0x00003676:    dd03        ..      BLE      0x3680 ; io_put_int + 52
        0x00003678:    1e64        d.      SUBS     r4,r4,#1
        0x0000367a:    5d38        8]      LDRB     r0,[r7,r4]
        0x0000367c:    2830        0(      CMP      r0,#0x30
        0x0000367e:    d0f9        ..      BEQ      0x3674 ; io_put_int + 40
        0x00003680:    2e00        ..      CMP      r6,#0
        0x00003682:    d001        ..      BEQ      0x3688 ; io_put_int + 60
        0x00003684:    1c64        d.      ADDS     r4,r4,#1
        0x00003686:    553e        >U      STRB     r6,[r7,r4]
        0x00003688:    1c66        f.      ADDS     r6,r4,#1
        0x0000368a:    e003        ..      B        0x3694 ; io_put_int + 72
        0x0000368c:    9807        ..      LDR      r0,[sp,#0x1c]
        0x0000368e:    2120         !      MOVS     r1,#0x20
        0x00003690:    f7ffff10    ....    BL       io_put_char ; 0x34b4
        0x00003694:    0028        (.      MOVS     r0,r5
        0x00003696:    1e6d        m.      SUBS     r5,r5,#1
        0x00003698:    42b0        .B      CMP      r0,r6
        0x0000369a:    d8f7        ..      BHI      0x368c ; io_put_int + 64
        0x0000369c:    e004        ..      B        0x36a8 ; io_put_int + 92
        0x0000369e:    5d39        9]      LDRB     r1,[r7,r4]
        0x000036a0:    9807        ..      LDR      r0,[sp,#0x1c]
        0x000036a2:    1e64        d.      SUBS     r4,r4,#1
        0x000036a4:    f7ffff06    ....    BL       io_put_char ; 0x34b4
        0x000036a8:    2c00        .,      CMP      r4,#0
        0x000036aa:    daf8        ..      BGE      0x369e ; io_put_int + 82
        0x000036ac:    b00b        ..      ADD      sp,sp,#0x2c
        0x000036ae:    bdf0        ..      POP      {r4-r7,pc}
    i.io_put_sfixed
    io_put_sfixed
        0x000036b0:    b57c        |.      PUSH     {r2-r6,lr}
        0x000036b2:    000c        ..      MOVS     r4,r1
        0x000036b4:    0015        ..      MOVS     r5,r2
        0x000036b6:    9906        ..      LDR      r1,[sp,#0x18]
        0x000036b8:    0fe2        ..      LSRS     r2,r4,#31
        0x000036ba:    9100        ..      STR      r1,[sp,#0]
        0x000036bc:    4261        aB      RSBS     r1,r4,#0
        0x000036be:    2c00        .,      CMP      r4,#0
        0x000036c0:    9201        ..      STR      r2,[sp,#4]
        0x000036c2:    db00        ..      BLT      0x36c6 ; io_put_sfixed + 22
        0x000036c4:    0021        !.      MOVS     r1,r4
        0x000036c6:    0049        I.      LSLS     r1,r1,#1
        0x000036c8:    002a        *.      MOVS     r2,r5
        0x000036ca:    f7ffff63    ..c.    BL       io_put_fixed ; 0x3594
        0x000036ce:    bd7c        |.      POP      {r2-r6,pc}
    i.io_put_ufixed
    io_put_ufixed
        0x000036d0:    b57c        |.      PUSH     {r2-r6,lr}
        0x000036d2:    000c        ..      MOVS     r4,r1
        0x000036d4:    0015        ..      MOVS     r5,r2
        0x000036d6:    9906        ..      LDR      r1,[sp,#0x18]
        0x000036d8:    2200        ."      MOVS     r2,#0
        0x000036da:    9201        ..      STR      r2,[sp,#4]
        0x000036dc:    9100        ..      STR      r1,[sp,#0]
        0x000036de:    002a        *.      MOVS     r2,r5
        0x000036e0:    0021        !.      MOVS     r1,r4
        0x000036e2:    f7ffff57    ..W.    BL       io_put_fixed ; 0x3594
        0x000036e6:    bd7c        |.      POP      {r2-r6,pc}
    i.report_warns
    report_warns
        0x000036e8:    b510        ..      PUSH     {r4,lr}
        0x000036ea:    4c11        .L      LDR      r4,[pc,#68] ; [0x3730] = 0x400100
        0x000036ec:    6d20         m      LDR      r0,[r4,#0x50]
        0x000036ee:    07c0        ..      LSLS     r0,r0,#31
        0x000036f0:    d007        ..      BEQ      0x3702 ; report_warns + 26
        0x000036f2:    6d62        bm      LDR      r2,[r4,#0x54]
        0x000036f4:    2000        .       MOVS     r0,#0
        0x000036f6:    a10f        ..      ADR      r1,{pc}+0x3e ; 0x3734
        0x000036f8:    f7fffdde    ....    BL       io_printf ; 0x32b8
        0x000036fc:    20c8        .       MOVS     r0,#0xc8
        0x000036fe:    f7fff885    ....    BL       sark_delay_us ; 0x280c
        0x00003702:    6d20         m      LDR      r0,[r4,#0x50]
        0x00003704:    0780        ..      LSLS     r0,r0,#30
        0x00003706:    d507        ..      BPL      0x3718 ; report_warns + 48
        0x00003708:    6de2        .m      LDR      r2,[r4,#0x5c]
        0x0000370a:    2000        .       MOVS     r0,#0
        0x0000370c:    a114        ..      ADR      r1,{pc}+0x54 ; 0x3760
        0x0000370e:    f7fffdd3    ....    BL       io_printf ; 0x32b8
        0x00003712:    20c8        .       MOVS     r0,#0xc8
        0x00003714:    f7fff87a    ..z.    BL       sark_delay_us ; 0x280c
        0x00003718:    6d20         m      LDR      r0,[r4,#0x50]
        0x0000371a:    0740        @.      LSLS     r0,r0,#29
        0x0000371c:    d507        ..      BPL      0x372e ; report_warns + 70
        0x0000371e:    6da2        .m      LDR      r2,[r4,#0x58]
        0x00003720:    2000        .       MOVS     r0,#0
        0x00003722:    a11a        ..      ADR      r1,{pc}+0x6a ; 0x378c
        0x00003724:    f7fffdc8    ....    BL       io_printf ; 0x32b8
        0x00003728:    20c8        .       MOVS     r0,#0xc8
        0x0000372a:    f7fff86f    ..o.    BL       sark_delay_us ; 0x280c
        0x0000372e:    bd10        ..      POP      {r4,pc}
    $d
        0x00003730:    00400100    ..@.    DCD    4194560
        0x00003734:    615b0909    ..[a    DCD    1633356041
        0x00003738:    775f6970    pi_w    DCD    2002741616
        0x0000373c:    5d6e7261    arn]    DCD    1567519329
        0x00003740:    72617720     war    DCD    1918990112
        0x00003744:    676e696e    ning    DCD    1735289198
        0x00003748:    6174203a    : ta    DCD    1635000378
        0x0000374c:    71206b73    sk q    DCD    1897950067
        0x00003750:    65756575    ueue    DCD    1702192501
        0x00003754:    6c756620     ful    DCD    1819633184
        0x00003758:    2528206c    l (%    DCD    623386732
        0x0000375c:    000a2975    u)..    DCD    665973
        0x00003760:    615b0909    ..[a    DCD    1633356041
        0x00003764:    775f6970    pi_w    DCD    2002741616
        0x00003768:    5d6e7261    arn]    DCD    1567519329
        0x0000376c:    72617720     war    DCD    1918990112
        0x00003770:    676e696e    ning    DCD    1735289198
        0x00003774:    4d44203a    : DM    DCD    1296310330
        0x00003778:    75712041    A qu    DCD    1970348097
        0x0000377c:    20657565    eue     DCD    543520101
        0x00003780:    6c6c7566    full    DCD    1819047270
        0x00003784:    75252820     (%u    DCD    1965369376
        0x00003788:    00000a29    )...    DCD    2601
        0x0000378c:    615b0909    ..[a    DCD    1633356041
        0x00003790:    775f6970    pi_w    DCD    2002741616
        0x00003794:    5d6e7261    arn]    DCD    1567519329
        0x00003798:    72617720     war    DCD    1918990112
        0x0000379c:    676e696e    ning    DCD    1735289198
        0x000037a0:    6170203a    : pa    DCD    1634738234
        0x000037a4:    74656b63    cket    DCD    1952803683
        0x000037a8:    65757120     que    DCD    1702195488
        0x000037ac:    66206575    ue f    DCD    1713399157
        0x000037b0:    206c6c75    ull     DCD    543976565
        0x000037b4:    29752528    (%u)    DCD    695543080
        0x000037b8:    0000000a    ....    DCD    10
    $t
    i.rte_handler
    rte_handler
        0x000037bc:    4901        .I      LDR      r1,[pc,#4] ; [0x37c4] = 0xe5007f20
        0x000037be:    2008        .       MOVS     r0,#8
        0x000037c0:    72c8        .r      STRB     r0,[r1,#0xb]
        0x000037c2:    4770        pG      BX       lr
    $d
        0x000037c4:    e5007f20     ...    DCD    3842015008
    $t
    i.rtr_alloc
    rtr_alloc
        0x000037c8:    b5f8        ..      PUSH     {r3-r7,lr}
        0x000037ca:    0006        ..      MOVS     r6,r0
        0x000037cc:    d100        ..      BNE      0x37d0 ; rtr_alloc + 8
        0x000037ce:    bdf8        ..      POP      {r3-r7,pc}
        0x000037d0:    0a08        ..      LSRS     r0,r1,#8
        0x000037d2:    0789        ..      LSLS     r1,r1,#30
        0x000037d4:    d401        ..      BMI      0x37da ; rtr_alloc + 18
        0x000037d6:    2040        @       MOVS     r0,#0x40
        0x000037d8:    7e40        @~      LDRB     r0,[r0,#0x19]
        0x000037da:    9000        ..      STR      r0,[sp,#0]
        0x000037dc:    481c        .H      LDR      r0,[pc,#112] ; [0x3850] = 0xe5007fc0
        0x000037de:    6945        Ei      LDR      r5,[r0,#0x14]
        0x000037e0:    2007        .       MOVS     r0,#7
        0x000037e2:    f7ffe85e    ..^.    BLX      sark_lock_get ; 0x28a0
        0x000037e6:    491a        .I      LDR      r1,[pc,#104] ; [0x3850] = 0xe5007fc0
        0x000037e8:    2300        .#      MOVS     r3,#0
        0x000037ea:    3120         1      ADDS     r1,r1,#0x20
        0x000037ec:    880c        ..      LDRH     r4,[r1,#0]
        0x000037ee:    e007        ..      B        0x3800 ; rtr_alloc + 56
        0x000037f0:    0127        '.      LSLS     r7,r4,#4
        0x000037f2:    5bea        .[      LDRH     r2,[r5,r7]
        0x000037f4:    19a1        ..      ADDS     r1,r4,r6
        0x000037f6:    4291        .B      CMP      r1,r2
        0x000037f8:    d909        ..      BLS      0x380e ; rtr_alloc + 70
        0x000037fa:    0023        #.      MOVS     r3,r4
        0x000037fc:    1979        y.      ADDS     r1,r7,r5
        0x000037fe:    884c        L.      LDRH     r4,[r1,#2]
        0x00003800:    2c00        .,      CMP      r4,#0
        0x00003802:    d1f5        ..      BNE      0x37f0 ; rtr_alloc + 40
        0x00003804:    2107        .!      MOVS     r1,#7
        0x00003806:    f7ffe85e    ..^.    BLX      sark_lock_free ; 0x28c4
        0x0000380a:    0020         .      MOVS     r0,r4
        0x0000380c:    bdf8        ..      POP      {r3-r7,pc}
        0x0000380e:    4291        .B      CMP      r1,r2
        0x00003810:    d208        ..      BCS      0x3824 ; rtr_alloc + 92
        0x00003812:    010e        ..      LSLS     r6,r1,#4
        0x00003814:    53aa        .S      STRH     r2,[r5,r6]
        0x00003816:    0122        ".      LSLS     r2,r4,#4
        0x00003818:    52a9        .R      STRH     r1,[r5,r2]
        0x0000381a:    197a        z.      ADDS     r2,r7,r5
        0x0000381c:    8857        W.      LDRH     r7,[r2,#2]
        0x0000381e:    1976        v.      ADDS     r6,r6,r5
        0x00003820:    8077        w.      STRH     r7,[r6,#2]
        0x00003822:    8051        Q.      STRH     r1,[r2,#2]
        0x00003824:    2b00        .+      CMP      r3,#0
        0x00003826:    d006        ..      BEQ      0x3836 ; rtr_alloc + 110
        0x00003828:    0121        !.      LSLS     r1,r4,#4
        0x0000382a:    1949        I.      ADDS     r1,r1,r5
        0x0000382c:    011a        ..      LSLS     r2,r3,#4
        0x0000382e:    8849        I.      LDRH     r1,[r1,#2]
        0x00003830:    1952        R.      ADDS     r2,r2,r5
        0x00003832:    8051        Q.      STRH     r1,[r2,#2]
        0x00003834:    e005        ..      B        0x3842 ; rtr_alloc + 122
        0x00003836:    0121        !.      LSLS     r1,r4,#4
        0x00003838:    1949        I.      ADDS     r1,r1,r5
        0x0000383a:    884a        J.      LDRH     r2,[r1,#2]
        0x0000383c:    4904        .I      LDR      r1,[pc,#16] ; [0x3850] = 0xe5007fc0
        0x0000383e:    3120         1      ADDS     r1,r1,#0x20
        0x00003840:    800a        ..      STRH     r2,[r1,#0]
        0x00003842:    9900        ..      LDR      r1,[sp,#0]
        0x00003844:    0122        ".      LSLS     r2,r4,#4
        0x00003846:    43c9        .C      MVNS     r1,r1
        0x00003848:    1952        R.      ADDS     r2,r2,r5
        0x0000384a:    8051        Q.      STRH     r1,[r2,#2]
        0x0000384c:    e7da        ..      B        0x3804 ; rtr_alloc + 60
    $d
        0x0000384e:    0000        ..      DCW    0
        0x00003850:    e5007fc0    ....    DCD    3842015168
    $t
    i.rtr_mc_set
    rtr_mc_set
        0x00003854:    b5ff        ..      PUSH     {r0-r7,lr}
        0x00003856:    000e        ..      MOVS     r6,r1
        0x00003858:    0007        ..      MOVS     r7,r0
        0x0000385a:    2001        .       MOVS     r0,#1
        0x0000385c:    0280        ..      LSLS     r0,r0,#10
        0x0000385e:    4287        .B      CMP      r7,r0
        0x00003860:    d302        ..      BCC      0x3868 ; rtr_mc_set + 20
        0x00003862:    2000        .       MOVS     r0,#0
        0x00003864:    b004        ..      ADD      sp,sp,#0x10
        0x00003866:    bdf0        ..      POP      {r4-r7,pc}
        0x00003868:    4810        .H      LDR      r0,[pc,#64] ; [0x38ac] = 0xe5007fc0
        0x0000386a:    0139        9.      LSLS     r1,r7,#4
        0x0000386c:    6940        @i      LDR      r0,[r0,#0x14]
        0x0000386e:    021d        ..      LSLS     r5,r3,#8
        0x00003870:    1844        D.      ADDS     r4,r0,r1
        0x00003872:    2040        @       MOVS     r0,#0x40
        0x00003874:    7e40        @~      LDRB     r0,[r0,#0x19]
        0x00003876:    0a2d        -.      LSRS     r5,r5,#8
        0x00003878:    0600        ..      LSLS     r0,r0,#24
        0x0000387a:    1940        @.      ADDS     r0,r0,r5
        0x0000387c:    6060        ``      STR      r0,[r4,#4]
        0x0000387e:    09a8        ..      LSRS     r0,r5,#6
        0x00003880:    f000fee0    ....    BL       v2p_mask ; 0x4644
        0x00003884:    06aa        ..      LSLS     r2,r5,#26
        0x00003886:    0e92        ..      LSRS     r2,r2,#26
        0x00003888:    0181        ..      LSLS     r1,r0,#6
        0x0000388a:    4311        .C      ORRS     r1,r1,r2
        0x0000388c:    4a08        .J      LDR      r2,[pc,#32] ; [0x38b0] = 0xe1004000
        0x0000388e:    00b8        ..      LSLS     r0,r7,#2
        0x00003890:    1882        ..      ADDS     r2,r0,r2
        0x00003892:    6011        .`      STR      r1,[r2,#0]
        0x00003894:    4907        .I      LDR      r1,[pc,#28] ; [0x38b4] = 0xe1008000
        0x00003896:    4a08        .J      LDR      r2,[pc,#32] ; [0x38b8] = 0xe100c000
        0x00003898:    1841        A.      ADDS     r1,r0,r1
        0x0000389a:    600e        .`      STR      r6,[r1,#0]
        0x0000389c:    60a6        .`      STR      r6,[r4,#8]
        0x0000389e:    9902        ..      LDR      r1,[sp,#8]
        0x000038a0:    1880        ..      ADDS     r0,r0,r2
        0x000038a2:    6001        .`      STR      r1,[r0,#0]
        0x000038a4:    2001        .       MOVS     r0,#1
        0x000038a6:    60e1        .`      STR      r1,[r4,#0xc]
        0x000038a8:    e7dc        ..      B        0x3864 ; rtr_mc_set + 16
    $d
        0x000038aa:    0000        ..      DCW    0
        0x000038ac:    e5007fc0    ....    DCD    3842015168
        0x000038b0:    e1004000    .@..    DCD    3774889984
        0x000038b4:    e1008000    ....    DCD    3774906368
        0x000038b8:    e100c000    ....    DCD    3774922752
    $t
    i.rtr_p2p_get
    rtr_p2p_get
        0x000038bc:    2201        ."      MOVS     r2,#1
        0x000038be:    08c1        ..      LSRS     r1,r0,#3
        0x000038c0:    0352        R.      LSLS     r2,r2,#13
        0x000038c2:    4291        .B      CMP      r1,r2
        0x000038c4:    d301        ..      BCC      0x38ca ; rtr_p2p_get + 14
        0x000038c6:    2006        .       MOVS     r0,#6
        0x000038c8:    4770        pG      BX       lr
        0x000038ca:    0740        @.      LSLS     r0,r0,#29
        0x000038cc:    0f40        @.      LSRS     r0,r0,#29
        0x000038ce:    0042        B.      LSLS     r2,r0,#1
        0x000038d0:    1880        ..      ADDS     r0,r0,r2
        0x000038d2:    4a04        .J      LDR      r2,[pc,#16] ; [0x38e4] = 0xe1010000
        0x000038d4:    0089        ..      LSLS     r1,r1,#2
        0x000038d6:    1889        ..      ADDS     r1,r1,r2
        0x000038d8:    6809        .h      LDR      r1,[r1,#0]
        0x000038da:    40c1        .@      LSRS     r1,r1,r0
        0x000038dc:    0748        H.      LSLS     r0,r1,#29
        0x000038de:    0f40        @.      LSRS     r0,r0,#29
        0x000038e0:    4770        pG      BX       lr
    $d
        0x000038e2:    0000        ..      DCW    0
        0x000038e4:    e1010000    ....    DCD    3774939136
    $t
    i.sark_alloc
    sark_alloc
        0x000038e8:    4341        AC      MULS     r1,r0,r1
        0x000038ea:    4804        .H      LDR      r0,[pc,#16] ; [0x38fc] = 0x4003d0
        0x000038ec:    2200        ."      MOVS     r2,#0
        0x000038ee:    b510        ..      PUSH     {r4,lr}
        0x000038f0:    6980        .i      LDR      r0,[r0,#0x18]
        0x000038f2:    0013        ..      MOVS     r3,r2
        0x000038f4:    f000fb64    ..d.    BL       sark_xalloc ; 0x3fc0
        0x000038f8:    bd10        ..      POP      {r4,pc}
    $d
        0x000038fa:    0000        ..      DCW    0
        0x000038fc:    004003d0    ..@.    DCD    4195280
    $t
    i.sark_block_init
    sark_block_init
        0x00003900:    0003        ..      MOVS     r3,r0
        0x00003902:    1e49        I.      SUBS     r1,r1,#1
        0x00003904:    d002        ..      BEQ      0x390c ; sark_block_init + 12
        0x00003906:    1880        ..      ADDS     r0,r0,r2
        0x00003908:    6018        .`      STR      r0,[r3,#0]
        0x0000390a:    e7f9        ..      B        sark_block_init ; 0x3900
        0x0000390c:    2100        .!      MOVS     r1,#0
        0x0000390e:    6019        .`      STR      r1,[r3,#0]
        0x00003910:    4770        pG      BX       lr
    i.sark_cmd_fill
    sark_cmd_fill
        0x00003912:    3014        .0      ADDS     r0,r0,#0x14
        0x00003914:    b510        ..      PUSH     {r4,lr}
        0x00003916:    c807        ..      LDM      r0,{r0-r2}
        0x00003918:    f7ffe84e    ..N.    BLX      sark_word_set ; 0x29b8
        0x0000391c:    2000        .       MOVS     r0,#0
        0x0000391e:    bd10        ..      POP      {r4,pc}
    i.sark_cmd_read
    sark_cmd_read
        0x00003920:    b570        p.      PUSH     {r4-r6,lr}
        0x00003922:    0003        ..      MOVS     r3,r0
        0x00003924:    6980        .i      LDR      r0,[r0,#0x18]
        0x00003926:    22ff        ."      MOVS     r2,#0xff
        0x00003928:    69d9        .i      LDR      r1,[r3,#0x1c]
        0x0000392a:    3201        .2      ADDS     r2,#1
        0x0000392c:    4290        .B      CMP      r0,r2
        0x0000392e:    d801        ..      BHI      0x3934 ; sark_cmd_read + 20
        0x00003930:    2902        .)      CMP      r1,#2
        0x00003932:    d903        ..      BLS      0x393c ; sark_cmd_read + 28
        0x00003934:    2084        .       MOVS     r0,#0x84
        0x00003936:    8218        ..      STRH     r0,[r3,#0x10]
        0x00003938:    2000        .       MOVS     r0,#0
        0x0000393a:    bd70        p.      POP      {r4-r6,pc}
        0x0000393c:    695c        \i      LDR      r4,[r3,#0x14]
        0x0000393e:    3314        .3      ADDS     r3,r3,#0x14
        0x00003940:    2900        .)      CMP      r1,#0
        0x00003942:    d106        ..      BNE      0x3952 ; sark_cmd_read + 50
        0x00003944:    e002        ..      B        0x394c ; sark_cmd_read + 44
        0x00003946:    5c62        b\      LDRB     r2,[r4,r1]
        0x00003948:    545a        ZT      STRB     r2,[r3,r1]
        0x0000394a:    1c49        I.      ADDS     r1,r1,#1
        0x0000394c:    4281        .B      CMP      r1,r0
        0x0000394e:    d3fa        ..      BCC      0x3946 ; sark_cmd_read + 38
        0x00003950:    bd70        p.      POP      {r4-r6,pc}
        0x00003952:    2901        .)      CMP      r1,#1
        0x00003954:    d109        ..      BNE      0x396a ; sark_cmd_read + 74
        0x00003956:    2100        .!      MOVS     r1,#0
        0x00003958:    0845        E.      LSRS     r5,r0,#1
        0x0000395a:    e003        ..      B        0x3964 ; sark_cmd_read + 68
        0x0000395c:    004a        J.      LSLS     r2,r1,#1
        0x0000395e:    5aa6        .Z      LDRH     r6,[r4,r2]
        0x00003960:    1c49        I.      ADDS     r1,r1,#1
        0x00003962:    529e        .R      STRH     r6,[r3,r2]
        0x00003964:    428d        .B      CMP      r5,r1
        0x00003966:    d8f9        ..      BHI      0x395c ; sark_cmd_read + 60
        0x00003968:    bd70        p.      POP      {r4-r6,pc}
        0x0000396a:    2100        .!      MOVS     r1,#0
        0x0000396c:    0885        ..      LSRS     r5,r0,#2
        0x0000396e:    e003        ..      B        0x3978 ; sark_cmd_read + 88
        0x00003970:    008a        ..      LSLS     r2,r1,#2
        0x00003972:    58a6        .X      LDR      r6,[r4,r2]
        0x00003974:    1c49        I.      ADDS     r1,r1,#1
        0x00003976:    509e        .P      STR      r6,[r3,r2]
        0x00003978:    428d        .B      CMP      r5,r1
        0x0000397a:    d8f9        ..      BHI      0x3970 ; sark_cmd_read + 80
        0x0000397c:    bd70        p.      POP      {r4-r6,pc}
        0x0000397e:    0000        ..      MOVS     r0,r0
    i.sark_cmd_ver
    sark_cmd_ver
        0x00003980:    490a        .I      LDR      r1,[pc,#40] ; [0x39ac] = 0xe5007f00
        0x00003982:    b510        ..      PUSH     {r4,lr}
        0x00003984:    8809        ..      LDRH     r1,[r1,#0]
        0x00003986:    040a        ..      LSLS     r2,r1,#16
        0x00003988:    4909        .I      LDR      r1,[pc,#36] ; [0x39b0] = 0x4003d0
        0x0000398a:    684b        Kh      LDR      r3,[r1,#4]
        0x0000398c:    6809        .h      LDR      r1,[r1,#0]
        0x0000398e:    021b        ..      LSLS     r3,r3,#8
        0x00003990:    18d2        ..      ADDS     r2,r2,r3
        0x00003992:    1851        Q.      ADDS     r1,r2,r1
        0x00003994:    6141        Aa      STR      r1,[r0,#0x14]
        0x00003996:    4907        .I      LDR      r1,[pc,#28] ; [0x39b4] = 0x780100
        0x00003998:    6181        .a      STR      r1,[r0,#0x18]
        0x0000399a:    4907        .I      LDR      r1,[pc,#28] ; [0x39b8] = 0x5080
        0x0000399c:    6809        .h      LDR      r1,[r1,#0]
        0x0000399e:    61c1        .a      STR      r1,[r0,#0x1c]
        0x000039a0:    3020         0      ADDS     r0,r0,#0x20
        0x000039a2:    a106        ..      ADR      r1,{pc}+0x1a ; 0x39bc
        0x000039a4:    f7feefc8    ....    BLX      sark_str_cpy ; 0x2938
        0x000039a8:    201b        .       MOVS     r0,#0x1b
        0x000039aa:    bd10        ..      POP      {r4,pc}
    $d
        0x000039ac:    e5007f00    ....    DCD    3842014976
        0x000039b0:    004003d0    ..@.    DCD    4195280
        0x000039b4:    00780100    ..x.    DCD    7864576
        0x000039b8:    00005080    .P..    DCD    20608
        0x000039bc:    4b524153    SARK    DCD    1263681875
        0x000039c0:    6970532f    /Spi    DCD    1768969007
        0x000039c4:    6b614e4e    NNak    DCD    1801539150
        0x000039c8:    00007265    er..    DCD    29285
    $t
    i.sark_cmd_write
    sark_cmd_write
        0x000039cc:    b530        0.      PUSH     {r4,r5,lr}
        0x000039ce:    23ff        .#      MOVS     r3,#0xff
        0x000039d0:    6982        .i      LDR      r2,[r0,#0x18]
        0x000039d2:    69c1        .i      LDR      r1,[r0,#0x1c]
        0x000039d4:    3301        .3      ADDS     r3,#1
        0x000039d6:    429a        .B      CMP      r2,r3
        0x000039d8:    d801        ..      BHI      0x39de ; sark_cmd_write + 18
        0x000039da:    2902        .)      CMP      r1,#2
        0x000039dc:    d902        ..      BLS      0x39e4 ; sark_cmd_write + 24
        0x000039de:    2184        .!      MOVS     r1,#0x84
        0x000039e0:    8201        ..      STRH     r1,[r0,#0x10]
        0x000039e2:    e01f        ..      B        0x3a24 ; sark_cmd_write + 88
        0x000039e4:    6943        Ci      LDR      r3,[r0,#0x14]
        0x000039e6:    3020         0      ADDS     r0,r0,#0x20
        0x000039e8:    2900        .)      CMP      r1,#0
        0x000039ea:    d106        ..      BNE      0x39fa ; sark_cmd_write + 46
        0x000039ec:    e002        ..      B        0x39f4 ; sark_cmd_write + 40
        0x000039ee:    5c44        D\      LDRB     r4,[r0,r1]
        0x000039f0:    545c        \T      STRB     r4,[r3,r1]
        0x000039f2:    1c49        I.      ADDS     r1,r1,#1
        0x000039f4:    4291        .B      CMP      r1,r2
        0x000039f6:    d3fa        ..      BCC      0x39ee ; sark_cmd_write + 34
        0x000039f8:    e014        ..      B        0x3a24 ; sark_cmd_write + 88
        0x000039fa:    2901        .)      CMP      r1,#1
        0x000039fc:    d109        ..      BNE      0x3a12 ; sark_cmd_write + 70
        0x000039fe:    2100        .!      MOVS     r1,#0
        0x00003a00:    0854        T.      LSRS     r4,r2,#1
        0x00003a02:    e003        ..      B        0x3a0c ; sark_cmd_write + 64
        0x00003a04:    004a        J.      LSLS     r2,r1,#1
        0x00003a06:    5a85        .Z      LDRH     r5,[r0,r2]
        0x00003a08:    1c49        I.      ADDS     r1,r1,#1
        0x00003a0a:    529d        .R      STRH     r5,[r3,r2]
        0x00003a0c:    428c        .B      CMP      r4,r1
        0x00003a0e:    d8f9        ..      BHI      0x3a04 ; sark_cmd_write + 56
        0x00003a10:    e008        ..      B        0x3a24 ; sark_cmd_write + 88
        0x00003a12:    2100        .!      MOVS     r1,#0
        0x00003a14:    0894        ..      LSRS     r4,r2,#2
        0x00003a16:    e003        ..      B        0x3a20 ; sark_cmd_write + 84
        0x00003a18:    008a        ..      LSLS     r2,r1,#2
        0x00003a1a:    5885        .X      LDR      r5,[r0,r2]
        0x00003a1c:    1c49        I.      ADDS     r1,r1,#1
        0x00003a1e:    509d        .P      STR      r5,[r3,r2]
        0x00003a20:    428c        .B      CMP      r4,r1
        0x00003a22:    d8f9        ..      BHI      0x3a18 ; sark_cmd_write + 76
        0x00003a24:    2000        .       MOVS     r0,#0
        0x00003a26:    bd30        0.      POP      {r4,r5,pc}
    i.sark_config
    sark_config
        0x00003a28:    2001        .       MOVS     r0,#1
        0x00003a2a:    2140        @!      MOVS     r1,#0x40
        0x00003a2c:    7688        .v      STRB     r0,[r1,#0x1a]
        0x00003a2e:    4770        pG      BX       lr
    i.sark_heap_init
    sark_heap_init
        0x00003a30:    0002        ..      MOVS     r2,r0
        0x00003a32:    320c        .2      ADDS     r2,r2,#0xc
        0x00003a34:    3908        .9      SUBS     r1,r1,#8
        0x00003a36:    6042        B`      STR      r2,[r0,#4]
        0x00003a38:    60c1        .`      STR      r1,[r0,#0xc]
        0x00003a3a:    6002        .`      STR      r2,[r0,#0]
        0x00003a3c:    2300        .#      MOVS     r3,#0
        0x00003a3e:    6081        .`      STR      r1,[r0,#8]
        0x00003a40:    600b        .`      STR      r3,[r1,#0]
        0x00003a42:    6103        .a      STR      r3,[r0,#0x10]
        0x00003a44:    604b        K`      STR      r3,[r1,#4]
        0x00003a46:    4770        pG      BX       lr
    i.sark_init
    sark_init
        0x00003a48:    b570        p.      PUSH     {r4-r6,lr}
        0x00003a4a:    2540        @%      MOVS     r5,#0x40
        0x00003a4c:    8829        ).      LDRH     r1,[r5,#0]
        0x00003a4e:    886a        j.      LDRH     r2,[r5,#2]
        0x00003a50:    0089        ..      LSLS     r1,r1,#2
        0x00003a52:    1a40        @.      SUBS     r0,r0,r1
        0x00003a54:    21d2        .!      MOVS     r1,#0xd2
        0x00003a56:    f7feeefc    ....    BLX      cpu_init_mode ; 0x2850
        0x00003a5a:    88aa        ..      LDRH     r2,[r5,#4]
        0x00003a5c:    21d1        .!      MOVS     r1,#0xd1
        0x00003a5e:    f7feeef8    ....    BLX      cpu_init_mode ; 0x2850
        0x00003a62:    88ea        ..      LDRH     r2,[r5,#6]
        0x00003a64:    21df        .!      MOVS     r1,#0xdf
        0x00003a66:    f7feeef4    ....    BLX      cpu_init_mode ; 0x2850
        0x00003a6a:    4c28        (L      LDR      r4,[pc,#160] ; [0x3b0c] = 0x4003d0
        0x00003a6c:    0001        ..      MOVS     r1,r0
        0x00003a6e:    6120         a      STR      r0,[r4,#0x10]
        0x00003a70:    2000        .       MOVS     r0,#0
        0x00003a72:    6cc0        .l      LDR      r0,[r0,#0x4c]
        0x00003a74:    6160        `a      STR      r0,[r4,#0x14]
        0x00003a76:    f7ffffdb    ....    BL       sark_heap_init ; 0x3a30
        0x00003a7a:    61a0        .a      STR      r0,[r4,#0x18]
        0x00003a7c:    0628        (.      LSLS     r0,r5,#24
        0x00003a7e:    6940        @i      LDR      r0,[r0,#0x14]
        0x00003a80:    4923        #I      LDR      r1,[pc,#140] ; [0x3b10] = 0xe5007f80
        0x00003a82:    0e00        ..      LSRS     r0,r0,#24
        0x00003a84:    6060        ``      STR      r0,[r4,#4]
        0x00003a86:    1840        @.      ADDS     r0,r0,r1
        0x00003a88:    7d00        .}      LDRB     r0,[r0,#0x14]
        0x00003a8a:    6020         `      STR      r0,[r4,#0]
        0x00003a8c:    4820         H      LDR      r0,[pc,#128] ; [0x3b10] = 0xe5007f80
        0x00003a8e:    26ff        .&      MOVS     r6,#0xff
        0x00003a90:    3860        `8      SUBS     r0,r0,#0x60
        0x00003a92:    8880        ..      LDRH     r0,[r0,#4]
        0x00003a94:    8620         .      STRH     r0,[r4,#0x30]
        0x00003a96:    481f        .H      LDR      r0,[pc,#124] ; [0x3b14] = 0xdeaddead
        0x00003a98:    3625        %6      ADDS     r6,r6,#0x25
        0x00003a9a:    60a0        .`      STR      r0,[r4,#8]
        0x00003a9c:    7da8        .}      LDRB     r0,[r5,#0x16]
        0x00003a9e:    0031        1.      MOVS     r1,r6
        0x00003aa0:    f7ffff22    ..".    BL       sark_alloc ; 0x38e8
        0x00003aa4:    6220         b      STR      r0,[r4,#0x20]
        0x00003aa6:    7da9        .}      LDRB     r1,[r5,#0x16]
        0x00003aa8:    0032        2.      MOVS     r2,r6
        0x00003aaa:    f7ffff29    ..).    BL       sark_block_init ; 0x3900
        0x00003aae:    6821        !h      LDR      r1,[r4,#0]
        0x00003ab0:    2912        .)      CMP      r1,#0x12
        0x00003ab2:    d21e        ..      BCS      0x3af2 ; sark_init + 170
        0x00003ab4:    4a18        .J      LDR      r2,[pc,#96] ; [0x3b18] = 0xe5007000
        0x00003ab6:    01c8        ..      LSLS     r0,r1,#7
        0x00003ab8:    1880        ..      ADDS     r0,r0,r2
        0x00003aba:    4a15        .J      LDR      r2,[pc,#84] ; [0x3b10] = 0xe5007f80
        0x00003abc:    61e0        .a      STR      r0,[r4,#0x1c]
        0x00003abe:    3a40        @:      SUBS     r2,r2,#0x40
        0x00003ac0:    6993        .i      LDR      r3,[r2,#0x18]
        0x00003ac2:    6952        Ri      LDR      r2,[r2,#0x14]
        0x00003ac4:    434b        KC      MULS     r3,r1,r3
        0x00003ac6:    0099        ..      LSLS     r1,r3,#2
        0x00003ac8:    1889        ..      ADDS     r1,r1,r2
        0x00003aca:    6361        ac      STR      r1,[r4,#0x34]
        0x00003acc:    2270        p"      MOVS     r2,#0x70
        0x00003ace:    2100        .!      MOVS     r1,#0
        0x00003ad0:    f7feef72    ..r.    BLX      sark_word_set ; 0x29b8
        0x00003ad4:    69e0        .i      LDR      r0,[r4,#0x1c]
        0x00003ad6:    7e6a        j~      LDRB     r2,[r5,#0x19]
        0x00003ad8:    0001        ..      MOVS     r1,r0
        0x00003ada:    3120         1      ADDS     r1,r1,#0x20
        0x00003adc:    73ca        .s      STRB     r2,[r1,#0xf]
        0x00003ade:    2204        ."      MOVS     r2,#4
        0x00003ae0:    738a        .s      STRB     r2,[r1,#0xe]
        0x00003ae2:    490b        .I      LDR      r1,[pc,#44] ; [0x3b10] = 0xe5007f80
        0x00003ae4:    3980        .9      SUBS     r1,r1,#0x80
        0x00003ae6:    69c9        .i      LDR      r1,[r1,#0x1c]
        0x00003ae8:    6441        Ad      STR      r1,[r0,#0x44]
        0x00003aea:    490c        .I      LDR      r1,[pc,#48] ; [0x3b1c] = 0x5084
        0x00003aec:    3048        H0      ADDS     r0,r0,#0x48
        0x00003aee:    f7feef24    ..$.    BLX      sark_str_cpy ; 0x2938
        0x00003af2:    f000fa2f    ../.    BL       sark_vic_init ; 0x3f54
        0x00003af6:    7de8        .}      LDRB     r0,[r5,#0x17]
        0x00003af8:    4b09        .K      LDR      r3,[pc,#36] ; [0x3b20] = 0x28d8
        0x00003afa:    2201        ."      MOVS     r2,#1
        0x00003afc:    2112        .!      MOVS     r1,#0x12
        0x00003afe:    f000fa49    ..I.    BL       sark_vic_set ; 0x3f94
        0x00003b02:    7e28        (~      LDRB     r0,[r5,#0x18]
        0x00003b04:    f7fffb64    ..d.    BL       event_alloc ; 0x31d0
        0x00003b08:    201f        .       MOVS     r0,#0x1f
        0x00003b0a:    bd70        p.      POP      {r4-r6,pc}
    $d
        0x00003b0c:    004003d0    ..@.    DCD    4195280
        0x00003b10:    e5007f80    ....    DCD    3842015104
        0x00003b14:    deaddead    ....    DCD    3735936685
        0x00003b18:    e5007000    .p..    DCD    3842011136
        0x00003b1c:    00005084    .P..    DCD    20612
        0x00003b20:    000028d8    .(..    DCD    10456
    $t
    i.sark_int
    sark_int
        0x00003b24:    b5f8        ..      PUSH     {r3-r7,lr}
        0x00003b26:    2101        .!      MOVS     r1,#1
        0x00003b28:    4f52        RO      LDR      r7,[pc,#328] ; [0x3c74] = 0x4003d0
        0x00003b2a:    687a        zh      LDR      r2,[r7,#4]
        0x00003b2c:    4091        .@      LSLS     r1,r1,r2
        0x00003b2e:    4a52        RJ      LDR      r2,[pc,#328] ; [0x3c78] = 0x5ec00000
        0x00003b30:    1889        ..      ADDS     r1,r1,r2
        0x00003b32:    2271        q"      MOVS     r2,#0x71
        0x00003b34:    0652        R.      LSLS     r2,r2,#25
        0x00003b36:    60d1        .`      STR      r1,[r2,#0xc]
        0x00003b38:    69fa        .i      LDR      r2,[r7,#0x1c]
        0x00003b3a:    0013        ..      MOVS     r3,r2
        0x00003b3c:    3320         3      ADDS     r3,r3,#0x20
        0x00003b3e:    7e19        .~      LDRB     r1,[r3,#0x18]
        0x00003b40:    6b16        .k      LDR      r6,[r2,#0x30]
        0x00003b42:    2903        .)      CMP      r1,#3
        0x00003b44:    d100        ..      BNE      0x3b48 ; sark_int + 36
        0x00003b46:    6310        .c      STR      r0,[r2,#0x30]
        0x00003b48:    2500        .%      MOVS     r5,#0
        0x00003b4a:    761d        .v      STRB     r5,[r3,#0x18]
        0x00003b4c:    2901        .)      CMP      r1,#1
        0x00003b4e:    d169        i.      BNE      0x3c24 ; sark_int + 256
        0x00003b50:    f000f8d2    ....    BL       sark_msg_get ; 0x3cf8
        0x00003b54:    0004        ..      MOVS     r4,r0
        0x00003b56:    d061        a.      BEQ      0x3c1c ; sark_int + 248
        0x00003b58:    0031        1.      MOVS     r1,r6
        0x00003b5a:    0020         .      MOVS     r0,r4
        0x00003b5c:    f7feeefa    ....    BLX      sark_msg_cpy ; 0x2954
        0x00003b60:    0030        0.      MOVS     r0,r6
        0x00003b62:    f000f9cb    ....    BL       sark_shmsg_free ; 0x3efc
        0x00003b66:    6ab8        .j      LDR      r0,[r7,#0x28]
        0x00003b68:    1c40        @.      ADDS     r0,r0,#1
        0x00003b6a:    62b8        .b      STR      r0,[r7,#0x28]
        0x00003b6c:    7aa6        .z      LDRB     r6,[r4,#0xa]
        0x00003b6e:    0630        0.      LSLS     r0,r6,#24
        0x00003b70:    0f40        @.      LSRS     r0,r0,#29
        0x00003b72:    d131        1.      BNE      0x3bd8 ; sark_int + 180
        0x00003b74:    88a0        ..      LDRH     r0,[r4,#4]
        0x00003b76:    2818        .(      CMP      r0,#0x18
        0x00003b78:    d201        ..      BCS      0x3b7e ; sark_int + 90
        0x00003b7a:    2081        .       MOVS     r0,#0x81
        0x00003b7c:    e01b        ..      B        0x3bb6 ; sark_int + 146
        0x00003b7e:    8a20         .      LDRH     r0,[r4,#0x10]
        0x00003b80:    2180        .!      MOVS     r1,#0x80
        0x00003b82:    2800        .(      CMP      r0,#0
        0x00003b84:    8221        !.      STRH     r1,[r4,#0x10]
        0x00003b86:    d103        ..      BNE      0x3b90 ; sark_int + 108
        0x00003b88:    0020         .      MOVS     r0,r4
        0x00003b8a:    f7fffef9    ....    BL       sark_cmd_ver ; 0x3980
        0x00003b8e:    e014        ..      B        0x3bba ; sark_int + 150
        0x00003b90:    2802        .(      CMP      r0,#2
        0x00003b92:    d103        ..      BNE      0x3b9c ; sark_int + 120
        0x00003b94:    0020         .      MOVS     r0,r4
        0x00003b96:    f7fffec3    ....    BL       sark_cmd_read ; 0x3920
        0x00003b9a:    e00e        ..      B        0x3bba ; sark_int + 150
        0x00003b9c:    2803        .(      CMP      r0,#3
        0x00003b9e:    d103        ..      BNE      0x3ba8 ; sark_int + 132
        0x00003ba0:    0020         .      MOVS     r0,r4
        0x00003ba2:    f7ffff13    ....    BL       sark_cmd_write ; 0x39cc
        0x00003ba6:    e008        ..      B        0x3bba ; sark_int + 150
        0x00003ba8:    2805        .(      CMP      r0,#5
        0x00003baa:    d103        ..      BNE      0x3bb4 ; sark_int + 144
        0x00003bac:    0020         .      MOVS     r0,r4
        0x00003bae:    f7fffeb0    ....    BL       sark_cmd_fill ; 0x3912
        0x00003bb2:    e002        ..      B        0x3bba ; sark_int + 150
        0x00003bb4:    2083        .       MOVS     r0,#0x83
        0x00003bb6:    8220         .      STRH     r0,[r4,#0x10]
        0x00003bb8:    0028        (.      MOVS     r0,r5
        0x00003bba:    300c        .0      ADDS     r0,r0,#0xc
        0x00003bbc:    80a0        ..      STRH     r0,[r4,#4]
        0x00003bbe:    7aa1        .z      LDRB     r1,[r4,#0xa]
        0x00003bc0:    89a0        ..      LDRH     r0,[r4,#0xc]
        0x00003bc2:    7ae2        .z      LDRB     r2,[r4,#0xb]
        0x00003bc4:    72a2        .r      STRB     r2,[r4,#0xa]
        0x00003bc6:    72e1        .r      STRB     r1,[r4,#0xb]
        0x00003bc8:    89e1        ..      LDRH     r1,[r4,#0xe]
        0x00003bca:    81a1        ..      STRH     r1,[r4,#0xc]
        0x00003bcc:    81e0        ..      STRH     r0,[r4,#0xe]
        0x00003bce:    210a        .!      MOVS     r1,#0xa
        0x00003bd0:    0020         .      MOVS     r0,r4
        0x00003bd2:    f000f8ab    ....    BL       sark_msg_send ; 0x3d2c
        0x00003bd6:    e013        ..      B        0x3c00 ; sark_int + 220
        0x00003bd8:    2040        @       MOVS     r0,#0x40
        0x00003bda:    7e80        .~      LDRB     r0,[r0,#0x1a]
        0x00003bdc:    2800        .(      CMP      r0,#0
        0x00003bde:    d013        ..      BEQ      0x3c08 ; sark_int + 228
        0x00003be0:    4826        &H      LDR      r0,[pc,#152] ; [0x3c7c] = 0x4009d4
        0x00003be2:    6980        .i      LDR      r0,[r0,#0x18]
        0x00003be4:    2800        .(      CMP      r0,#0
        0x00003be6:    d00b        ..      BEQ      0x3c00 ; sark_int + 220
        0x00003be8:    f7feee3e    ..>.    BLX      cpu_int_disable ; 0x2868
        0x00003bec:    0005        ..      MOVS     r5,r0
        0x00003bee:    0972        r.      LSRS     r2,r6,#5
        0x00003bf0:    0021        !.      MOVS     r1,r4
        0x00003bf2:    2003        .       MOVS     r0,#3
        0x00003bf4:    f000fa46    ..F.    BL       schedule_sysmode ; 0x4084
        0x00003bf8:    0028        (.      MOVS     r0,r5
        0x00003bfa:    f7feee3e    ..>.    BLX      cpu_int_restore ; 0x2878
        0x00003bfe:    bdf8        ..      POP      {r3-r7,pc}
        0x00003c00:    0020         .      MOVS     r0,r4
        0x00003c02:    f000f869    ..i.    BL       sark_msg_free ; 0x3cd8
        0x00003c06:    bdf8        ..      POP      {r3-r7,pc}
        0x00003c08:    202f        /       MOVS     r0,#0x2f
        0x00003c0a:    0600        ..      LSLS     r0,r0,#24
        0x00003c0c:    6901        .i      LDR      r1,[r0,#0x10]
        0x00003c0e:    00c9        ..      LSLS     r1,r1,#3
        0x00003c10:    d5f6        ..      BPL      0x3c00 ; sark_int + 220
        0x00003c12:    491b        .I      LDR      r1,[pc,#108] ; [0x3c80] = 0x400408
        0x00003c14:    628c        .b      STR      r4,[r1,#0x28]
        0x00003c16:    2101        .!      MOVS     r1,#1
        0x00003c18:    0709        ..      LSLS     r1,r1,#28
        0x00003c1a:    e029        ).      B        0x3c70 ; sark_int + 332
        0x00003c1c:    0030        0.      MOVS     r0,r6
        0x00003c1e:    f000f96d    ..m.    BL       sark_shmsg_free ; 0x3efc
        0x00003c22:    bdf8        ..      POP      {r3-r7,pc}
        0x00003c24:    2902        .)      CMP      r1,#2
        0x00003c26:    d108        ..      BNE      0x3c3a ; sark_int + 278
        0x00003c28:    f7feee1e    ....    BLX      cpu_int_disable ; 0x2868
        0x00003c2c:    69f8        .i      LDR      r0,[r7,#0x1c]
        0x00003c2e:    3020         0      ADDS     r0,r0,#0x20
        0x00003c30:    7bc1        .{      LDRB     r1,[r0,#0xf]
        0x00003c32:    0030        0.      MOVS     r0,r6
        0x00003c34:    f7fefdbe    ....    BL       sark_aplx ; 0x27b4
        0x00003c38:    bdf8        ..      POP      {r3-r7,pc}
        0x00003c3a:    2905        .)      CMP      r1,#5
        0x00003c3c:    d101        ..      BNE      0x3c42 ; sark_int + 286
        0x00003c3e:    2001        .       MOVS     r0,#1
        0x00003c40:    e002        ..      B        0x3c48 ; sark_int + 292
        0x00003c42:    2906        .)      CMP      r1,#6
        0x00003c44:    d103        ..      BNE      0x3c4e ; sark_int + 298
        0x00003c46:    2000        .       MOVS     r0,#0
        0x00003c48:    f7fffae2    ....    BL       event_pause ; 0x3210
        0x00003c4c:    bdf8        ..      POP      {r3-r7,pc}
        0x00003c4e:    2904        .)      CMP      r1,#4
        0x00003c50:    d103        ..      BNE      0x3c5a ; sark_int + 310
        0x00003c52:    20ff        .       MOVS     r0,#0xff
        0x00003c54:    f7fffaf4    ....    BL       event_stop ; 0x3240
        0x00003c58:    bdf8        ..      POP      {r3-r7,pc}
        0x00003c5a:    2907        .)      CMP      r1,#7
        0x00003c5c:    d1fc        ..      BNE      0x3c58 ; sark_int + 308
        0x00003c5e:    202f        /       MOVS     r0,#0x2f
        0x00003c60:    0600        ..      LSLS     r0,r0,#24
        0x00003c62:    6901        .i      LDR      r1,[r0,#0x10]
        0x00003c64:    0089        ..      LSLS     r1,r1,#2
        0x00003c66:    d5f7        ..      BPL      0x3c58 ; sark_int + 308
        0x00003c68:    4905        .I      LDR      r1,[pc,#20] ; [0x3c80] = 0x400408
        0x00003c6a:    62ce        .b      STR      r6,[r1,#0x2c]
        0x00003c6c:    2101        .!      MOVS     r1,#1
        0x00003c6e:    0749        I.      LSLS     r1,r1,#29
        0x00003c70:    6181        .a      STR      r1,[r0,#0x18]
        0x00003c72:    bdf8        ..      POP      {r3-r7,pc}
    $d
        0x00003c74:    004003d0    ..@.    DCD    4195280
        0x00003c78:    5ec00000    ...^    DCD    1589641216
        0x00003c7c:    004009d4    ..@.    DCD    4196820
        0x00003c80:    00400408    ..@.    DCD    4195336
    $t
    i.sark_led_set
    sark_led_set
        0x00003c84:    b5f8        ..      PUSH     {r3-r7,lr}
        0x00003c86:    0004        ..      MOVS     r4,r0
        0x00003c88:    2100        .!      MOVS     r1,#0
        0x00003c8a:    4811        .H      LDR      r0,[pc,#68] ; [0x3cd0] = 0xe5007f30
        0x00003c8c:    f7fffae4    ....    BL       get4 ; 0x3258
        0x00003c90:    0007        ..      MOVS     r7,r0
        0x00003c92:    4e10        .N      LDR      r6,[pc,#64] ; [0x3cd4] = 0xe2000040
        0x00003c94:    2501        .%      MOVS     r5,#1
        0x00003c96:    e018        ..      B        0x3cca ; sark_led_set + 70
        0x00003c98:    480d        .H      LDR      r0,[pc,#52] ; [0x3cd0] = 0xe5007f30
        0x00003c9a:    0029        ).      MOVS     r1,r5
        0x00003c9c:    f7fffadc    ....    BL       get4 ; 0x3258
        0x00003ca0:    0001        ..      MOVS     r1,r0
        0x00003ca2:    2001        .       MOVS     r0,#1
        0x00003ca4:    4088        .@      LSLS     r0,r0,r1
        0x00003ca6:    07e1        ..      LSLS     r1,r4,#31
        0x00003ca8:    0022        ".      MOVS     r2,r4
        0x00003caa:    2302        .#      MOVS     r3,#2
        0x00003cac:    0fc9        ..      LSRS     r1,r1,#31
        0x00003cae:    401a        .@      ANDS     r2,r2,r3
        0x00003cb0:    08a4        ..      LSRS     r4,r4,#2
        0x00003cb2:    2a00        .*      CMP      r2,#0
        0x00003cb4:    d103        ..      BNE      0x3cbe ; sark_led_set + 58
        0x00003cb6:    2900        .)      CMP      r1,#0
        0x00003cb8:    d006        ..      BEQ      0x3cc8 ; sark_led_set + 68
        0x00003cba:    6831        1h      LDR      r1,[r6,#0]
        0x00003cbc:    4001        .@      ANDS     r1,r1,r0
        0x00003cbe:    2900        .)      CMP      r1,#0
        0x00003cc0:    d001        ..      BEQ      0x3cc6 ; sark_led_set + 66
        0x00003cc2:    60f0        .`      STR      r0,[r6,#0xc]
        0x00003cc4:    e000        ..      B        0x3cc8 ; sark_led_set + 68
        0x00003cc6:    60b0        .`      STR      r0,[r6,#8]
        0x00003cc8:    1c6d        m.      ADDS     r5,r5,#1
        0x00003cca:    42bd        .B      CMP      r5,r7
        0x00003ccc:    d9e4        ..      BLS      0x3c98 ; sark_led_set + 20
        0x00003cce:    bdf8        ..      POP      {r3-r7,pc}
    $d
        0x00003cd0:    e5007f30    0...    DCD    3842015024
        0x00003cd4:    e2000040    @...    DCD    3791650880
    $t
    i.sark_msg_free
    sark_msg_free
        0x00003cd8:    b570        p.      PUSH     {r4-r6,lr}
        0x00003cda:    0005        ..      MOVS     r5,r0
        0x00003cdc:    4c05        .L      LDR      r4,[pc,#20] ; [0x3cf4] = 0x4003d0
        0x00003cde:    f7feedc4    ....    BLX      cpu_int_disable ; 0x2868
        0x00003ce2:    6a21        !j      LDR      r1,[r4,#0x20]
        0x00003ce4:    6029        )`      STR      r1,[r5,#0]
        0x00003ce6:    6225        %b      STR      r5,[r4,#0x20]
        0x00003ce8:    8ca1        ..      LDRH     r1,[r4,#0x24]
        0x00003cea:    1e49        I.      SUBS     r1,r1,#1
        0x00003cec:    84a1        ..      STRH     r1,[r4,#0x24]
        0x00003cee:    f7feedc4    ....    BLX      cpu_int_restore ; 0x2878
        0x00003cf2:    bd70        p.      POP      {r4-r6,pc}
    $d
        0x00003cf4:    004003d0    ..@.    DCD    4195280
    $t
    i.sark_msg_get
    sark_msg_get
        0x00003cf8:    b570        p.      PUSH     {r4-r6,lr}
        0x00003cfa:    4c0b        .L      LDR      r4,[pc,#44] ; [0x3d28] = 0x4003d0
        0x00003cfc:    f7feedb4    ....    BLX      cpu_int_disable ; 0x2868
        0x00003d00:    6a25        %j      LDR      r5,[r4,#0x20]
        0x00003d02:    3420         4      ADDS     r4,r4,#0x20
        0x00003d04:    2d00        .-      CMP      r5,#0
        0x00003d06:    d00a        ..      BEQ      0x3d1e ; sark_msg_get + 38
        0x00003d08:    6829        )h      LDR      r1,[r5,#0]
        0x00003d0a:    6021        !`      STR      r1,[r4,#0]
        0x00003d0c:    88a1        ..      LDRH     r1,[r4,#4]
        0x00003d0e:    1c49        I.      ADDS     r1,r1,#1
        0x00003d10:    0409        ..      LSLS     r1,r1,#16
        0x00003d12:    0c09        ..      LSRS     r1,r1,#16
        0x00003d14:    80a1        ..      STRH     r1,[r4,#4]
        0x00003d16:    88e2        ..      LDRH     r2,[r4,#6]
        0x00003d18:    4291        .B      CMP      r1,r2
        0x00003d1a:    d900        ..      BLS      0x3d1e ; sark_msg_get + 38
        0x00003d1c:    80e1        ..      STRH     r1,[r4,#6]
        0x00003d1e:    f7feedac    ....    BLX      cpu_int_restore ; 0x2878
        0x00003d22:    0028        (.      MOVS     r0,r5
        0x00003d24:    bd70        p.      POP      {r4-r6,pc}
    $d
        0x00003d26:    0000        ..      DCW    0
        0x00003d28:    004003d0    ..@.    DCD    4195280
    $t
    i.sark_msg_send
    sark_msg_send
        0x00003d2c:    b5f8        ..      PUSH     {r3-r7,lr}
        0x00003d2e:    000d        ..      MOVS     r5,r1
        0x00003d30:    0006        ..      MOVS     r6,r0
        0x00003d32:    f000f8f5    ....    BL       sark_shmsg_get ; 0x3f20
        0x00003d36:    0004        ..      MOVS     r4,r0
        0x00003d38:    d101        ..      BNE      0x3d3e ; sark_msg_send + 18
        0x00003d3a:    2000        .       MOVS     r0,#0
        0x00003d3c:    bdf8        ..      POP      {r3-r7,pc}
        0x00003d3e:    0031        1.      MOVS     r1,r6
        0x00003d40:    0020         .      MOVS     r0,r4
        0x00003d42:    f7feee08    ....    BLX      sark_msg_cpy ; 0x2954
        0x00003d46:    4e1c        .N      LDR      r6,[pc,#112] ; [0x3db8] = 0x4003d0
        0x00003d48:    2701        .'      MOVS     r7,#1
        0x00003d4a:    69f0        .i      LDR      r0,[r6,#0x1c]
        0x00003d4c:    6344        Dc      STR      r4,[r0,#0x34]
        0x00003d4e:    3020         0      ADDS     r0,r0,#0x20
        0x00003d50:    7647        Gv      STRB     r7,[r0,#0x19]
        0x00003d52:    0038        8.      MOVS     r0,r7
        0x00003d54:    f7feeda4    ....    BLX      sark_lock_get ; 0x28a0
        0x00003d58:    6832        2h      LDR      r2,[r6,#0]
        0x00003d5a:    4918        .I      LDR      r1,[pc,#96] ; [0x3dbc] = 0xe5007f40
        0x00003d5c:    003b        ;.      MOVS     r3,r7
        0x00003d5e:    4093        .@      LSLS     r3,r3,r2
        0x00003d60:    6849        Ih      LDR      r1,[r1,#4]
        0x00003d62:    4a16        .J      LDR      r2,[pc,#88] ; [0x3dbc] = 0xe5007f40
        0x00003d64:    430b        .C      ORRS     r3,r3,r1
        0x00003d66:    2900        .)      CMP      r1,#0
        0x00003d68:    6053        S`      STR      r3,[r2,#4]
        0x00003d6a:    d108        ..      BNE      0x3d7e ; sark_msg_send + 82
        0x00003d6c:    4913        .I      LDR      r1,[pc,#76] ; [0x3dbc] = 0xe5007f40
        0x00003d6e:    2271        q"      MOVS     r2,#0x71
        0x00003d70:    3160        `1      ADDS     r1,r1,#0x60
        0x00003d72:    7a09        .z      LDRB     r1,[r1,#8]
        0x00003d74:    408f        .@      LSLS     r7,r7,r1
        0x00003d76:    4912        .I      LDR      r1,[pc,#72] ; [0x3dc0] = 0x5ec00000
        0x00003d78:    1879        y.      ADDS     r1,r7,r1
        0x00003d7a:    0652        R.      LSLS     r2,r2,#25
        0x00003d7c:    6091        .`      STR      r1,[r2,#8]
        0x00003d7e:    2101        .!      MOVS     r1,#1
        0x00003d80:    f7feeda0    ....    BLX      sark_lock_free ; 0x28c4
        0x00003d84:    490d        .I      LDR      r1,[pc,#52] ; [0x3dbc] = 0xe5007f40
        0x00003d86:    3930        09      SUBS     r1,r1,#0x30
        0x00003d88:    680a        .h      LDR      r2,[r1,#0]
        0x00003d8a:    69f0        .i      LDR      r0,[r6,#0x1c]
        0x00003d8c:    3020         0      ADDS     r0,r0,#0x20
        0x00003d8e:    e003        ..      B        0x3d98 ; sark_msg_send + 108
        0x00003d90:    680b        .h      LDR      r3,[r1,#0]
        0x00003d92:    1a9b        ..      SUBS     r3,r3,r2
        0x00003d94:    42ab        .B      CMP      r3,r5
        0x00003d96:    d802        ..      BHI      0x3d9e ; sark_msg_send + 114
        0x00003d98:    7e43        C~      LDRB     r3,[r0,#0x19]
        0x00003d9a:    2b00        .+      CMP      r3,#0
        0x00003d9c:    d1f8        ..      BNE      0x3d90 ; sark_msg_send + 100
        0x00003d9e:    7e40        @~      LDRB     r0,[r0,#0x19]
        0x00003da0:    2800        .(      CMP      r0,#0
        0x00003da2:    d003        ..      BEQ      0x3dac ; sark_msg_send + 128
        0x00003da4:    0020         .      MOVS     r0,r4
        0x00003da6:    f000f8a9    ....    BL       sark_shmsg_free ; 0x3efc
        0x00003daa:    e7c6        ..      B        0x3d3a ; sark_msg_send + 14
        0x00003dac:    6af0        .j      LDR      r0,[r6,#0x2c]
        0x00003dae:    1c40        @.      ADDS     r0,r0,#1
        0x00003db0:    62f0        .b      STR      r0,[r6,#0x2c]
        0x00003db2:    2001        .       MOVS     r0,#1
        0x00003db4:    bdf8        ..      POP      {r3-r7,pc}
    $d
        0x00003db6:    0000        ..      DCW    0
        0x00003db8:    004003d0    ..@.    DCD    4195280
        0x00003dbc:    e5007f40    @...    DCD    3842015040
        0x00003dc0:    5ec00000    ...^    DCD    1589641216
    $t
    i.sark_post_main
    sark_post_main
        0x00003dc4:    4906        .I      LDR      r1,[pc,#24] ; [0x3de0] = 0xe5007f60
        0x00003dc6:    2000        .       MOVS     r0,#0
        0x00003dc8:    7108        .q      STRB     r0,[r1,#4]
        0x00003dca:    4806        .H      LDR      r0,[pc,#24] ; [0x3de4] = 0x400100
        0x00003dcc:    7840        @x      LDRB     r0,[r0,#1]
        0x00003dce:    2800        .(      CMP      r0,#0
        0x00003dd0:    d001        ..      BEQ      0x3dd6 ; sark_post_main + 18
        0x00003dd2:    4805        .H      LDR      r0,[pc,#20] ; [0x3de8] = 0xe2000190
        0x00003dd4:    6800        .h      LDR      r0,[r0,#0]
        0x00003dd6:    2040        @       MOVS     r0,#0x40
        0x00003dd8:    212f        /!      MOVS     r1,#0x2f
        0x00003dda:    0609        ..      LSLS     r1,r1,#24
        0x00003ddc:    6108        .a      STR      r0,[r1,#0x10]
        0x00003dde:    4770        pG      BX       lr
    $d
        0x00003de0:    e5007f60    `...    DCD    3842015072
        0x00003de4:    00400100    ..@.    DCD    4194560
        0x00003de8:    e2000190    ....    DCD    3791651216
    $t
    i.sark_pre_main
    sark_pre_main
        0x00003dec:    482b        +H      LDR      r0,[pc,#172] ; [0x3e9c] = 0xe2000110
        0x00003dee:    b570        p.      PUSH     {r4-r6,lr}
        0x00003df0:    2310        .#      MOVS     r3,#0x10
        0x00003df2:    6800        .h      LDR      r0,[r0,#0]
        0x00003df4:    4c2a        *L      LDR      r4,[pc,#168] ; [0x3ea0] = 0x400100
        0x00003df6:    17c0        ..      ASRS     r0,r0,#31
        0x00003df8:    1c40        @.      ADDS     r0,r0,#1
        0x00003dfa:    7060        `p      STRB     r0,[r4,#1]
        0x00003dfc:    7860        `x      LDRB     r0,[r4,#1]
        0x00003dfe:    4d29        )M      LDR      r5,[pc,#164] ; [0x3ea4] = 0xe5007f60
        0x00003e00:    2800        .(      CMP      r0,#0
        0x00003e02:    d014        ..      BEQ      0x3e2e ; sark_pre_main + 66
        0x00003e04:    2100        .!      MOVS     r1,#0
        0x00003e06:    2004        .       MOVS     r0,#4
        0x00003e08:    f7fffcde    ....    BL       rtr_alloc ; 0x37c8
        0x00003e0c:    4926        &I      LDR      r1,[pc,#152] ; [0x3ea8] = 0x4003d0
        0x00003e0e:    6460        `d      STR      r0,[r4,#0x44]
        0x00003e10:    6809        .h      LDR      r1,[r1,#0]
        0x00003e12:    2601        .&      MOVS     r6,#1
        0x00003e14:    1d89        ..      ADDS     r1,r1,#6
        0x00003e16:    0033        3.      MOVS     r3,r6
        0x00003e18:    408b        .@      LSLS     r3,r3,r1
        0x00003e1a:    4924        $I      LDR      r1,[pc,#144] ; [0x3eac] = 0xffff802
        0x00003e1c:    176a        j.      ASRS     r2,r5,#29
        0x00003e1e:    1c80        ..      ADDS     r0,r0,#2
        0x00003e20:    f7fffd18    ....    BL       rtr_mc_set ; 0x3854
        0x00003e24:    20ad        .       MOVS     r0,#0xad
        0x00003e26:    7128        (q      STRB     r0,[r5,#4]
        0x00003e28:    63a6        .c      STR      r6,[r4,#0x38]
        0x00003e2a:    63e6        .c      STR      r6,[r4,#0x3c]
        0x00003e2c:    e017        ..      B        0x3e5e ; sark_pre_main + 114
        0x00003e2e:    4a1d        .J      LDR      r2,[pc,#116] ; [0x3ea4] = 0xe5007f60
        0x00003e30:    3a50        P:      SUBS     r2,r2,#0x50
        0x00003e32:    6810        .h      LDR      r0,[r2,#0]
        0x00003e34:    491e        .I      LDR      r1,[pc,#120] ; [0x3eb0] = 0x1388
        0x00003e36:    6816        .h      LDR      r6,[r2,#0]
        0x00003e38:    1a36        6.      SUBS     r6,r6,r0
        0x00003e3a:    428e        .B      CMP      r6,r1
        0x00003e3c:    d202        ..      BCS      0x3e44 ; sark_pre_main + 88
        0x00003e3e:    792e        .y      LDRB     r6,[r5,#4]
        0x00003e40:    2ead        ..      CMP      r6,#0xad
        0x00003e42:    d3f8        ..      BCC      0x3e36 ; sark_pre_main + 74
        0x00003e44:    7928        (y      LDRB     r0,[r5,#4]
        0x00003e46:    28ad        .(      CMP      r0,#0xad
        0x00003e48:    d209        ..      BCS      0x3e5e ; sark_pre_main + 114
        0x00003e4a:    6d20         m      LDR      r0,[r4,#0x50]
        0x00003e4c:    a119        ..      ADR      r1,{pc}+0x68 ; 0x3eb4
        0x00003e4e:    4318        .C      ORRS     r0,r0,r3
        0x00003e50:    6520         e      STR      r0,[r4,#0x50]
        0x00003e52:    2000        .       MOVS     r0,#0
        0x00003e54:    f7fffa30    ..0.    BL       io_printf ; 0x32b8
        0x00003e58:    20c8        .       MOVS     r0,#0xc8
        0x00003e5a:    f7fefcd7    ....    BL       sark_delay_us ; 0x280c
        0x00003e5e:    4923        #I      LDR      r1,[pc,#140] ; [0x3eec] = 0x4009fc
        0x00003e60:    2000        .       MOVS     r0,#0
        0x00003e62:    6008        .`      STR      r0,[r1,#0]
        0x00003e64:    6048        H`      STR      r0,[r1,#4]
        0x00003e66:    6088        .`      STR      r0,[r1,#8]
        0x00003e68:    60c8        .`      STR      r0,[r1,#0xc]
        0x00003e6a:    6108        .a      STR      r0,[r1,#0x10]
        0x00003e6c:    6148        Ha      STR      r0,[r1,#0x14]
        0x00003e6e:    6188        .a      STR      r0,[r1,#0x18]
        0x00003e70:    61c8        .a      STR      r0,[r1,#0x1c]
        0x00003e72:    6208        .b      STR      r0,[r1,#0x20]
        0x00003e74:    6248        Hb      STR      r0,[r1,#0x24]
        0x00003e76:    6288        .b      STR      r0,[r1,#0x28]
        0x00003e78:    2240        @"      MOVS     r2,#0x40
        0x00003e7a:    212f        /!      MOVS     r1,#0x2f
        0x00003e7c:    0609        ..      LSLS     r1,r1,#24
        0x00003e7e:    614a        Ja      STR      r2,[r1,#0x14]
        0x00003e80:    4d1c        .M      LDR      r5,[pc,#112] ; [0x3ef4] = 0x2f000100
        0x00003e82:    4b1b        .K      LDR      r3,[pc,#108] ; [0x3ef0] = 0x29f4
        0x00003e84:    60eb        .`      STR      r3,[r5,#0xc]
        0x00003e86:    4d1c        .M      LDR      r5,[pc,#112] ; [0x3ef8] = 0x2f000200
        0x00003e88:    2326        &#      MOVS     r3,#0x26
        0x00003e8a:    60eb        .`      STR      r3,[r5,#0xc]
        0x00003e8c:    68cb        .h      LDR      r3,[r1,#0xc]
        0x00003e8e:    4393        .C      BICS     r3,r3,r2
        0x00003e90:    60cb        .`      STR      r3,[r1,#0xc]
        0x00003e92:    610a        .a      STR      r2,[r1,#0x10]
        0x00003e94:    6bc0        .k      LDR      r0,[r0,#0x3c]
        0x00003e96:    6420         d      STR      r0,[r4,#0x40]
        0x00003e98:    bd70        p.      POP      {r4-r6,pc}
    $d
        0x00003e9a:    0000        ..      DCW    0
        0x00003e9c:    e2000110    ....    DCD    3791651088
        0x00003ea0:    00400100    ..@.    DCD    4194560
        0x00003ea4:    e5007f60    `...    DCD    3842015072
        0x00003ea8:    004003d0    ..@.    DCD    4195280
        0x00003eac:    0ffff802    ....    DCD    268433410
        0x00003eb0:    00001388    ....    DCD    5000
        0x00003eb4:    615b0909    ..[a    DCD    1633356041
        0x00003eb8:    775f6970    pi_w    DCD    2002741616
        0x00003ebc:    5d6e7261    arn]    DCD    1567519329
        0x00003ec0:    72617720     war    DCD    1918990112
        0x00003ec4:    676e696e    ning    DCD    1735289198
        0x00003ec8:    6177203a    : wa    DCD    1635196986
        0x00003ecc:    6e697469    itin    DCD    1852404841
        0x00003ed0:    6f662067    g fo    DCD    1868963943
        0x00003ed4:    6f722072    r ro    DCD    1869750386
        0x00003ed8:    72657475    uter    DCD    1919251573
        0x00003edc:    696e6920     ini    DCD    1768843552
        0x00003ee0:    61662074    t fa    DCD    1634082932
        0x00003ee4:    64656c69    iled    DCD    1684368489
        0x00003ee8:    00000a2e    ....    DCD    2606
        0x00003eec:    004009fc    ..@.    DCD    4196860
        0x00003ef0:    000029f4    .)..    DCD    10740
        0x00003ef4:    2f000100    .../    DCD    788529408
        0x00003ef8:    2f000200    .../    DCD    788529664
    $t
    i.sark_shmsg_free
    sark_shmsg_free
        0x00003efc:    b510        ..      PUSH     {r4,lr}
        0x00003efe:    0004        ..      MOVS     r4,r0
        0x00003f00:    2000        .       MOVS     r0,#0
        0x00003f02:    f7feecce    ....    BLX      sark_lock_get ; 0x28a0
        0x00003f06:    4905        .I      LDR      r1,[pc,#20] ; [0x3f1c] = 0xe5007f68
        0x00003f08:    680a        .h      LDR      r2,[r1,#0]
        0x00003f0a:    6022        "`      STR      r2,[r4,#0]
        0x00003f0c:    600c        .`      STR      r4,[r1,#0]
        0x00003f0e:    888a        ..      LDRH     r2,[r1,#4]
        0x00003f10:    1e52        R.      SUBS     r2,r2,#1
        0x00003f12:    808a        ..      STRH     r2,[r1,#4]
        0x00003f14:    2100        .!      MOVS     r1,#0
        0x00003f16:    f7feecd6    ....    BLX      sark_lock_free ; 0x28c4
        0x00003f1a:    bd10        ..      POP      {r4,pc}
    $d
        0x00003f1c:    e5007f68    h...    DCD    3842015080
    $t
    i.sark_shmsg_get
    sark_shmsg_get
        0x00003f20:    2000        .       MOVS     r0,#0
        0x00003f22:    b510        ..      PUSH     {r4,lr}
        0x00003f24:    f7feecbc    ....    BLX      sark_lock_get ; 0x28a0
        0x00003f28:    4909        .I      LDR      r1,[pc,#36] ; [0x3f50] = 0xe5007f68
        0x00003f2a:    680c        .h      LDR      r4,[r1,#0]
        0x00003f2c:    2c00        .,      CMP      r4,#0
        0x00003f2e:    d00a        ..      BEQ      0x3f46 ; sark_shmsg_get + 38
        0x00003f30:    6822        "h      LDR      r2,[r4,#0]
        0x00003f32:    600a        .`      STR      r2,[r1,#0]
        0x00003f34:    888a        ..      LDRH     r2,[r1,#4]
        0x00003f36:    1c52        R.      ADDS     r2,r2,#1
        0x00003f38:    0412        ..      LSLS     r2,r2,#16
        0x00003f3a:    0c12        ..      LSRS     r2,r2,#16
        0x00003f3c:    808a        ..      STRH     r2,[r1,#4]
        0x00003f3e:    88cb        ..      LDRH     r3,[r1,#6]
        0x00003f40:    429a        .B      CMP      r2,r3
        0x00003f42:    d900        ..      BLS      0x3f46 ; sark_shmsg_get + 38
        0x00003f44:    80ca        ..      STRH     r2,[r1,#6]
        0x00003f46:    2100        .!      MOVS     r1,#0
        0x00003f48:    f7feecbc    ....    BLX      sark_lock_free ; 0x28c4
        0x00003f4c:    0020         .      MOVS     r0,r4
        0x00003f4e:    bd10        ..      POP      {r4,pc}
    $d
        0x00003f50:    e5007f68    h...    DCD    3842015080
    $t
    i.sark_vic_init
    sark_vic_init
        0x00003f54:    2000        .       MOVS     r0,#0
        0x00003f56:    b5f0        ..      PUSH     {r4-r7,lr}
        0x00003f58:    43c0        .C      MVNS     r0,r0
        0x00003f5a:    242f        /$      MOVS     r4,#0x2f
        0x00003f5c:    0624        $.      LSLS     r4,r4,#24
        0x00003f5e:    6160        `a      STR      r0,[r4,#0x14]
        0x00003f60:    2200        ."      MOVS     r2,#0
        0x00003f62:    60e2        .`      STR      r2,[r4,#0xc]
        0x00003f64:    6322        "c      STR      r2,[r4,#0x30]
        0x00003f66:    4b07        .K      LDR      r3,[pc,#28] ; [0x3f84] = 0x2f000200
        0x00003f68:    4d07        .M      LDR      r5,[pc,#28] ; [0x3f88] = 0x104
        0x00003f6a:    4f08        .O      LDR      r7,[pc,#32] ; [0x3f8c] = 0x2f000100
        0x00003f6c:    0010        ..      MOVS     r0,r2
        0x00003f6e:    0081        ..      LSLS     r1,r0,#2
        0x00003f70:    18ce        ..      ADDS     r6,r1,r3
        0x00003f72:    6032        2`      STR      r2,[r6,#0]
        0x00003f74:    19c9        ..      ADDS     r1,r1,r7
        0x00003f76:    600d        .`      STR      r5,[r1,#0]
        0x00003f78:    1c40        @.      ADDS     r0,r0,#1
        0x00003f7a:    2810        .(      CMP      r0,#0x10
        0x00003f7c:    d3f7        ..      BCC      0x3f6e ; sark_vic_init + 26
        0x00003f7e:    4804        .H      LDR      r0,[pc,#16] ; [0x3f90] = 0x2908
        0x00003f80:    6360        `c      STR      r0,[r4,#0x34]
        0x00003f82:    bdf0        ..      POP      {r4-r7,pc}
    $d
        0x00003f84:    2f000200    .../    DCD    788529664
        0x00003f88:    00000104    ....    DCD    260
        0x00003f8c:    2f000100    .../    DCD    788529408
        0x00003f90:    00002908    .)..    DCD    10504
    $t
    i.sark_vic_set
    sark_vic_set
        0x00003f94:    b510        ..      PUSH     {r4,lr}
        0x00003f96:    4c08        .L      LDR      r4,[pc,#32] ; [0x3fb8] = 0x2f000100
        0x00003f98:    0080        ..      LSLS     r0,r0,#2
        0x00003f9a:    1904        ..      ADDS     r4,r0,r4
        0x00003f9c:    6023        #`      STR      r3,[r4,#0]
        0x00003f9e:    4c07        .L      LDR      r4,[pc,#28] ; [0x3fbc] = 0x2f000200
        0x00003fa0:    2320         #      MOVS     r3,#0x20
        0x00003fa2:    430b        .C      ORRS     r3,r3,r1
        0x00003fa4:    1900        ..      ADDS     r0,r0,r4
        0x00003fa6:    6003        .`      STR      r3,[r0,#0]
        0x00003fa8:    2a00        .*      CMP      r2,#0
        0x00003faa:    d004        ..      BEQ      0x3fb6 ; sark_vic_set + 34
        0x00003fac:    2001        .       MOVS     r0,#1
        0x00003fae:    4088        .@      LSLS     r0,r0,r1
        0x00003fb0:    212f        /!      MOVS     r1,#0x2f
        0x00003fb2:    0609        ..      LSLS     r1,r1,#24
        0x00003fb4:    6108        .a      STR      r0,[r1,#0x10]
        0x00003fb6:    bd10        ..      POP      {r4,pc}
    $d
        0x00003fb8:    2f000100    .../    DCD    788529408
        0x00003fbc:    2f000200    .../    DCD    788529664
    $t
    i.sark_xalloc
    sark_xalloc
        0x00003fc0:    b5ff        ..      PUSH     {r0-r7,lr}
        0x00003fc2:    b081        ..      SUB      sp,sp,#4
        0x00003fc4:    0016        ..      MOVS     r6,r2
        0x00003fc6:    001d        ..      MOVS     r5,r3
        0x00003fc8:    2900        .)      CMP      r1,#0
        0x00003fca:    d030        0.      BEQ      0x402e ; sark_xalloc + 110
        0x00003fcc:    2eff        ..      CMP      r6,#0xff
        0x00003fce:    d82e        ..      BHI      0x402e ; sark_xalloc + 110
        0x00003fd0:    0a28        (.      LSRS     r0,r5,#8
        0x00003fd2:    07aa        ..      LSLS     r2,r5,#30
        0x00003fd4:    d401        ..      BMI      0x3fda ; sark_xalloc + 26
        0x00003fd6:    2040        @       MOVS     r0,#0x40
        0x00003fd8:    7e40        @~      LDRB     r0,[r0,#0x19]
        0x00003fda:    0200        ..      LSLS     r0,r0,#8
        0x00003fdc:    1987        ..      ADDS     r7,r0,r6
        0x00003fde:    2e00        ..      CMP      r6,#0
        0x00003fe0:    d005        ..      BEQ      0x3fee ; sark_xalloc + 46
        0x00003fe2:    4827        'H      LDR      r0,[pc,#156] ; [0x4080] = 0xe5007fc0
        0x00003fe4:    00ba        ..      LSLS     r2,r7,#2
        0x00003fe6:    69c0        .i      LDR      r0,[r0,#0x1c]
        0x00003fe8:    5880        .X      LDR      r0,[r0,r2]
        0x00003fea:    2800        .(      CMP      r0,#0
        0x00003fec:    d11f        ..      BNE      0x402e ; sark_xalloc + 110
        0x00003fee:    1cc9        ..      ADDS     r1,r1,#3
        0x00003ff0:    0888        ..      LSRS     r0,r1,#2
        0x00003ff2:    0080        ..      LSLS     r0,r0,#2
        0x00003ff4:    3008        .0      ADDS     r0,r0,#8
        0x00003ff6:    9002        ..      STR      r0,[sp,#8]
        0x00003ff8:    07e8        ..      LSLS     r0,r5,#31
        0x00003ffa:    d003        ..      BEQ      0x4004 ; sark_xalloc + 68
        0x00003ffc:    2006        .       MOVS     r0,#6
        0x00003ffe:    f7feec50    ..P.    BLX      sark_lock_get ; 0x28a0
        0x00004002:    4684        .F      MOV      r12,r0
        0x00004004:    9801        ..      LDR      r0,[sp,#4]
        0x00004006:    2200        ."      MOVS     r2,#0
        0x00004008:    6804        .h      LDR      r4,[r0,#0]
        0x0000400a:    e008        ..      B        0x401e ; sark_xalloc + 94
        0x0000400c:    9802        ..      LDR      r0,[sp,#8]
        0x0000400e:    6821        !h      LDR      r1,[r4,#0]
        0x00004010:    1820         .      ADDS     r0,r4,r0
        0x00004012:    42a0        .B      CMP      r0,r4
        0x00004014:    d905        ..      BLS      0x4022 ; sark_xalloc + 98
        0x00004016:    4288        .B      CMP      r0,r1
        0x00004018:    d90c        ..      BLS      0x4034 ; sark_xalloc + 116
        0x0000401a:    0022        ".      MOVS     r2,r4
        0x0000401c:    6864        dh      LDR      r4,[r4,#4]
        0x0000401e:    2c00        .,      CMP      r4,#0
        0x00004020:    d1f4        ..      BNE      0x400c ; sark_xalloc + 76
        0x00004022:    07e8        ..      LSLS     r0,r5,#31
        0x00004024:    d003        ..      BEQ      0x402e ; sark_xalloc + 110
        0x00004026:    2106        .!      MOVS     r1,#6
        0x00004028:    4660        `F      MOV      r0,r12
        0x0000402a:    f7feec4c    ..L.    BLX      sark_lock_free ; 0x28c4
        0x0000402e:    2000        .       MOVS     r0,#0
        0x00004030:    b005        ..      ADD      sp,sp,#0x14
        0x00004032:    bdf0        ..      POP      {r4-r7,pc}
        0x00004034:    0003        ..      MOVS     r3,r0
        0x00004036:    3308        .3      ADDS     r3,r3,#8
        0x00004038:    428b        .B      CMP      r3,r1
        0x0000403a:    d204        ..      BCS      0x4046 ; sark_xalloc + 134
        0x0000403c:    6001        .`      STR      r1,[r0,#0]
        0x0000403e:    6020         `      STR      r0,[r4,#0]
        0x00004040:    6861        ah      LDR      r1,[r4,#4]
        0x00004042:    6041        A`      STR      r1,[r0,#4]
        0x00004044:    6060        ``      STR      r0,[r4,#4]
        0x00004046:    2a00        .*      CMP      r2,#0
        0x00004048:    d002        ..      BEQ      0x4050 ; sark_xalloc + 144
        0x0000404a:    6860        `h      LDR      r0,[r4,#4]
        0x0000404c:    6050        P`      STR      r0,[r2,#4]
        0x0000404e:    e002        ..      B        0x4056 ; sark_xalloc + 150
        0x00004050:    9801        ..      LDR      r0,[sp,#4]
        0x00004052:    6861        ah      LDR      r1,[r4,#4]
        0x00004054:    6001        .`      STR      r1,[r0,#0]
        0x00004056:    07e8        ..      LSLS     r0,r5,#31
        0x00004058:    d003        ..      BEQ      0x4062 ; sark_xalloc + 162
        0x0000405a:    2106        .!      MOVS     r1,#6
        0x0000405c:    4660        `F      MOV      r0,r12
        0x0000405e:    f7feec32    ..2.    BLX      sark_lock_free ; 0x28c4
        0x00004062:    2001        .       MOVS     r0,#1
        0x00004064:    0400        ..      LSLS     r0,r0,#16
        0x00004066:    1a38        8.      SUBS     r0,r7,r0
        0x00004068:    2e00        ..      CMP      r6,#0
        0x0000406a:    6060        ``      STR      r0,[r4,#4]
        0x0000406c:    d005        ..      BEQ      0x407a ; sark_xalloc + 186
        0x0000406e:    4904        .I      LDR      r1,[pc,#16] ; [0x4080] = 0xe5007fc0
        0x00004070:    0020         .      MOVS     r0,r4
        0x00004072:    69c9        .i      LDR      r1,[r1,#0x1c]
        0x00004074:    3008        .0      ADDS     r0,r0,#8
        0x00004076:    00ba        ..      LSLS     r2,r7,#2
        0x00004078:    5088        .P      STR      r0,[r1,r2]
        0x0000407a:    0020         .      MOVS     r0,r4
        0x0000407c:    3008        .0      ADDS     r0,r0,#8
        0x0000407e:    e7d7        ..      B        0x4030 ; sark_xalloc + 112
    $d
        0x00004080:    e5007fc0    ....    DCD    3842015168
    $t
    i.schedule_sysmode
    schedule_sysmode
        0x00004084:    0003        ..      MOVS     r3,r0
        0x00004086:    b4f0        ..      PUSH     {r4-r7}
        0x00004088:    0008        ..      MOVS     r0,r1
        0x0000408a:    4e1a        .N      LDR      r6,[pc,#104] ; [0x40f4] = 0x4009d4
        0x0000408c:    0011        ..      MOVS     r1,r2
        0x0000408e:    00dc        ..      LSLS     r4,r3,#3
        0x00004090:    19a2        ..      ADDS     r2,r4,r6
        0x00004092:    6853        Sh      LDR      r3,[r2,#4]
        0x00004094:    2b00        .+      CMP      r3,#0
        0x00004096:    dc02        ..      BGT      0x409e ; schedule_sysmode + 26
        0x00004098:    5932        2Y      LDR      r2,[r6,r4]
        0x0000409a:    bcf0        ..      POP      {r4-r7}
        0x0000409c:    4710        .G      BX       r2
        0x0000409e:    22c8        ."      MOVS     r2,#0xc8
        0x000040a0:    4353        SC      MULS     r3,r2,r3
        0x000040a2:    4a15        .J      LDR      r2,[pc,#84] ; [0x40f8] = 0x4006b4
        0x000040a4:    189b        ..      ADDS     r3,r3,r2
        0x000040a6:    3bc8        .;      SUBS     r3,r3,#0xc8
        0x000040a8:    685d        ]h      LDR      r5,[r3,#4]
        0x000040aa:    681f        .h      LDR      r7,[r3,#0]
        0x000040ac:    1c6a        j.      ADDS     r2,r5,#1
        0x000040ae:    0712        ..      LSLS     r2,r2,#28
        0x000040b0:    0f12        ..      LSRS     r2,r2,#28
        0x000040b2:    42ba        .B      CMP      r2,r7
        0x000040b4:    d014        ..      BEQ      0x40e0 ; schedule_sysmode + 92
        0x000040b6:    5932        2Y      LDR      r2,[r6,r4]
        0x000040b8:    240c        .$      MOVS     r4,#0xc
        0x000040ba:    4365        eC      MULS     r5,r4,r5
        0x000040bc:    18ec        ..      ADDS     r4,r5,r3
        0x000040be:    60a2        .`      STR      r2,[r4,#8]
        0x000040c0:    685a        Zh      LDR      r2,[r3,#4]
        0x000040c2:    240c        .$      MOVS     r4,#0xc
        0x000040c4:    4362        bC      MULS     r2,r4,r2
        0x000040c6:    18d2        ..      ADDS     r2,r2,r3
        0x000040c8:    60d0        .`      STR      r0,[r2,#0xc]
        0x000040ca:    6858        Xh      LDR      r0,[r3,#4]
        0x000040cc:    4360        `C      MULS     r0,r4,r0
        0x000040ce:    18c0        ..      ADDS     r0,r0,r3
        0x000040d0:    6101        .a      STR      r1,[r0,#0x10]
        0x000040d2:    6858        Xh      LDR      r0,[r3,#4]
        0x000040d4:    1c40        @.      ADDS     r0,r0,#1
        0x000040d6:    0700        ..      LSLS     r0,r0,#28
        0x000040d8:    0f00        ..      LSRS     r0,r0,#28
        0x000040da:    6058        X`      STR      r0,[r3,#4]
        0x000040dc:    bcf0        ..      POP      {r4-r7}
        0x000040de:    4770        pG      BX       lr
        0x000040e0:    4806        .H      LDR      r0,[pc,#24] ; [0x40fc] = 0x400100
        0x000040e2:    2201        ."      MOVS     r2,#1
        0x000040e4:    6d01        .m      LDR      r1,[r0,#0x50]
        0x000040e6:    4311        .C      ORRS     r1,r1,r2
        0x000040e8:    6501        .e      STR      r1,[r0,#0x50]
        0x000040ea:    6d41        Am      LDR      r1,[r0,#0x54]
        0x000040ec:    1c49        I.      ADDS     r1,r1,#1
        0x000040ee:    6541        Ae      STR      r1,[r0,#0x54]
        0x000040f0:    e7f4        ..      B        0x40dc ; schedule_sysmode + 88
    $d
        0x000040f2:    0000        ..      DCW    0
        0x000040f4:    004009d4    ..@.    DCD    4196820
        0x000040f8:    004006b4    ..@.    DCD    4196020
        0x000040fc:    00400100    ..@.    DCD    4194560
    $t
    i.send_mc_packet_fulfil
    send_mc_packet_fulfil
        0x00004100:    2301        .#      MOVS     r3,#1
        0x00004102:    075b        [.      LSLS     r3,r3,#29
        0x00004104:    2a00        .*      CMP      r2,#0
        0x00004106:    d000        ..      BEQ      0x410a ; send_mc_packet_fulfil + 10
        0x00004108:    6059        Y`      STR      r1,[r3,#4]
        0x0000410a:    6098        .`      STR      r0,[r3,#8]
        0x0000410c:    4770        pG      BX       lr
        0x0000410e:    0000        ..      MOVS     r0,r0
    $a
    i.soft_int_fiqsr
    soft_int_fiqsr
        0x00004110:    e92d500f    .P-.    PUSH     {r0-r3,r12,lr}
        0x00004114:    e3a00002    ....    MOV      r0,#2
        0x00004118:    e3a0142f    /...    MOV      r1,#0x2f000000
        0x0000411c:    e581001c    ....    STR      r0,[r1,#0x1c]
        0x00004120:    e59f0028    (...    LDR      r0,[pc,#40] ; [0x4150] = 0x4009d4
        0x00004124:    e5902020      ..    LDR      r2,[r0,#0x20]
        0x00004128:    e59f0024    $...    LDR      r0,[pc,#36] ; [0x4154] = 0x40014c
        0x0000412c:    e5901000    ....    LDR      r1,[r0,#0]
        0x00004130:    e59f0020     ...    LDR      r0,[pc,#32] ; [0x4158] = 0x400148
        0x00004134:    e5900000    ....    LDR      r0,[r0,#0]
        0x00004138:    e12fff32    2./.    BLX      r2
        0x0000413c:    e59f1018    ....    LDR      r1,[pc,#24] ; [0x415c] = 0x400100
        0x00004140:    e3a00000    ....    MOV      r0,#0
        0x00004144:    e5c10000    ....    STRB     r0,[r1,#0]
        0x00004148:    e8bd500f    .P..    POP      {r0-r3,r12,lr}
        0x0000414c:    e25ef004    ..^.    SUBS     pc,lr,#4
    $d
        0x00004150:    004009d4    ..@.    DCD    4196820
        0x00004154:    0040014c    L.@.    DCD    4194636
        0x00004158:    00400148    H.@.    DCD    4194632
        0x0000415c:    00400100    ..@.    DCD    4194560
    $a
    i.soft_int_isr
    soft_int_isr
        0x00004160:    e92d503f    ?P-.    PUSH     {r0-r5,r12,lr}
        0x00004164:    e3a00002    ....    MOV      r0,#2
        0x00004168:    e3a0442f    /D..    MOV      r4,#0x2f000000
        0x0000416c:    e584001c    ....    STR      r0,[r4,#0x1c]
        0x00004170:    e59f1038    8...    LDR      r1,[pc,#56] ; [0x41b0] = 0x400100
        0x00004174:    e3a00000    ....    MOV      r0,#0
        0x00004178:    e5c10000    ....    STRB     r0,[r1,#0]
        0x0000417c:    e59f0030    0...    LDR      r0,[pc,#48] ; [0x41b4] = 0x4009d4
        0x00004180:    e5900020     ...    LDR      r0,[r0,#0x20]
        0x00004184:    e3500000    ..P.    CMP      r0,#0
        0x00004188:    159f0028    (...    LDRNE    r0,[pc,#40] ; [0x41b8] = 0x40014c
        0x0000418c:    15902000    . ..    LDRNE    r2,[r0,#0]
        0x00004190:    159f0024    $...    LDRNE    r0,[pc,#36] ; [0x41bc] = 0x400148
        0x00004194:    15901000    ....    LDRNE    r1,[r0,#0]
        0x00004198:    13a00004    ....    MOVNE    r0,#4
        0x0000419c:    1bfff9da    ....    BLNE     schedule ; 0x290c
        0x000041a0:    e3a00001    ....    MOV      r0,#1
        0x000041a4:    e5840030    0...    STR      r0,[r4,#0x30]
        0x000041a8:    e8bd503f    ?P..    POP      {r0-r5,r12,lr}
        0x000041ac:    e25ef004    ..^.    SUBS     pc,lr,#4
    $d
        0x000041b0:    00400100    ..@.    DCD    4194560
        0x000041b4:    004009d4    ..@.    DCD    4196820
        0x000041b8:    0040014c    L.@.    DCD    4194636
        0x000041bc:    00400148    H.@.    DCD    4194632
    $t
    i.spin1_callback_on
    spin1_callback_on
        0x000041c0:    b5f8        ..      PUSH     {r3-r7,lr}
        0x000041c2:    0013        ..      MOVS     r3,r2
        0x000041c4:    00c2        ..      LSLS     r2,r0,#3
        0x000041c6:    4c0f        .L      LDR      r4,[pc,#60] ; [0x4204] = 0x4009d4
        0x000041c8:    50a1        .P      STR      r1,[r4,r2]
        0x000041ca:    0021        !.      MOVS     r1,r4
        0x000041cc:    1851        Q.      ADDS     r1,r2,r1
        0x000041ce:    2b00        .+      CMP      r3,#0
        0x000041d0:    da16        ..      BGE      0x4200 ; spin1_callback_on + 64
        0x000041d2:    4e0d        .N      LDR      r6,[pc,#52] ; [0x4208] = 0x400100
        0x000041d4:    2501        .%      MOVS     r5,#1
        0x000041d6:    6b32        2k      LDR      r2,[r6,#0x30]
        0x000041d8:    002c        ,.      MOVS     r4,r5
        0x000041da:    1c57        W.      ADDS     r7,r2,#1
        0x000041dc:    d000        ..      BEQ      0x41e0 ; spin1_callback_on + 32
        0x000041de:    2400        .$      MOVS     r4,#0
        0x000041e0:    4282        .B      CMP      r2,r0
        0x000041e2:    d000        ..      BEQ      0x41e6 ; spin1_callback_on + 38
        0x000041e4:    2500        .%      MOVS     r5,#0
        0x000041e6:    432c        ,C      ORRS     r4,r4,r5
        0x000041e8:    d002        ..      BEQ      0x41f0 ; spin1_callback_on + 48
        0x000041ea:    604b        K`      STR      r3,[r1,#4]
        0x000041ec:    6330        0c      STR      r0,[r6,#0x30]
        0x000041ee:    bdf8        ..      POP      {r3-r7,pc}
        0x000041f0:    2300        .#      MOVS     r3,#0
        0x000041f2:    604b        K`      STR      r3,[r1,#4]
        0x000041f4:    0003        ..      MOVS     r3,r0
        0x000041f6:    2000        .       MOVS     r0,#0
        0x000041f8:    a104        ..      ADR      r1,{pc}+0x14 ; 0x420c
        0x000041fa:    f7fff85d    ..].    BL       io_printf ; 0x32b8
        0x000041fe:    bdf8        ..      POP      {r3-r7,pc}
        0x00004200:    604b        K`      STR      r3,[r1,#4]
        0x00004202:    bdf8        ..      POP      {r3-r7,pc}
    $d
        0x00004204:    004009d4    ..@.    DCD    4196820
        0x00004208:    00400100    ..@.    DCD    4194560
        0x0000420c:    615b0909    ..[a    DCD    1633356041
        0x00004210:    775f6970    pi_w    DCD    2002741616
        0x00004214:    5d6e7261    arn]    DCD    1567519329
        0x00004218:    72617720     war    DCD    1918990112
        0x0000421c:    676e696e    ning    DCD    1735289198
        0x00004220:    6f74203a    : to    DCD    1869881402
        0x00004224:    616d206f    o ma    DCD    1634541679
        0x00004228:    4620796e    ny F    DCD    1176533358
        0x0000422c:    65205149    IQ e    DCD    1696616777
        0x00004230:    746e6576    vent    DCD    1953391990
        0x00004234:    25282073    s (%    DCD    623386739
        0x00004238:    64252064    d %d    DCD    1680154724
        0x0000423c:    00000a29    )...    DCD    2601
    $t
    i.spin1_delay_us
    spin1_delay_us
        0x00004240:    b510        ..      PUSH     {r4,lr}
        0x00004242:    f7fefae3    ....    BL       sark_delay_us ; 0x280c
        0x00004246:    bd10        ..      POP      {r4,pc}
    i.spin1_get_chip_id
    spin1_get_chip_id
        0x00004248:    4801        .H      LDR      r0,[pc,#4] ; [0x4250] = 0xe5007f00
        0x0000424a:    8800        ..      LDRH     r0,[r0,#0]
        0x0000424c:    4770        pG      BX       lr
    $d
        0x0000424e:    0000        ..      DCW    0
        0x00004250:    e5007f00    ....    DCD    3842014976
    $t
    i.spin1_get_core_id
    spin1_get_core_id
        0x00004254:    4801        .H      LDR      r0,[pc,#4] ; [0x425c] = 0x4003d0
        0x00004256:    6800        .h      LDR      r0,[r0,#0]
        0x00004258:    4770        pG      BX       lr
    $d
        0x0000425a:    0000        ..      DCW    0
        0x0000425c:    004003d0    ..@.    DCD    4195280
    $a
    $Ven$AT$I$$spin1_kill
        0x00004260:    e28fc001    ....    ADR      r12,{pc}+9 ; 0x4269
        0x00004264:    e12fff1c    ../.    BX       r12
    $t
    i.spin1_kill
    spin1_kill
        0x00004268:    b510        ..      PUSH     {r4,lr}
        0x0000426a:    0004        ..      MOVS     r4,r0
        0x0000426c:    212f        /!      MOVS     r1,#0x2f
        0x0000426e:    4805        .H      LDR      r0,[pc,#20] ; [0x4284] = 0x3052
        0x00004270:    0609        ..      LSLS     r1,r1,#24
        0x00004272:    6148        Ha      STR      r0,[r1,#0x14]
        0x00004274:    200c        .       MOVS     r0,#0xc
        0x00004276:    f7fffd05    ....    BL       sark_led_set ; 0x3c84
        0x0000427a:    4803        .H      LDR      r0,[pc,#12] ; [0x4288] = 0x400100
        0x0000427c:    6244        Db      STR      r4,[r0,#0x24]
        0x0000427e:    2100        .!      MOVS     r1,#0
        0x00004280:    60c1        .`      STR      r1,[r0,#0xc]
        0x00004282:    bd10        ..      POP      {r4,pc}
    $d
        0x00004284:    00003052    R0..    DCD    12370
        0x00004288:    00400100    ..@.    DCD    4194560
    $t
    i.spin1_malloc
    spin1_malloc
        0x0000428c:    2101        .!      MOVS     r1,#1
        0x0000428e:    b510        ..      PUSH     {r4,lr}
        0x00004290:    f7fffb2a    ..*.    BL       sark_alloc ; 0x38e8
        0x00004294:    bd10        ..      POP      {r4,pc}
    i.spin1_memcpy
    spin1_memcpy
        0x00004296:    e003        ..      B        0x42a0 ; spin1_memcpy + 10
        0x00004298:    780b        .x      LDRB     r3,[r1,#0]
        0x0000429a:    1c49        I.      ADDS     r1,r1,#1
        0x0000429c:    7003        .p      STRB     r3,[r0,#0]
        0x0000429e:    1c40        @.      ADDS     r0,r0,#1
        0x000042a0:    1e52        R.      SUBS     r2,r2,#1
        0x000042a2:    d2f9        ..      BCS      0x4298 ; spin1_memcpy + 2
        0x000042a4:    4770        pG      BX       lr
        0x000042a6:    0000        ..      MOVS     r0,r0
    $a
    $Ven$AT$I$$spin1_schedule_callback
        0x000042a8:    e28fc001    ....    ADR      r12,{pc}+9 ; 0x42b1
        0x000042ac:    e12fff1c    ../.    BX       r12
    $t
    i.spin1_schedule_callback
    spin1_schedule_callback
        0x000042b0:    b5ff        ..      PUSH     {r0-r7,lr}
        0x000042b2:    b081        ..      SUB      sp,sp,#4
        0x000042b4:    2401        .$      MOVS     r4,#1
        0x000042b6:    0005        ..      MOVS     r5,r0
        0x000042b8:    000e        ..      MOVS     r6,r1
        0x000042ba:    001f        ..      MOVS     r7,r3
        0x000042bc:    f7feeae0    ....    BLX      cpu_irq_disable ; 0x2880
        0x000042c0:    21c8        .!      MOVS     r1,#0xc8
        0x000042c2:    434f        OC      MULS     r7,r1,r7
        0x000042c4:    4915        .I      LDR      r1,[pc,#84] ; [0x431c] = 0x4006b4
        0x000042c6:    1879        y.      ADDS     r1,r7,r1
        0x000042c8:    39c8        .9      SUBS     r1,r1,#0xc8
        0x000042ca:    684a        Jh      LDR      r2,[r1,#4]
        0x000042cc:    680f        .h      LDR      r7,[r1,#0]
        0x000042ce:    1c53        S.      ADDS     r3,r2,#1
        0x000042d0:    071b        ..      LSLS     r3,r3,#28
        0x000042d2:    0f1b        ..      LSRS     r3,r3,#28
        0x000042d4:    42bb        .B      CMP      r3,r7
        0x000042d6:    d013        ..      BEQ      0x4300 ; spin1_schedule_callback + 80
        0x000042d8:    230c        .#      MOVS     r3,#0xc
        0x000042da:    435a        ZC      MULS     r2,r3,r2
        0x000042dc:    1852        R.      ADDS     r2,r2,r1
        0x000042de:    6095        .`      STR      r5,[r2,#8]
        0x000042e0:    684a        Jh      LDR      r2,[r1,#4]
        0x000042e2:    250c        .%      MOVS     r5,#0xc
        0x000042e4:    435a        ZC      MULS     r2,r3,r2
        0x000042e6:    1852        R.      ADDS     r2,r2,r1
        0x000042e8:    60d6        .`      STR      r6,[r2,#0xc]
        0x000042ea:    684a        Jh      LDR      r2,[r1,#4]
        0x000042ec:    9b03        ..      LDR      r3,[sp,#0xc]
        0x000042ee:    436a        jC      MULS     r2,r5,r2
        0x000042f0:    1852        R.      ADDS     r2,r2,r1
        0x000042f2:    6113        .a      STR      r3,[r2,#0x10]
        0x000042f4:    684a        Jh      LDR      r2,[r1,#4]
        0x000042f6:    1c52        R.      ADDS     r2,r2,#1
        0x000042f8:    0712        ..      LSLS     r2,r2,#28
        0x000042fa:    0f12        ..      LSRS     r2,r2,#28
        0x000042fc:    604a        J`      STR      r2,[r1,#4]
        0x000042fe:    e008        ..      B        0x4312 ; spin1_schedule_callback + 98
        0x00004300:    4907        .I      LDR      r1,[pc,#28] ; [0x4320] = 0x400100
        0x00004302:    2301        .#      MOVS     r3,#1
        0x00004304:    6d0a        .m      LDR      r2,[r1,#0x50]
        0x00004306:    2400        .$      MOVS     r4,#0
        0x00004308:    431a        .C      ORRS     r2,r2,r3
        0x0000430a:    650a        .e      STR      r2,[r1,#0x50]
        0x0000430c:    6d4a        Jm      LDR      r2,[r1,#0x54]
        0x0000430e:    1c52        R.      ADDS     r2,r2,#1
        0x00004310:    654a        Je      STR      r2,[r1,#0x54]
        0x00004312:    f7feeab2    ....    BLX      cpu_int_restore ; 0x2878
        0x00004316:    0020         .      MOVS     r0,r4
        0x00004318:    b005        ..      ADD      sp,sp,#0x14
        0x0000431a:    bdf0        ..      POP      {r4-r7,pc}
    $d
        0x0000431c:    004006b4    ..@.    DCD    4196020
        0x00004320:    00400100    ..@.    DCD    4194560
    $t
    i.spin1_send_mc_packet
    spin1_send_mc_packet
        0x00004324:    b5fe        ..      PUSH     {r1-r7,lr}
        0x00004326:    0004        ..      MOVS     r4,r0
        0x00004328:    2001        .       MOVS     r0,#1
        0x0000432a:    000d        ..      MOVS     r5,r1
        0x0000432c:    0016        ..      MOVS     r6,r2
        0x0000432e:    9001        ..      STR      r0,[sp,#4]
        0x00004330:    f7feeaa6    ....    BLX      cpu_irq_disable ; 0x2880
        0x00004334:    9000        ..      STR      r0,[sp,#0]
        0x00004336:    2100        .!      MOVS     r1,#0
        0x00004338:    2001        .       MOVS     r0,#1
        0x0000433a:    0740        @.      LSLS     r0,r0,#29
        0x0000433c:    6001        .`      STR      r1,[r0,#0]
        0x0000433e:    6801        .h      LDR      r1,[r0,#0]
        0x00004340:    004a        J.      LSLS     r2,r1,#1
        0x00004342:    4936        6I      LDR      r1,[pc,#216] ; [0x441c] = 0x4005ec
        0x00004344:    d528        (.      BPL      0x4398 ; spin1_send_mc_packet + 116
        0x00004346:    6848        Hh      LDR      r0,[r1,#4]
        0x00004348:    680b        .h      LDR      r3,[r1,#0]
        0x0000434a:    1c42        B.      ADDS     r2,r0,#1
        0x0000434c:    0712        ..      LSLS     r2,r2,#28
        0x0000434e:    0f12        ..      LSRS     r2,r2,#28
        0x00004350:    429a        .B      CMP      r2,r3
        0x00004352:    d10a        ..      BNE      0x436a ; spin1_send_mc_packet + 70
        0x00004354:    2000        .       MOVS     r0,#0
        0x00004356:    9001        ..      STR      r0,[sp,#4]
        0x00004358:    4831        1H      LDR      r0,[pc,#196] ; [0x4420] = 0x400100
        0x0000435a:    2204        ."      MOVS     r2,#4
        0x0000435c:    6d01        .m      LDR      r1,[r0,#0x50]
        0x0000435e:    4311        .C      ORRS     r1,r1,r2
        0x00004360:    6501        .e      STR      r1,[r0,#0x50]
        0x00004362:    6d81        .m      LDR      r1,[r0,#0x58]
        0x00004364:    1c49        I.      ADDS     r1,r1,#1
        0x00004366:    6581        .e      STR      r1,[r0,#0x58]
        0x00004368:    e052        R.      B        0x4410 ; spin1_send_mc_packet + 236
        0x0000436a:    220c        ."      MOVS     r2,#0xc
        0x0000436c:    4350        PC      MULS     r0,r2,r0
        0x0000436e:    1840        @.      ADDS     r0,r0,r1
        0x00004370:    6084        .`      STR      r4,[r0,#8]
        0x00004372:    6848        Hh      LDR      r0,[r1,#4]
        0x00004374:    4350        PC      MULS     r0,r2,r0
        0x00004376:    1840        @.      ADDS     r0,r0,r1
        0x00004378:    60c5        .`      STR      r5,[r0,#0xc]
        0x0000437a:    6848        Hh      LDR      r0,[r1,#4]
        0x0000437c:    4350        PC      MULS     r0,r2,r0
        0x0000437e:    1840        @.      ADDS     r0,r0,r1
        0x00004380:    6106        .a      STR      r6,[r0,#0x10]
        0x00004382:    6848        Hh      LDR      r0,[r1,#4]
        0x00004384:    1c40        @.      ADDS     r0,r0,#1
        0x00004386:    0700        ..      LSLS     r0,r0,#28
        0x00004388:    0f00        ..      LSRS     r0,r0,#28
        0x0000438a:    6048        H`      STR      r0,[r1,#4]
        0x0000438c:    2001        .       MOVS     r0,#1
        0x0000438e:    02c0        ..      LSLS     r0,r0,#11
        0x00004390:    212f        /!      MOVS     r1,#0x2f
        0x00004392:    0609        ..      LSLS     r1,r1,#24
        0x00004394:    6108        .a      STR      r0,[r1,#0x10]
        0x00004396:    e03b        ;.      B        0x4410 ; spin1_send_mc_packet + 236
        0x00004398:    4b20         K      LDR      r3,[pc,#128] ; [0x441c] = 0x4005ec
        0x0000439a:    6859        Yh      LDR      r1,[r3,#4]
        0x0000439c:    681b        .h      LDR      r3,[r3,#0]
        0x0000439e:    1c4a        J.      ADDS     r2,r1,#1
        0x000043a0:    0712        ..      LSLS     r2,r2,#28
        0x000043a2:    0f12        ..      LSRS     r2,r2,#28
        0x000043a4:    429a        .B      CMP      r2,r3
        0x000043a6:    d113        ..      BNE      0x43d0 ; spin1_send_mc_packet + 172
        0x000043a8:    220c        ."      MOVS     r2,#0xc
        0x000043aa:    435a        ZC      MULS     r2,r3,r2
        0x000043ac:    4f1b        .O      LDR      r7,[pc,#108] ; [0x441c] = 0x4005ec
        0x000043ae:    1c5b        [.      ADDS     r3,r3,#1
        0x000043b0:    19d2        ..      ADDS     r2,r2,r7
        0x000043b2:    6897        .h      LDR      r7,[r2,#8]
        0x000043b4:    071b        ..      LSLS     r3,r3,#28
        0x000043b6:    46be        .F      MOV      lr,r7
        0x000043b8:    68d7        .h      LDR      r7,[r2,#0xc]
        0x000043ba:    6912        .i      LDR      r2,[r2,#0x10]
        0x000043bc:    46bc        .F      MOV      r12,r7
        0x000043be:    4f17        .O      LDR      r7,[pc,#92] ; [0x441c] = 0x4005ec
        0x000043c0:    0f1b        ..      LSRS     r3,r3,#28
        0x000043c2:    2a00        .*      CMP      r2,#0
        0x000043c4:    603b        ;`      STR      r3,[r7,#0]
        0x000043c6:    d001        ..      BEQ      0x43cc ; spin1_send_mc_packet + 168
        0x000043c8:    4662        bF      MOV      r2,r12
        0x000043ca:    6042        B`      STR      r2,[r0,#4]
        0x000043cc:    4672        rF      MOV      r2,lr
        0x000043ce:    6082        .`      STR      r2,[r0,#8]
        0x000043d0:    4a12        .J      LDR      r2,[pc,#72] ; [0x441c] = 0x4005ec
        0x000043d2:    6813        .h      LDR      r3,[r2,#0]
        0x000043d4:    428b        .B      CMP      r3,r1
        0x000043d6:    d109        ..      BNE      0x43ec ; spin1_send_mc_packet + 200
        0x000043d8:    2e00        ..      CMP      r6,#0
        0x000043da:    d000        ..      BEQ      0x43de ; spin1_send_mc_packet + 186
        0x000043dc:    6045        E`      STR      r5,[r0,#4]
        0x000043de:    6084        .`      STR      r4,[r0,#8]
        0x000043e0:    2001        .       MOVS     r0,#1
        0x000043e2:    02c0        ..      LSLS     r0,r0,#11
        0x000043e4:    212f        /!      MOVS     r1,#0x2f
        0x000043e6:    0609        ..      LSLS     r1,r1,#24
        0x000043e8:    6148        Ha      STR      r0,[r1,#0x14]
        0x000043ea:    e011        ..      B        0x4410 ; spin1_send_mc_packet + 236
        0x000043ec:    200c        .       MOVS     r0,#0xc
        0x000043ee:    4341        AC      MULS     r1,r0,r1
        0x000043f0:    1888        ..      ADDS     r0,r1,r2
        0x000043f2:    6084        .`      STR      r4,[r0,#8]
        0x000043f4:    6850        Ph      LDR      r0,[r2,#4]
        0x000043f6:    210c        .!      MOVS     r1,#0xc
        0x000043f8:    4348        HC      MULS     r0,r1,r0
        0x000043fa:    1880        ..      ADDS     r0,r0,r2
        0x000043fc:    60c5        .`      STR      r5,[r0,#0xc]
        0x000043fe:    6850        Ph      LDR      r0,[r2,#4]
        0x00004400:    4348        HC      MULS     r0,r1,r0
        0x00004402:    1880        ..      ADDS     r0,r0,r2
        0x00004404:    6106        .a      STR      r6,[r0,#0x10]
        0x00004406:    6850        Ph      LDR      r0,[r2,#4]
        0x00004408:    1c40        @.      ADDS     r0,r0,#1
        0x0000440a:    0700        ..      LSLS     r0,r0,#28
        0x0000440c:    0f00        ..      LSRS     r0,r0,#28
        0x0000440e:    6050        P`      STR      r0,[r2,#4]
        0x00004410:    9800        ..      LDR      r0,[sp,#0]
        0x00004412:    f7feea32    ..2.    BLX      cpu_int_restore ; 0x2878
        0x00004416:    9801        ..      LDR      r0,[sp,#4]
        0x00004418:    bdfe        ..      POP      {r1-r7,pc}
    $d
        0x0000441a:    0000        ..      DCW    0
        0x0000441c:    004005ec    ..@.    DCD    4195820
        0x00004420:    00400100    ..@.    DCD    4194560
    $t
    i.spin1_send_sdp_msg
    spin1_send_sdp_msg
        0x00004424:    b510        ..      PUSH     {r4,lr}
        0x00004426:    f7fffc81    ....    BL       sark_msg_send ; 0x3d2c
        0x0000442a:    bd10        ..      POP      {r4,pc}
    i.spin1_set_core_map
    spin1_set_core_map
        0x0000442c:    b5f8        ..      PUSH     {r3-r7,lr}
        0x0000442e:    2500        .%      MOVS     r5,#0
        0x00004430:    0002        ..      MOVS     r2,r0
        0x00004432:    002c        ,.      MOVS     r4,r5
        0x00004434:    468c        .F      MOV      r12,r1
        0x00004436:    2101        .!      MOVS     r1,#1
        0x00004438:    e00f        ..      B        0x445a ; spin1_set_core_map + 46
        0x0000443a:    00a3        ..      LSLS     r3,r4,#2
        0x0000443c:    4660        `F      MOV      r0,r12
        0x0000443e:    58c7        .X      LDR      r7,[r0,r3]
        0x00004440:    481b        .H      LDR      r0,[pc,#108] ; [0x44b0] = 0xe5007fa0
        0x00004442:    2301        .#      MOVS     r3,#1
        0x00004444:    7f00        ..      LDRB     r0,[r0,#0x1c]
        0x00004446:    e005        ..      B        0x4454 ; spin1_set_core_map + 40
        0x00004448:    000e        ..      MOVS     r6,r1
        0x0000444a:    409e        .@      LSLS     r6,r6,r3
        0x0000444c:    423e        >B      TST      r6,r7
        0x0000444e:    d000        ..      BEQ      0x4452 ; spin1_set_core_map + 38
        0x00004450:    1c6d        m.      ADDS     r5,r5,#1
        0x00004452:    1c5b        [.      ADDS     r3,r3,#1
        0x00004454:    4298        .B      CMP      r0,r3
        0x00004456:    d8f7        ..      BHI      0x4448 ; spin1_set_core_map + 28
        0x00004458:    1c64        d.      ADDS     r4,r4,#1
        0x0000445a:    4294        .B      CMP      r4,r2
        0x0000445c:    d3ed        ..      BCC      0x443a ; spin1_set_core_map + 14
        0x0000445e:    4e15        .N      LDR      r6,[pc,#84] ; [0x44b4] = 0x400100
        0x00004460:    61f5        .a      STR      r5,[r6,#0x1c]
        0x00004462:    69f0        .i      LDR      r0,[r6,#0x1c]
        0x00004464:    2801        .(      CMP      r0,#1
        0x00004466:    d921        !.      BLS      0x44ac ; spin1_set_core_map + 128
        0x00004468:    7870        px      LDRB     r0,[r6,#1]
        0x0000446a:    2800        .(      CMP      r0,#0
        0x0000446c:    d01e        ..      BEQ      0x44ac ; spin1_set_core_map + 128
        0x0000446e:    2400        .$      MOVS     r4,#0
        0x00004470:    2301        .#      MOVS     r3,#1
        0x00004472:    0020         .      MOVS     r0,r4
        0x00004474:    07df        ..      LSLS     r7,r3,#31
        0x00004476:    003d        =.      MOVS     r5,r7
        0x00004478:    40c5        .@      LSRS     r5,r5,r0
        0x0000447a:    4215        .B      TST      r5,r2
        0x0000447c:    d005        ..      BEQ      0x448a ; spin1_set_core_map + 94
        0x0000447e:    221f        ."      MOVS     r2,#0x1f
        0x00004480:    1a10        ..      SUBS     r0,r2,r0
        0x00004482:    0844        D.      LSRS     r4,r0,#1
        0x00004484:    40a1        .@      LSLS     r1,r1,r4
        0x00004486:    000b        ..      MOVS     r3,r1
        0x00004488:    e002        ..      B        0x4490 ; spin1_set_core_map + 100
        0x0000448a:    1c40        @.      ADDS     r0,r0,#1
        0x0000448c:    2820         (      CMP      r0,#0x20
        0x0000448e:    d3f2        ..      BCC      0x4476 ; spin1_set_core_map + 74
        0x00004490:    4807        .H      LDR      r0,[pc,#28] ; [0x44b0] = 0xe5007fa0
        0x00004492:    4662        bF      MOV      r2,r12
        0x00004494:    38a0        .8      SUBS     r0,r0,#0xa0
        0x00004496:    8800        ..      LDRH     r0,[r0,#0]
        0x00004498:    0a01        ..      LSRS     r1,r0,#8
        0x0000449a:    0600        ..      LSLS     r0,r0,#24
        0x0000449c:    0e00        ..      LSRS     r0,r0,#24
        0x0000449e:    40a1        .@      LSLS     r1,r1,r4
        0x000044a0:    4301        .C      ORRS     r1,r1,r0
        0x000044a2:    60b1        .`      STR      r1,[r6,#8]
        0x000044a4:    0019        ..      MOVS     r1,r3
        0x000044a6:    0018        ..      MOVS     r0,r3
        0x000044a8:    f7fefaf6    ....    BL       barrier_setup ; 0x2a98
        0x000044ac:    bdf8        ..      POP      {r3-r7,pc}
    $d
        0x000044ae:    0000        ..      DCW    0
        0x000044b0:    e5007fa0    ....    DCD    3842015136
        0x000044b4:    00400100    ..@.    DCD    4194560
    $t
    i.spin1_set_timer_tick
    spin1_set_timer_tick
        0x000044b8:    4901        .I      LDR      r1,[pc,#4] ; [0x44c0] = 0x400100
        0x000044ba:    6148        Ha      STR      r0,[r1,#0x14]
        0x000044bc:    4770        pG      BX       lr
    $d
        0x000044be:    0000        ..      DCW    0
        0x000044c0:    00400100    ..@.    DCD    4194560
    $t
    i.spin1_start
    spin1_start
        0x000044c4:    b5f8        ..      PUSH     {r3-r7,lr}
        0x000044c6:    2105        .!      MOVS     r1,#5
        0x000044c8:    2400        .$      MOVS     r4,#0
        0x000044ca:    4828        (H      LDR      r0,[pc,#160] ; [0x456c] = 0x4003d0
        0x000044cc:    69c0        .i      LDR      r0,[r0,#0x1c]
        0x000044ce:    3020         0      ADDS     r0,r0,#0x20
        0x000044d0:    7381        .s      STRB     r1,[r0,#0xe]
        0x000044d2:    2001        .       MOVS     r0,#1
        0x000044d4:    0740        @.      LSLS     r0,r0,#29
        0x000044d6:    6004        .`      STR      r4,[r0,#0]
        0x000044d8:    213f        ?!      MOVS     r1,#0x3f
        0x000044da:    0040        @.      LSLS     r0,r0,#1
        0x000044dc:    6101        .a      STR      r1,[r0,#0x10]
        0x000044de:    210d        .!      MOVS     r1,#0xd
        0x000044e0:    6101        .a      STR      r1,[r0,#0x10]
        0x000044e2:    2103        .!      MOVS     r1,#3
        0x000044e4:    0289        ..      LSLS     r1,r1,#10
        0x000044e6:    6181        .a      STR      r1,[r0,#0x18]
        0x000044e8:    4d21        !M      LDR      r5,[pc,#132] ; [0x4570] = 0x400100
        0x000044ea:    6968        hi      LDR      r0,[r5,#0x14]
        0x000044ec:    2621        !&      MOVS     r6,#0x21
        0x000044ee:    0636        6.      LSLS     r6,r6,#24
        0x000044f0:    60b4        .`      STR      r4,[r6,#8]
        0x000044f2:    2701        .'      MOVS     r7,#1
        0x000044f4:    60f7        .`      STR      r7,[r6,#0xc]
        0x000044f6:    491f        .I      LDR      r1,[pc,#124] ; [0x4574] = 0xe5007f20
        0x000044f8:    8889        ..      LDRH     r1,[r1,#4]
        0x000044fa:    4341        AC      MULS     r1,r0,r1
        0x000044fc:    6031        1`      STR      r1,[r6,#0]
        0x000044fe:    61b1        .a      STR      r1,[r6,#0x18]
        0x00004500:    f7fefd4c    ..L.    BL       configure_vic ; 0x2f9c
        0x00004504:    652c        ,e      STR      r4,[r5,#0x50]
        0x00004506:    65ec        .e      STR      r4,[r5,#0x5c]
        0x00004508:    656c        le      STR      r4,[r5,#0x54]
        0x0000450a:    65ac        .e      STR      r4,[r5,#0x58]
        0x0000450c:    69e8        .i      LDR      r0,[r5,#0x1c]
        0x0000450e:    2801        .(      CMP      r0,#1
        0x00004510:    d902        ..      BLS      0x4518 ; spin1_start + 84
        0x00004512:    f7fefb63    ..c.    BL       barrier_wait ; 0x2bdc
        0x00004516:    e00d        ..      B        0x4534 ; spin1_start + 112
        0x00004518:    4817        .H      LDR      r0,[pc,#92] ; [0x4578] = 0x4009d4
        0x0000451a:    6840        @h      LDR      r0,[r0,#4]
        0x0000451c:    2800        .(      CMP      r0,#0
        0x0000451e:    da06        ..      BGE      0x452e ; spin1_start + 106
        0x00004520:    202f        /       MOVS     r0,#0x2f
        0x00004522:    0600        ..      LSLS     r0,r0,#24
        0x00004524:    68c1        .h      LDR      r1,[r0,#0xc]
        0x00004526:    2240        @"      MOVS     r2,#0x40
        0x00004528:    4311        .C      ORRS     r1,r1,r2
        0x0000452a:    60c1        .`      STR      r1,[r0,#0xc]
        0x0000452c:    e002        ..      B        0x4534 ; spin1_start + 112
        0x0000452e:    4914        .I      LDR      r1,[pc,#80] ; [0x4580] = 0x2f000100
        0x00004530:    4812        .H      LDR      r0,[pc,#72] ; [0x457c] = 0x2e88
        0x00004532:    60c8        .`      STR      r0,[r1,#0xc]
        0x00004534:    6968        hi      LDR      r0,[r5,#0x14]
        0x00004536:    2800        .(      CMP      r0,#0
        0x00004538:    d001        ..      BEQ      0x453e ; spin1_start + 122
        0x0000453a:    20e2        .       MOVS     r0,#0xe2
        0x0000453c:    60b0        .`      STR      r0,[r6,#8]
        0x0000453e:    612c        ,a      STR      r4,[r5,#0x10]
        0x00004540:    60ef        .`      STR      r7,[r5,#0xc]
        0x00004542:    f7fefd7f    ....    BL       dispatch ; 0x3044
        0x00004546:    f7fefcfb    ....    BL       clean_up ; 0x2f40
        0x0000454a:    f7fee9a2    ....    BLX      cpu_irq_enable ; 0x2890
        0x0000454e:    490d        .I      LDR      r1,[pc,#52] ; [0x4584] = 0x2710
        0x00004550:    68a8        .h      LDR      r0,[r5,#8]
        0x00004552:    4348        HC      MULS     r0,r1,r0
        0x00004554:    f7fef95a    ..Z.    BL       sark_delay_us ; 0x280c
        0x00004558:    f7fff8c6    ....    BL       report_warns ; 0x36e8
        0x0000455c:    4803        .H      LDR      r0,[pc,#12] ; [0x456c] = 0x4003d0
        0x0000455e:    2108        .!      MOVS     r1,#8
        0x00004560:    69c0        .i      LDR      r0,[r0,#0x1c]
        0x00004562:    3020         0      ADDS     r0,r0,#0x20
        0x00004564:    7381        .s      STRB     r1,[r0,#0xe]
        0x00004566:    6a68        hj      LDR      r0,[r5,#0x24]
        0x00004568:    bdf8        ..      POP      {r3-r7,pc}
    $d
        0x0000456a:    0000        ..      DCW    0
        0x0000456c:    004003d0    ..@.    DCD    4195280
        0x00004570:    00400100    ..@.    DCD    4194560
        0x00004574:    e5007f20     ...    DCD    3842015008
        0x00004578:    004009d4    ..@.    DCD    4196820
        0x0000457c:    00002e88    ....    DCD    11912
        0x00004580:    2f000100    .../    DCD    788529408
        0x00004584:    00002710    .'..    DCD    10000
    $a
    $Ven$AT$I$$spin1_stop
        0x00004588:    e28fc001    ....    ADR      r12,{pc}+9 ; 0x4591
        0x0000458c:    e12fff1c    ../.    BX       r12
    $t
    i.spin1_stop
    spin1_stop
        0x00004590:    212f        /!      MOVS     r1,#0x2f
        0x00004592:    4804        .H      LDR      r0,[pc,#16] ; [0x45a4] = 0x3052
        0x00004594:    0609        ..      LSLS     r1,r1,#24
        0x00004596:    6148        Ha      STR      r0,[r1,#0x14]
        0x00004598:    4903        .I      LDR      r1,[pc,#12] ; [0x45a8] = 0x400100
        0x0000459a:    2000        .       MOVS     r0,#0
        0x0000459c:    6248        Hb      STR      r0,[r1,#0x24]
        0x0000459e:    60c8        .`      STR      r0,[r1,#0xc]
        0x000045a0:    4770        pG      BX       lr
    $d
        0x000045a2:    0000        ..      DCW    0
        0x000045a4:    00003052    R0..    DCD    12370
        0x000045a8:    00400100    ..@.    DCD    4194560
    $a
    i.timer1_fiqsr
    timer1_fiqsr
        0x000045ac:    e92d500f    .P-.    PUSH     {r0-r3,r12,lr}
        0x000045b0:    e3a00001    ....    MOV      r0,#1
        0x000045b4:    e3a01421    !...    MOV      r1,#0x21000000
        0x000045b8:    e581000c    ....    STR      r0,[r1,#0xc]
        0x000045bc:    e59f0024    $...    LDR      r0,[pc,#36] ; [0x45e8] = 0x400110
        0x000045c0:    e5901000    ....    LDR      r1,[r0,#0]
        0x000045c4:    e2811001    ....    ADD      r1,r1,#1
        0x000045c8:    e5801000    ....    STR      r1,[r0,#0]
        0x000045cc:    e59f1018    ....    LDR      r1,[pc,#24] ; [0x45ec] = 0x4009d4
        0x000045d0:    e5900000    ....    LDR      r0,[r0,#0]
        0x000045d4:    e5912010    . ..    LDR      r2,[r1,#0x10]
        0x000045d8:    e3a01000    ....    MOV      r1,#0
        0x000045dc:    e12fff32    2./.    BLX      r2
        0x000045e0:    e8bd500f    .P..    POP      {r0-r3,r12,lr}
        0x000045e4:    e25ef004    ..^.    SUBS     pc,lr,#4
    $d
        0x000045e8:    00400110    ..@.    DCD    4194576
        0x000045ec:    004009d4    ..@.    DCD    4196820
    $a
    i.timer1_isr
    timer1_isr
        0x000045f0:    e92d503f    ?P-.    PUSH     {r0-r5,r12,lr}
        0x000045f4:    e3a00421    !...    MOV      r0,#0x21000000
        0x000045f8:    e3a04001    .@..    MOV      r4,#1
        0x000045fc:    e580400c    .@..    STR      r4,[r0,#0xc]
        0x00004600:    e59f0034    4...    LDR      r0,[pc,#52] ; [0x463c] = 0x400110
        0x00004604:    e5901000    ....    LDR      r1,[r0,#0]
        0x00004608:    e2811001    ....    ADD      r1,r1,#1
        0x0000460c:    e5801000    ....    STR      r1,[r0,#0]
        0x00004610:    e59f1028    (...    LDR      r1,[pc,#40] ; [0x4640] = 0x4009d4
        0x00004614:    e5911010    ....    LDR      r1,[r1,#0x10]
        0x00004618:    e3510000    ..Q.    CMP      r1,#0
        0x0000461c:    15901000    ....    LDRNE    r1,[r0,#0]
        0x00004620:    13a02000    . ..    MOVNE    r2,#0
        0x00004624:    13a00002    ....    MOVNE    r0,#2
        0x00004628:    1bfff8b7    ....    BLNE     schedule ; 0x290c
        0x0000462c:    e3a0042f    /...    MOV      r0,#0x2f000000
        0x00004630:    e5804030    0@..    STR      r4,[r0,#0x30]
        0x00004634:    e8bd503f    ?P..    POP      {r0-r5,r12,lr}
        0x00004638:    e25ef004    ..^.    SUBS     pc,lr,#4
    $d
        0x0000463c:    00400110    ..@.    DCD    4194576
        0x00004640:    004009d4    ..@.    DCD    4196820
    $t
    i.v2p_mask
    v2p_mask
        0x00004644:    0002        ..      MOVS     r2,r0
        0x00004646:    b570        p.      PUSH     {r4-r6,lr}
        0x00004648:    2000        .       MOVS     r0,#0
        0x0000464a:    4c08        .L      LDR      r4,[pc,#32] ; [0x466c] = 0xe5007fa0
        0x0000464c:    0001        ..      MOVS     r1,r0
        0x0000464e:    2301        .#      MOVS     r3,#1
        0x00004650:    001d        ..      MOVS     r5,r3
        0x00004652:    408d        .@      LSLS     r5,r5,r1
        0x00004654:    4215        .B      TST      r5,r2
        0x00004656:    d004        ..      BEQ      0x4662 ; v2p_mask + 30
        0x00004658:    190d        ..      ADDS     r5,r1,r4
        0x0000465a:    7a2d        -z      LDRB     r5,[r5,#8]
        0x0000465c:    001e        ..      MOVS     r6,r3
        0x0000465e:    40ae        .@      LSLS     r6,r6,r5
        0x00004660:    4330        0C      ORRS     r0,r0,r6
        0x00004662:    1c49        I.      ADDS     r1,r1,#1
        0x00004664:    2912        .)      CMP      r1,#0x12
        0x00004666:    d3f3        ..      BCC      0x4650 ; v2p_mask + 12
        0x00004668:    bd70        p.      POP      {r4-r6,pc}
    $d
        0x0000466a:    0000        ..      DCW    0
        0x0000466c:    e5007fa0    ....    DCD    3842015136
    $d.realdata
    .constdata
    t_out_procs
        0x00004670:    00001e58    X...    DCD    7768
        0x00004674:    00001e84    ....    DCD    7812
        0x00004678:    00001f38    8...    DCD    7992
        0x0000467c:    00001f84    ....    DCD    8068
        0x00004680:    00001f6c    l...    DCD    8044
    .constdata
    t_out_back_procs
        0x00004684:    00002040    @ ..    DCD    8256
        0x00004688:    00002090    . ..    DCD    8336
        0x0000468c:    00002094    . ..    DCD    8340
        0x00004690:    00002098    . ..    DCD    8344
        0x00004694:    0000209c    . ..    DCD    8348
    .constdata
    t_init_out_procs
        0x00004698:    00000000    ....    DCD    0
        0x0000469c:    000020b8    . ..    DCD    8376
        0x000046a0:    0000210c    .!..    DCD    8460
        0x000046a4:    00002114    .!..    DCD    8468
        0x000046a8:    00000000    ....    DCD    0
    .constdata
    t_stop_procs
        0x000046ac:    00000000    ....    DCD    0
        0x000046b0:    0000211c    .!..    DCD    8476
        0x000046b4:    00002180    .!..    DCD    8576
    .constdata
    t_out_error
        0x000046b8:    00000000    ....    DCD    0
        0x000046bc:    000022a8    ."..    DCD    8872
        0x000046c0:    0000223c    <"..    DCD    8764
    .constdata
        0x000046c4:    6f727265    erro    DCD    1869771365
        0x000046c8:    6e692072    r in    DCD    1852383346
        0x000046cc:    65687420     the    DCD    1701344288
        0x000046d0:    726f6320     cor    DCD    1919902496
        0x000046d4:    79742065    e ty    DCD    2037653605
        0x000046d8:    2d206570    pe -    DCD    757097840
        0x000046dc:    65786520     exe    DCD    1702389024
        0x000046e0:    61747563    cuta    DCD    1635022179
        0x000046e4:    3a656c62    ble:    DCD    979725410
        0x000046e8:    20632520     %c     DCD    543368480
        0x000046ec:    65726f63    core    DCD    1701998435
        0x000046f0:    7473202c    , st    DCD    1953701932
        0x000046f4:    74637572    ruct    DCD    1952675186
        0x000046f8:    3a657275    ure:    DCD    979726965
        0x000046fc:    74205720     W t    DCD    1948276512
        0x00004700:    0a657079    ype.    DCD    174420089
        0x00004704:    00000000    ....    DCD    0
        0x00004708:    6f727265    erro    DCD    1869771365
        0x0000470c:    6e692072    r in    DCD    1852383346
        0x00004710:    65687420     the    DCD    1701344288
        0x00004714:    726f6320     cor    DCD    1919902496
        0x00004718:    79742065    e ty    DCD    2037653605
        0x0000471c:    2d206570    pe -    DCD    757097840
        0x00004720:    65786520     exe    DCD    1702389024
        0x00004724:    61747563    cuta    DCD    1635022179
        0x00004728:    3a656c62    ble:    DCD    979725410
        0x0000472c:    20632520     %c     DCD    543368480
        0x00004730:    65726f63    core    DCD    1701998435
        0x00004734:    7473202c    , st    DCD    1953701932
        0x00004738:    74637572    ruct    DCD    1952675186
        0x0000473c:    3a657275    ure:    DCD    979726965
        0x00004740:    74205320     S t    DCD    1948275488
        0x00004744:    0a657079    ype.    DCD    174420089
        0x00004748:    00000000    ....    DCD    0
        0x0000474c:    6f727265    erro    DCD    1869771365
        0x00004750:    6e692072    r in    DCD    1852383346
        0x00004754:    65687420     the    DCD    1701344288
        0x00004758:    726f6320     cor    DCD    1919902496
        0x0000475c:    79742065    e ty    DCD    2037653605
        0x00004760:    2d206570    pe -    DCD    757097840
        0x00004764:    65786520     exe    DCD    1702389024
        0x00004768:    61747563    cuta    DCD    1635022179
        0x0000476c:    3a656c62    ble:    DCD    979725410
        0x00004770:    20632520     %c     DCD    543368480
        0x00004774:    65726f63    core    DCD    1701998435
        0x00004778:    7473202c    , st    DCD    1953701932
        0x0000477c:    74637572    ruct    DCD    1952675186
        0x00004780:    3a657275    ure:    DCD    979726965
        0x00004784:    74204920     I t    DCD    1948272928
        0x00004788:    0a657079    ype.    DCD    174420089
        0x0000478c:    00000000    ....    DCD    0
        0x00004790:    6f727265    erro    DCD    1869771365
        0x00004794:    6e692072    r in    DCD    1852383346
        0x00004798:    65687420     the    DCD    1701344288
        0x0000479c:    726f6320     cor    DCD    1919902496
        0x000047a0:    79742065    e ty    DCD    2037653605
        0x000047a4:    2d206570    pe -    DCD    757097840
        0x000047a8:    65786520     exe    DCD    1702389024
        0x000047ac:    61747563    cuta    DCD    1635022179
        0x000047b0:    3a656c62    ble:    DCD    979725410
        0x000047b4:    20632520     %c     DCD    543368480
        0x000047b8:    65726f63    core    DCD    1701998435
        0x000047bc:    7473202c    , st    DCD    1953701932
        0x000047c0:    74637572    ruct    DCD    1952675186
        0x000047c4:    3a657275    ure:    DCD    979726965
        0x000047c8:    74205420     T t    DCD    1948275744
        0x000047cc:    0a657079    ype.    DCD    174420089
        0x000047d0:    00000000    ....    DCD    0
        0x000047d4:    6f727265    erro    DCD    1869771365
        0x000047d8:    6e692072    r in    DCD    1852383346
        0x000047dc:    65687420     the    DCD    1701344288
        0x000047e0:    726f6320     cor    DCD    1919902496
        0x000047e4:    79742065    e ty    DCD    2037653605
        0x000047e8:    2d206570    pe -    DCD    757097840
        0x000047ec:    65786520     exe    DCD    1702389024
        0x000047f0:    61747563    cuta    DCD    1635022179
        0x000047f4:    3a656c62    ble:    DCD    979725410
        0x000047f8:    20632520     %c     DCD    543368480
        0x000047fc:    65726f63    core    DCD    1701998435
        0x00004800:    7562202c    , bu    DCD    1969365036
        0x00004804:    68742074    t th    DCD    1752440948
        0x00004808:    6f632065    e co    DCD    1868767333
        0x0000480c:    73206572    re s    DCD    1931502962
        0x00004810:    6c756f68    houl    DCD    1819635560
        0x00004814:    65622064    d be    DCD    1700929636
        0x00004818:    756e7520     unu    DCD    1970173216
        0x0000481c:    0a646573    sed.    DCD    174351731
        0x00004820:    00000000    ....    DCD    0
        0x00004824:    6f727265    erro    DCD    1869771365
        0x00004828:    6e692072    r in    DCD    1852383346
        0x0000482c:    65687420     the    DCD    1701344288
        0x00004830:    726f6320     cor    DCD    1919902496
        0x00004834:    79742065    e ty    DCD    2037653605
        0x00004838:    2d206570    pe -    DCD    757097840
        0x0000483c:    65786520     exe    DCD    1702389024
        0x00004840:    61747563    cuta    DCD    1635022179
        0x00004844:    3a656c62    ble:    DCD    979725410
        0x00004848:    20632520     %c     DCD    543368480
        0x0000484c:    65726f63    core    DCD    1701998435
        0x00004850:    7562202c    , bu    DCD    1969365036
        0x00004854:    68632074    t ch    DCD    1751326836
        0x00004858:    73207069    ip s    DCD    1931505769
        0x0000485c:    63757274    truc    DCD    1668641396
        0x00004860:    65727574    ture    DCD    1701999988
        0x00004864:    73616820     has    DCD    1935763488
        0x00004868:    206e6120     an     DCD    544104736
        0x0000486c:    61766e69    inva    DCD    1635151465
        0x00004870:    2064696c    lid     DCD    543451500
        0x00004874:    72746e65    entr    DCD    1920233061
        0x00004878:    25203a79    y: %    DCD    622869113
        0x0000487c:    00000a64    d...    DCD    2660
    .constdata
    sigmoid_lut
        0x00004880:    40ff4000    .@.@    DCD    1090469888
        0x00004884:    42ff41ff    .A.B    DCD    1124024831
        0x00004888:    44fd43fe    .C.D    DCD    1157448702
        0x0000488c:    46f845fb    .E.F    DCD    1190675963
        0x00004890:    48f047f5    .G.H    DCD    1223706613
        0x00004894:    4ae449eb    .I.J    DCD    1256475115
        0x00004898:    4cd24bdc    .K.L    DCD    1288850396
        0x0000489c:    4ebb4dc7    .M.N    DCD    1320897991
        0x000048a0:    509c4fac    .O.P    DCD    1352421292
        0x000048a4:    5275518a    .QuR    DCD    1383420298
        0x000048a8:    5447535f    _SGT    DCD    1413960543
        0x000048ac:    560e552c    ,U.V    DCD    1443779884
        0x000048b0:    57cd56ef    .V.W    DCD    1473074927
        0x000048b4:    598158a8    .X.Y    DCD    1501649064
        0x000048b8:    5b2a5a57    WZ*[    DCD    1529502295
        0x000048bc:    5cc85bfa    .[.\    DCD    1556634618
        0x000048c0:    5e5b5d93    .][^    DCD    1583046035
        0x000048c4:    5fe25f20     _._    DCD    1608671008
        0x000048c8:    615d60a1    .`]a    DCD    1633509537
        0x000048cc:    62cb6215    .b.b    DCD    1657496085
        0x000048d0:    642e637e    ~c.d    DCD    1680761726
        0x000048d4:    658464da    .d.e    DCD    1703175386
        0x000048d8:    66ce662a    *f.f    DCD    1724802602
        0x000048dc:    680c676e    ng.h    DCD    1745643374
        0x000048e0:    693d68a6    .h=i    DCD    1765632166
        0x000048e4:    6a6269d1    .ibj    DCD    1784834513
        0x000048e8:    6b7c6af1    .j|k    DCD    1803315953
        0x000048ec:    6c8a6c04    .l.l    DCD    1821010948
        0x000048f0:    6d8c6d0c    .m.m    DCD    1837919500
        0x000048f4:    6e836e09    .n.n    DCD    1854107145
        0x000048f8:    6f6f6efb    .noo    DCD    1869573883
        0x000048fc:    70516fe1    .oQp    DCD    1884385249
        0x00004900:    712870bd    .p(q    DCD    1898475709
        0x00004904:    71f5718f    .q.q    DCD    1911910799
        0x00004908:    72b87257    Wr.r    DCD    1924690519
        0x0000490c:    73727316    .srs    DCD    1936880406
        0x00004910:    742273cb    .s"t    DCD    1948414923
        0x00004914:    74ca7477    wt.t    DCD    1959425143
        0x00004918:    756a751b    .uju    DCD    1969911067
        0x0000491c:    760175b6    .u.v    DCD    1979807158
        0x00004920:    7691764a    Jv.v    DCD    1989244490
        0x00004924:    771976d6    .v.w    DCD    1998157526
        0x00004928:    779a775a    Zw.w    DCD    2006611802
        0x0000492c:    781477d8    .w.x    DCD    2014607320
        0x00004930:    7888784f    Ox.x    DCD    2022209615
        0x00004934:    78f578bf    .x.x    DCD    2029353151
        0x00004938:    795d792a    *y]y    DCD    2036169002
        0x0000493c:    79bf798e    .y.y    DCD    2042591630
        0x00004940:    7a1b79ed    .y.z    DCD    2048621037
        0x00004944:    7a727a47    Gzrz    DCD    2054322759
        0x00004948:    7ac57a9c    .z.z    DCD    2059762332
        0x0000494c:    7b137aed    .z.{    DCD    2064874221
        0x00004950:    7b5d7b38    8{]{    DCD    2069723960
        0x00004954:    7ba27b80    .{.{    DCD    2074246016
        0x00004958:    7be47bc3    .{.{    DCD    2078571459
        0x0000495c:    7c217c03    .|!|    DCD    2082569219
        0x00004960:    7c5c7c3f    ?|\|    DCD    2086435903
        0x00004964:    7c937c78    x|.|    DCD    2090040440
        0x00004968:    7cc67cad    .|.|    DCD    2093382829
        0x0000496c:    7cf77cdf    .|.|    DCD    2096594143
        0x00004970:    7d257d0f    .}%}    DCD    2099608847
        0x00004974:    7d517d3b    ;}Q}    DCD    2102492475
        0x00004978:    7d797d65    e}y}    DCD    2105113957
        0x0000497c:    7da07d8d    .}.}    DCD    2107669901
        0x00004980:    7dc47db2    .}.}    DCD    2110029234
        0x00004984:    7de67dd5    .}.}    DCD    2112257493
        0x00004988:    7e067df6    .}.~    DCD    2114354678
        0x0000498c:    7e247e15    .~$~    DCD    2116320789
        0x00004990:    7e417e33    3~A~    DCD    2118221363
        0x00004994:    7e5b7e4e    N~[~    DCD    2119925326
        0x00004998:    7e757e68    h~u~    DCD    2121629288
        0x0000499c:    7e8c7e81    .~.~    DCD    2123136641
        0x000049a0:    7ea27e97    .~.~    DCD    2124578455
        0x000049a4:    7eb77ead    .~.~    DCD    2125954733
        0x000049a8:    7ecb7ec1    .~.~    DCD    2127265473
        0x000049ac:    7ede7ed4    .~.~    DCD    2128510676
        0x000049b0:    7eef7ee6    .~.~    DCD    2129624806
        0x000049b4:    7eff7ef7    .~.~    DCD    2130673399
        0x000049b8:    7f0f7f07    ....    DCD    2131721991
        0x000049bc:    7f1d7f16    ....    DCD    2132639510
        0x000049c0:    7f2b7f24    $.+.    DCD    2133557028
        0x000049c4:    7f387f31    1.8.    DCD    2134409009
        0x000049c8:    7f447f3e    >.D.    DCD    2135195454
        0x000049cc:    7f4f7f49    I.O.    DCD    2135916361
        0x000049d0:    7f5a7f54    T.Z.    DCD    2136637268
        0x000049d4:    7f647f5f    _.d.    DCD    2137292639
        0x000049d8:    7f6d7f68    h.m.    DCD    2137882472
        0x000049dc:    7f767f72    r.v.    DCD    2138472306
        0x000049e0:    7f7e7f7a    z.~.    DCD    2138996602
        0x000049e4:    7f867f82    ....    DCD    2139520898
        0x000049e8:    7f8d7f8a    ....    DCD    2139979658
        0x000049ec:    7f947f91    ....    DCD    2140438417
        0x000049f0:    7f9b7f98    ....    DCD    2140897176
        0x000049f4:    7fa17f9e    ....    DCD    2141290398
        0x000049f8:    7fa77fa4    ....    DCD    2141683620
        0x000049fc:    7fac7fa9    ....    DCD    2142011305
        0x00004a00:    7fb17fae    ....    DCD    2142338990
        0x00004a04:    7fb67fb3    ....    DCD    2142666675
        0x00004a08:    7fba7fb8    ....    DCD    2142928824
        0x00004a0c:    7fbe7fbc    ....    DCD    2143190972
        0x00004a10:    7fc27fc0    ....    DCD    2143453120
        0x00004a14:    7fc67fc4    ....    DCD    2143715268
        0x00004a18:    7fc97fc8    ....    DCD    2143911880
        0x00004a1c:    7fcd7fcb    ....    DCD    2144174027
        0x00004a20:    7fd07fce    ....    DCD    2144370638
        0x00004a24:    7fd37fd1    ....    DCD    2144567249
        0x00004a28:    7fd57fd4    ....    DCD    2144698324
        0x00004a2c:    7fd87fd7    ....    DCD    2144894935
        0x00004a30:    7fda7fd9    ....    DCD    2145026009
        0x00004a34:    7fdd7fdb    ....    DCD    2145222619
        0x00004a38:    7fdf7fde    ....    DCD    2145353694
        0x00004a3c:    7fe17fe0    ....    DCD    2145484768
        0x00004a40:    7fe37fe2    ....    DCD    2145615842
        0x00004a44:    7fe47fe3    ....    DCD    2145681379
        0x00004a48:    7fe67fe5    ....    DCD    2145812453
        0x00004a4c:    7fe87fe7    ....    DCD    2145943527
        0x00004a50:    7fe97fe8    ....    DCD    2146009064
        0x00004a54:    7fea7fea    ....    DCD    2146074602
        0x00004a58:    7fec7feb    ....    DCD    2146205675
        0x00004a5c:    7fed7fec    ....    DCD    2146271212
        0x00004a60:    7fee7fed    ....    DCD    2146336749
        0x00004a64:    7fef7fee    ....    DCD    2146402286
        0x00004a68:    7ff07ff0    ....    DCD    2146467824
        0x00004a6c:    7ff17ff0    ....    DCD    2146533360
        0x00004a70:    7ff27ff1    ....    DCD    2146598897
        0x00004a74:    7ff37ff2    ....    DCD    2146664434
        0x00004a78:    7ff37ff3    ....    DCD    2146664435
        0x00004a7c:    7ff47ff4    ....    DCD    2146729972
    sigmoid_prime_lut
        0x00004a80:    1ffe2000    . ..    DCD    536748032
        0x00004a84:    1fee1ff8    ....    DCD    535699448
        0x00004a88:    1fce1fe0    ....    DCD    533602272
        0x00004a8c:    1f9e1fb8    ....    DCD    530456504
        0x00004a90:    1f601f81    ..`.    DCD    526393217
        0x00004a94:    1f121f3b    ;...    DCD    521281339
        0x00004a98:    1eb71ee6    ....    DCD    515317478
        0x00004a9c:    1e4d1e84    ..M.    DCD    508370564
        0x00004aa0:    1dd81e14    ....    DCD    500702740
        0x00004aa4:    1d561d98    ..V.    DCD    492182936
        0x00004aa8:    1cc91d11    ....    DCD    482942225
        0x00004aac:    1c321c7f    ..2.    DCD    473046143
        0x00004ab0:    1b921be3    ....    DCD    462560227
        0x00004ab4:    1aeb1b3f    ?...    DCD    451615551
        0x00004ab8:    1a3c1a94    ..<.    DCD    440146580
        0x00004abc:    198719e2    ....    DCD    428284386
        0x00004ac0:    18cc192a    *...    DCD    416028970
        0x00004ac4:    180e186e    n...    DCD    403576942
        0x00004ac8:    174d17ae    ..M.    DCD    390928302
        0x00004acc:    168a16ec    ....    DCD    378148588
        0x00004ad0:    15c51628    (...    DCD    365237800
        0x00004ad4:    15001563    c...    DCD    352327011
        0x00004ad8:    143c149e    ..<.    DCD    339481758
        0x00004adc:    137813da    ..x.    DCD    326636506
        0x00004ae0:    12b61317    ....    DCD    313922327
        0x00004ae4:    11f61256    V...    DCD    301339222
        0x00004ae8:    11391197    ..9.    DCD    288952727
        0x00004aec:    108010dc    ....    DCD    276828380
        0x00004af0:    0fca1025    %...    DCD    264900645
        0x00004af4:    0f180f71    q...    DCD    253235057
        0x00004af8:    0e6b0ec1    ..k.    DCD    241897153
        0x00004afc:    0dc20e16    ....    DCD    230821398
        0x00004b00:    0d1f0d70    p...    DCD    220138864
        0x00004b04:    0c800ccf    ....    DCD    209718479
        0x00004b08:    0be60c33    3...    DCD    199625779
        0x00004b0c:    0b520b9c    ..R.    DCD    189926300
        0x00004b10:    0ac30b0a    ....    DCD    180554506
        0x00004b14:    0a3a0a7e    ~.:.    DCD    171575934
        0x00004b18:    09b509f7    ....    DCD    162859511
        0x00004b1c:    09360975    u.6.    DCD    154536309
        0x00004b20:    08bc08f9    ....    DCD    146540793
        0x00004b24:    08480881    ..H.    DCD    138938497
        0x00004b28:    07d8080f    ....    DCD    131598351
        0x00004b2c:    076e07a2    ..n.    DCD    124651426
        0x00004b30:    0708073a    :...    DCD    117966650
        0x00004b34:    06a706d7    ....    DCD    111609559
        0x00004b38:    064a0678    x.J.    DCD    105514616
        0x00004b3c:    05f2061e    ....    DCD    99747358
        0x00004b40:    059f05c8    ....    DCD    94307784
        0x00004b44:    054f0576    v.O.    DCD    89064822
        0x00004b48:    05030529    )...    DCD    84084009
        0x00004b4c:    04bb04df    ....    DCD    79365343
        0x00004b50:    04770499    ..w.    DCD    74908825
        0x00004b54:    04370457    W.7.    DCD    70714455
        0x00004b58:    03fa0418    ....    DCD    66716696
        0x00004b5c:    03c003dc    ....    DCD    62915548
        0x00004b60:    038903a4    ....    DCD    59311012
        0x00004b64:    0355036e    n.U.    DCD    55903086
        0x00004b68:    0324033c    <.$.    DCD    52691772
        0x00004b6c:    02f5030c    ....    DCD    49611532
        0x00004b70:    02c902df    ....    DCD    46727903
        0x00004b74:    02a002b4    ....    DCD    44040884
        0x00004b78:    0279028c    ..y.    DCD    41484940
        0x00004b7c:    02540266    f.T.    DCD    39060070
        0x00004b80:    02310242    B.1.    DCD    36766274
        0x00004b84:    02100220     ...    DCD    34603552
        0x00004b88:    01f10200    ....    DCD    32571904
        0x00004b8c:    01d401e2    ....    DCD    30671330
        0x00004b90:    01b801c6    ....    DCD    28836294
        0x00004b94:    019e01ab    ....    DCD    27132331
        0x00004b98:    01860192    ....    DCD    25559442
        0x00004b9c:    016f017a    z.o.    DCD    24052090
        0x00004ba0:    01590164    d.Y.    DCD    22610276
        0x00004ba4:    0144014e    N.D.    DCD    21233998
        0x00004ba8:    0131013b    ;.1.    DCD    19988795
        0x00004bac:    011f0128    (...    DCD    18809128
        0x00004bb0:    010e0116    ....    DCD    17694998
        0x00004bb4:    00fe0106    ....    DCD    16646406
        0x00004bb8:    00ee00f6    ....    DCD    15597814
        0x00004bbc:    00e000e7    ....    DCD    14680295
        0x00004bc0:    00d300d9    ....    DCD    13828313
        0x00004bc4:    00c600cc    ....    DCD    12976332
        0x00004bc8:    00ba00c0    ....    DCD    12189888
        0x00004bcc:    00af00b5    ....    DCD    11468981
        0x00004bd0:    00a400aa    ....    DCD    10748074
        0x00004bd4:    009b009f    ....    DCD    10158239
        0x00004bd8:    00910096    ....    DCD    9502870
        0x00004bdc:    0089008d    ....    DCD    8978573
        0x00004be0:    00800084    ....    DCD    8388740
        0x00004be4:    0079007c    |.y.    DCD    7929980
        0x00004be8:    00710075    u.q.    DCD    7405685
        0x00004bec:    006a006e    n.j.    DCD    6946926
        0x00004bf0:    00640067    g.d.    DCD    6553703
        0x00004bf4:    005e0061    a.^.    DCD    6160481
        0x00004bf8:    0058005b    [.X.    DCD    5767259
        0x00004bfc:    00530056    V.S.    DCD    5439574
        0x00004c00:    004e0050    P.N.    DCD    5111888
        0x00004c04:    0049004b    K.I.    DCD    4784203
        0x00004c08:    00450047    G.E.    DCD    4522055
        0x00004c0c:    00410043    C.A.    DCD    4259907
        0x00004c10:    003d003f    ?.=.    DCD    3997759
        0x00004c14:    0039003b    ;.9.    DCD    3735611
        0x00004c18:    00350037    7.5.    DCD    3473463
        0x00004c1c:    00320034    4.2.    DCD    3276852
        0x00004c20:    002f0031    1./.    DCD    3080241
        0x00004c24:    002c002e    ..,.    DCD    2883630
        0x00004c28:    002a002b    +.*.    DCD    2752555
        0x00004c2c:    00270028    (.'.    DCD    2555944
        0x00004c30:    00250026    &.%.    DCD    2424870
        0x00004c34:    00220023    #.".    DCD    2228259
        0x00004c38:    00200021    !. .    DCD    2097185
        0x00004c3c:    001e001f    ....    DCD    1966111
        0x00004c40:    001c001d    ....    DCD    1835037
        0x00004c44:    001b001c    ....    DCD    1769500
        0x00004c48:    0019001a    ....    DCD    1638426
        0x00004c4c:    00170018    ....    DCD    1507352
        0x00004c50:    00160017    ....    DCD    1441815
        0x00004c54:    00150015    ....    DCD    1376277
        0x00004c58:    00130014    ....    DCD    1245204
        0x00004c5c:    00120013    ....    DCD    1179667
        0x00004c60:    00110012    ....    DCD    1114130
        0x00004c64:    00100011    ....    DCD    1048593
        0x00004c68:    000f000f    ....    DCD    983055
        0x00004c6c:    000e000f    ....    DCD    917519
        0x00004c70:    000d000e    ....    DCD    851982
        0x00004c74:    000c000d    ....    DCD    786445
        0x00004c78:    000c000c    ....    DCD    786444
        0x00004c7c:    000b000b    ....    DCD    720907
    inv_sigmoid_lut
        0x00004c80:    00000000    ....    DCD    0
        0x00004c84:    000fffc5    ....    DCD    1048517
        0x00004c88:    001fffaa    ....    DCD    2097066
        0x00004c8c:    002fffcf    ../.    DCD    3145679
        0x00004c90:    00400055    U.@.    DCD    4194389
        0x00004c94:    0050015a    Z.P.    DCD    5243226
        0x00004c98:    00600300    ..`.    DCD    6292224
        0x00004c9c:    00700565    e.p.    DCD    7341413
        0x00004ca0:    008008ab    ....    DCD    8390827
        0x00004ca4:    00900cf2    ....    DCD    9440498
        0x00004ca8:    00a01259    Y...    DCD    10490457
        0x00004cac:    00b01901    ....    DCD    11540737
        0x00004cb0:    00c0210a    .!..    DCD    12591370
        0x00004cb4:    00d02a95    .*..    DCD    13642389
        0x00004cb8:    00e035c2    .5..    DCD    14693826
        0x00004cbc:    00f042b1    .B..    DCD    15745713
        0x00004cc0:    01005184    .Q..    DCD    16798084
        0x00004cc4:    0110625b    [b..    DCD    17850971
        0x00004cc8:    01207556    Vu .    DCD    18904406
        0x00004ccc:    01308a97    ..0.    DCD    19958423
        0x00004cd0:    0140a23f    ?.@.    DCD    21013055
        0x00004cd4:    0150bc6f    o.P.    DCD    22068335
        0x00004cd8:    0160d947    G.`.    DCD    23124295
        0x00004cdc:    0170f8ea    ..p.    DCD    24180970
        0x00004ce0:    01811b79    y...    DCD    25238393
        0x00004ce4:    01914116    .A..    DCD    26296598
        0x00004ce8:    01a169e1    .i..    DCD    27355617
        0x00004cec:    01b195fe    ....    DCD    28415486
        0x00004cf0:    01c1c58f    ....    DCD    29476239
        0x00004cf4:    01d1f8b5    ....    DCD    30537909
        0x00004cf8:    01e22f93    ./..    DCD    31600531
        0x00004cfc:    01f26a4c    Lj..    DCD    32664140
        0x00004d00:    0202a903    ....    DCD    33728771
        0x00004d04:    0212ebda    ....    DCD    34794458
        0x00004d08:    022332f5    .2#.    DCD    35861237
        0x00004d0c:    02337e77    w~3.    DCD    36929143
        0x00004d10:    0243ce84    ..C.    DCD    37998212
        0x00004d14:    02542340    @#T.    DCD    39068480
        0x00004d18:    02647cce    .|d.    DCD    40139982
        0x00004d1c:    0274db54    T.t.    DCD    41212756
        0x00004d20:    02853ef6    .>..    DCD    42286838
        0x00004d24:    0295a7d8    ....    DCD    43362264
        0x00004d28:    02a61620     ...    DCD    44439072
        0x00004d2c:    02b689f3    ....    DCD    45517299
        0x00004d30:    02c70377    w...    DCD    46596983
        0x00004d34:    02d782d2    ....    DCD    47678162
        0x00004d38:    02e80829    )...    DCD    48760873
        0x00004d3c:    02f893a5    ....    DCD    49845157
        0x00004d40:    0309256a    j%..    DCD    50931050
        0x00004d44:    0319bda2    ....    DCD    52018594
        0x00004d48:    032a5c73    s\*.    DCD    53107827
        0x00004d4c:    033b0204    ..;.    DCD    54198788
        0x00004d50:    034bae80    ..K.    DCD    55291520
        0x00004d54:    035c620d    .b\.    DCD    56386061
        0x00004d58:    036d1cd5    ..m.    DCD    57482453
        0x00004d5c:    037ddf01    ..}.    DCD    58580737
        0x00004d60:    038ea8bc    ....    DCD    59680956
        0x00004d64:    039f7a2f    /z..    DCD    60783151
        0x00004d68:    03b05385    .S..    DCD    61887365
        0x00004d6c:    03c134e8    .4..    DCD    62993640
        0x00004d70:    03d21e85    ....    DCD    64102021
        0x00004d74:    03e31088    ....    DCD    65212552
        0x00004d78:    03f40b1c    ....    DCD    66325276
        0x00004d7c:    04050e6f    o...    DCD    67440239
        0x00004d80:    04161aad    ....    DCD    68557485
        0x00004d84:    04273005    .0'.    DCD    69677061
        0x00004d88:    04384ea6    .N8.    DCD    70799014
        0x00004d8c:    044976bd    .vI.    DCD    71923389
        0x00004d90:    045aa87b    {.Z.    DCD    73050235
        0x00004d94:    046be40f    ..k.    DCD    74179599
        0x00004d98:    047d29ab    .)}.    DCD    75311531
        0x00004d9c:    048e797e    ~y..    DCD    76446078
        0x00004da0:    049fd3bb    ....    DCD    77583291
        0x00004da4:    04b13895    .8..    DCD    78723221
        0x00004da8:    04c2a83e    >...    DCD    79865918
        0x00004dac:    04d422ea    ."..    DCD    81011434
        0x00004db0:    04e5a8ce    ....    DCD    82159822
        0x00004db4:    04f73a1d    .:..    DCD    83311133
        0x00004db8:    0508d70f    ....    DCD    84465423
        0x00004dbc:    051a7fd9    ....    DCD    85622745
        0x00004dc0:    052c34b2    .4,.    DCD    86783154
        0x00004dc4:    053df5d3    ..=.    DCD    87946707
        0x00004dc8:    054fc375    u.O.    DCD    89113461
        0x00004dcc:    05619dd0    ..a.    DCD    90283472
        0x00004dd0:    0573851f    ..s.    DCD    91456799
        0x00004dd4:    0585799d    .y..    DCD    92633501
        0x00004dd8:    05977b86    .{..    DCD    93813638
        0x00004ddc:    05a98b17    ....    DCD    94997271
        0x00004de0:    05bba88f    ....    DCD    96184463
        0x00004de4:    05cdd42a    *...    DCD    97375274
        0x00004de8:    05e00e2a    *...    DCD    98569770
        0x00004dec:    05f256cf    .V..    DCD    99768015
        0x00004df0:    0604ae5a    Z...    DCD    100970074
        0x00004df4:    0617150e    ....    DCD    102176014
        0x00004df8:    06298b30    0.).    DCD    103385904
        0x00004dfc:    063c1103    ..<.    DCD    104599811
        0x00004e00:    064ea6ce    ..N.    DCD    105817806
        0x00004e04:    06614cd7    .La.    DCD    107039959
        0x00004e08:    06740368    h.t.    DCD    108266344
        0x00004e0c:    0686cac9    ....    DCD    109497033
        0x00004e10:    0699a346    F...    DCD    110732102
        0x00004e14:    06ac8d2a    *...    DCD    111971626
        0x00004e18:    06bf88c2    ....    DCD    113215682
        0x00004e1c:    06d2965e    ^...    DCD    114464350
        0x00004e20:    06e5b64d    M...    DCD    115717709
        0x00004e24:    06f8e8e0    ....    DCD    116975840
        0x00004e28:    070c2e6b    k...    DCD    118238827
        0x00004e2c:    071f8742    B...    DCD    119506754
        0x00004e30:    0732f3bb    ..2.    DCD    120779707
        0x00004e34:    0746742e    .tF.    DCD    122057774
        0x00004e38:    075a08f3    ..Z.    DCD    123341043
        0x00004e3c:    076db265    e.m.    DCD    124629605
        0x00004e40:    078170e2    .p..    DCD    125923554
        0x00004e44:    079544c7    .D..    DCD    127222983
        0x00004e48:    07a92e75    u...    DCD    128527989
        0x00004e4c:    07bd2e4d    M...    DCD    129838669
        0x00004e50:    07d144b4    .D..    DCD    131155124
        0x00004e54:    07e57210    .r..    DCD    132477456
        0x00004e58:    07f9b6c9    ....    DCD    133805769
        0x00004e5c:    080e1348    H...    DCD    135140168
        0x00004e60:    082287fb    ..".    DCD    136480763
        0x00004e64:    0837154f    O.7.    DCD    137827663
        0x00004e68:    084bbbb6    ..K.    DCD    139180982
        0x00004e6c:    08607ba3    .{`.    DCD    140540835
        0x00004e70:    0875558c    .Uu.    DCD    141907340
        0x00004e74:    088a49e9    .I..    DCD    143280617
        0x00004e78:    089f5935    5Y..    DCD    144660789
        0x00004e7c:    08b483ed    ....    DCD    146047981
        0x00004e80:    08c9ca92    ....    DCD    147442322
        0x00004e84:    08df2da8    .-..    DCD    148843944
        0x00004e88:    08f4adb3    ....    DCD    150252979
        0x00004e8c:    090a4b3e    >K..    DCD    151669566
        0x00004e90:    092006d5    .. .    DCD    153093845
        0x00004e94:    0935e108    ..5.    DCD    154525960
        0x00004e98:    094bda6a    j.K.    DCD    155966058
        0x00004e9c:    0961f390    ..a.    DCD    157414288
        0x00004ea0:    09782d16    .-x.    DCD    158870806
        0x00004ea4:    098e8799    ....    DCD    160335769
        0x00004ea8:    09a503bc    ....    DCD    161809340
        0x00004eac:    09bba222    "...    DCD    163291682
        0x00004eb0:    09d26377    wc..    DCD    164782967
        0x00004eb4:    09e94869    iH..    DCD    166283369
        0x00004eb8:    0a0051a9    .Q..    DCD    167793065
        0x00004ebc:    0a177fef    ....    DCD    169312239
        0x00004ec0:    0a2ed3f7    ....    DCD    170841079
        0x00004ec4:    0a464e81    .NF.    DCD    172379777
        0x00004ec8:    0a5df054    T.].    DCD    173928532
        0x00004ecc:    0a75ba3a    :.u.    DCD    175487546
        0x00004ed0:    0a8dad03    ....    DCD    177057027
        0x00004ed4:    0aa5c986    ....    DCD    178637190
        0x00004ed8:    0abe10a0    ....    DCD    180228256
        0x00004edc:    0ad68331    1...    DCD    181830449
        0x00004ee0:    0aef2223    #"..    DCD    183444003
        0x00004ee4:    0b07ee65    e...    DCD    185069157
        0x00004ee8:    0b20e8ed    .. .    DCD    186706157
        0x00004eec:    0b3a12b8    ..:.    DCD    188355256
        0x00004ef0:    0b536cc9    .lS.    DCD    190016713
        0x00004ef4:    0b6cf82f    /.l.    DCD    191690799
        0x00004ef8:    0b86b5fc    ....    DCD    193377788
        0x00004efc:    0ba0a74e    N...    DCD    195077966
        0x00004f00:    0bbacd4a    J...    DCD    196791626
        0x00004f04:    0bd5291e    .)..    DCD    198519070
        0x00004f08:    0befbc01    ....    DCD    200260609
        0x00004f0c:    0c0a8736    6...    DCD    202016566
        0x00004f10:    0c258c09    ..%.    DCD    203787273
        0x00004f14:    0c40cbd0    ..@.    DCD    205573072
        0x00004f18:    0c5c47ed    .G\.    DCD    207374317
        0x00004f1c:    0c7801ce    ..x.    DCD    209191374
        0x00004f20:    0c93faec    ....    DCD    211024620
        0x00004f24:    0cb034ce    .4..    DCD    212874446
        0x00004f28:    0cccb109    ....    DCD    214741257
        0x00004f2c:    0ce9713f    ?q..    DCD    216625471
        0x00004f30:    0d06771f    .w..    DCD    218527519
        0x00004f34:    0d23c46b    k.#.    DCD    220447851
        0x00004f38:    0d415af3    .ZA.    DCD    222386931
        0x00004f3c:    0d5f3c98    .<_.    DCD    224345240
        0x00004f40:    0d7d6b4d    Mk}.    DCD    226323277
        0x00004f44:    0d9be918    ....    DCD    228321560
        0x00004f48:    0dbab811    ....    DCD    230340625
        0x00004f4c:    0dd9da69    i...    DCD    232381033
        0x00004f50:    0df95261    aR..    DCD    234443361
        0x00004f54:    0e192254    T"..    DCD    236528212
        0x00004f58:    0e394cb6    .L9.    DCD    238636214
        0x00004f5c:    0e59d413    ..Y.    DCD    240768019
        0x00004f60:    0e7abb11    ..z.    DCD    242924305
        0x00004f64:    0e9c0474    t...    DCD    245105780
        0x00004f68:    0ebdb31d    ....    DCD    247313181
        0x00004f6c:    0edfca0d    ....    DCD    249547277
        0x00004f70:    0f024c66    fL..    DCD    251808870
        0x00004f74:    0f253d6e    n=%.    DCD    254098798
        0x00004f78:    0f48a092    ..H.    DCD    256417938
        0x00004f7c:    0f6c7964    dyl.    DCD    258767204
        0x00004f80:    0f90cba2    ....    DCD    261147554
        0x00004f84:    0fb59b37    7...    DCD    263559991
        0x00004f88:    0fdaec3f    ?...    DCD    266005567
        0x00004f8c:    1000c307    ....    DCD    268485383
        0x00004f90:    10272414    .$'.    DCD    271000596
        0x00004f94:    104e1425    %.N.    DCD    273552421
        0x00004f98:    10759836    6.u.    DCD    276142134
        0x00004f9c:    109db586    ....    DCD    278771078
        0x00004fa0:    10c6719d    .q..    DCD    281440669
        0x00004fa4:    10efd24c    L...    DCD    284152396
        0x00004fa8:    1119ddb8    ....    DCD    286907832
        0x00004fac:    11449a5d    ].D.    DCD    289708637
        0x00004fb0:    11700f17    ..p.    DCD    292556567
        0x00004fb4:    119c4327    'C..    DCD    295453479
        0x00004fb8:    11c93e3c    <>..    DCD    298401340
        0x00004fbc:    11f7087c    |...    DCD    301402236
        0x00004fc0:    1225aa90    ..%.    DCD    304458384
        0x00004fc4:    12552da8    .-U.    DCD    307572136
        0x00004fc8:    12859b91    ....    DCD    310746001
        0x00004fcc:    12b6feba    ....    DCD    313982650
        0x00004fd0:    12e96246    Fb..    DCD    317284934
        0x00004fd4:    131cd21d    ....    DCD    320655901
        0x00004fd8:    13515aff    .ZQ.    DCD    324098815
        0x00004fdc:    13870a95    ....    DCD    327617173
        0x00004fe0:    13bdef8d    ....    DCD    331214733
        0x00004fe4:    13f619b1    ....    DCD    334895537
        0x00004fe8:    142f9a07    ../.    DCD    338663943
        0x00004fec:    146a82ef    ..j.    DCD    342524655
        0x00004ff0:    14a6e84f    O...    DCD    346482767
        0x00004ff4:    14e4dfb7    ....    DCD    350543799
        0x00004ff8:    1524809a    ..$.    DCD    354713754
        0x00004ffc:    1565e482    ..e.    DCD    358999170
        0x00005000:    15a92756    V'..    DCD    363407190
        0x00005004:    15ee67a3    .g..    DCD    367945635
        0x00005008:    1635c6f9    ..5.    DCD    372623097
        0x0000500c:    167f6a50    Pj..    DCD    377449040
        0x00005010:    16cb7a83    .z..    DCD    382433923
        0x00005014:    171a24e3    .$..    DCD    387589347
        0x00005018:    176b9be2    ..k.    DCD    392928226
        0x0000501c:    17c017e0    ....    DCD    398464992
        0x00005020:    1817d824    $...    DCD    404215844
        0x00005024:    18732408    .$s.    DCD    410199048
        0x00005028:    18d24c69    iL..    DCD    416435305
        0x0000502c:    1935ad6e    n.5.    DCD    422948206
        0x00005030:    199db0b6    ....    DCD    429764790
        0x00005034:    1a0ad024    $...    DCD    436916260
        0x00005038:    1a7d995a    Z.}.    DCD    444438874
        0x0000503c:    1af6b248    H...    DCD    452375112
        0x00005040:    1b76df04    ..v.    DCD    460775172
        0x00005044:    1bff09a0    ....    DCD    469698976
        0x00005048:    1c904c9a    .L..    DCD    479218842
        0x0000504c:    1d2c0142    B.,.    DCD    489423170
        0x00005050:    1dd3d3d5    ....    DCD    500421589
        0x00005054:    1e89e05e    ^...    DCD    512352350
        0x00005058:    1f50dd65    e.P.    DCD    525393253
        0x0000505c:    202c5d19    .],     DCD    539778329
        0x00005060:    21213502    .5!!    DCD    555824386
        0x00005064:    22362b1e    .+6"    DCD    573975326
        0x00005068:    23752904    .)u#    DCD    594880772
        0x0000506c:    24ed88ce    ...$    DCD    619546830
        0x00005070:    26b8f926    &..&    DCD    649656614
        0x00005074:    290784d0    ...)    DCD    688358608
        0x00005078:    2c44a1b6    ..D,    DCD    742695350
        0x0000507c:    31c4649e    .d.1    DCD    834954398
    .constdata
    build_date
        0x00005080:    5534d96f    o.4U    DCD    1429526895
    .constdata
    build_name
        0x00005084:    65726874    thre    DCD    1701996660
        0x00005088:    6c6f6873    shol    DCD    1819240563
        0x0000508c:    00000064    d...    DCD    100
    .constdata
    hex
        0x00005090:    33323130    0123    DCD    858927408
        0x00005094:    37363534    4567    DCD    926299444
        0x00005098:    62613938    89ab    DCD    1650538808
        0x0000509c:    66656463    cdef    DCD    1717920867
        0x000050a0:    00000000    ....    DCD    0
    $d
    _alib_align
        0x000050a4:    deaddead    ....    DCD    3735936685

** Section #2 'DTCM' (SHT_PROGBITS) [SHF_ALLOC + SHF_WRITE]
    Size   : 352 bytes (alignment 4)
    Address: 0x00400000

    0x400000:   00 00 00 00 00 00 00 00 00 00 00 00 00 00 00 00    ................
    0x400010:   00 00 00 00 00 00 00 00 00 00 00 00 00 00 00 00    ................
    0x400020:   00 00 00 00 00 00 00 00 00 00 00 00 00 00 00 00    ................
    0x400030:   00 00 00 00 00 00 00 00 00 00 00 00 00 00 00 00    ................
    0x400040:   00 00 00 00 00 00 00 00 00 00 00 00 00 00 00 00    ................
    0x400050:   00 00 00 00 00 00 00 00 00 00 00 00 00 00 00 00    ................
    0x400060:   00 00 00 00 00 00 00 00 00 00 00 00 00 00 00 00    ................
    0x400070:   00 00 00 00 00 00 00 00 00 00 00 00 00 00 00 00    ................
    0x400080:   00 00 00 00 00 00 00 00 00 00 00 00 00 00 00 00    ................
    0x400090:   00 00 00 00 00 00 00 00 00 00 00 00 00 00 00 00    ................
    0x4000a0:   00 00 00 00 00 00 00 00 00 00 00 00 00 00 00 00    ................
    0x4000b0:   00 00 00 00 00 00 00 00 00 00 00 00 00 00 00 00    ................
    0x4000c0:   00 00 00 00 00 00 00 00 00 00 00 00 00 00 00 00    ................
    0x4000d0:   00 00 00 00 00 00 00 00 00 00 00 00 00 00 00 00    ................
    0x4000e0:   00 00 00 00 00 00 00 00 00 00 00 00 00 00 00 00    ................
    0x4000f0:   00 00 00 00 00 00 00 00 00 00 00 00 00 00 00 00    ................
    0x400100:   00 00 00 00 00 00 00 00 00 00 00 00 00 00 00 00    ................
    0x400110:   00 00 00 00 00 00 00 00 01 00 00 00 01 00 00 00    ................
    0x400120:   00 00 00 00 00 00 00 00 00 00 00 00 00 00 00 00    ................
    0x400130:   ff ff ff ff 01 00 00 00 00 00 00 00 00 00 00 00    ................
    0x400140:   00 00 00 00 00 00 00 00 00 00 00 00 00 00 00 00    ................
    0x400150:   00 00 00 00 00 00 00 00 00 00 00 00 00 00 00 00    ................


** Section #3 'DTCM' (SHT_NOBITS) [SHF_ALLOC + SHF_WRITE]
    Size   : 2248 bytes (alignment 4)
    Address: 0x00400160


** Section #4 'STACK' (SHT_NOBITS) [SHF_ALLOC + SHF_WRITE]
    Size   : 2048 bytes
    Address: 0x0040f800


** Section #5 '.debug_frame' (SHT_PROGBITS)
    Size   : 4444 bytes


** Section #6 '.symtab' (SHT_SYMTAB)
    Size   : 18928 bytes (alignment 4)
    String table #7 '.strtab'
    Last local symbol no. 927

    Symbol table .symtab (1182 symbols, 927 local)

      #  Symbol Name                Value      Bind  Sec  Type  Vis  Size
    ========================================================================

      1  $a                         0x00000000   Lc    1   --   De 
      2  $d                         0x00000020   Lc    1   --   De 
      3  $a                         0x00000078   Lc    1   --   De 
      4  $d                         0x00000180   Lc    1   --   De 
      5  $a                         0x0000018c   Lc    1   --   De 
      6  $d                         0x00000420   Lc    1   --   De 
      7  $a                         0x00000554   Lc    1   --   De 
      8  $d                         0x0000075c   Lc    1   --   De 
      9  $a                         0x00000888   Lc    1   --   De 
     10  $d                         0x00000c50   Lc    1   --   De 
     11  $a                         0x00000d10   Lc    1   --   De 
     12  $d                         0x000010b8   Lc    1   --   De 
     13  $a                         0x00001130   Lc    1   --   De 
     14  $d                         0x00001190   Lc    1   --   De 
     15  $a                         0x00001198   Lc    1   --   De 
     16  $d                         0x000012f0   Lc    1   --   De 
     17  $a                         0x00001300   Lc    1   --   De 
     18  $d                         0x000019a0   Lc    1   --   De 
     19  $a                         0x00001a64   Lc    1   --   De 
     20  $d                         0x00002418   Lc    1   --   De 
     21  $a                         0x00002474   Lc    1   --   De 
     22  $d                         0x00002774   Lc    1   --   De 
     23  $t                         0x000027b4   Lc    1   --   De 
     24  $d                         0x000027ca   Lc    1   --   De 
     25  $t                         0x000027d0   Lc    1   --   De 
     26  $d                         0x0000281a   Lc    1   --   De 
     27  $a                         0x00002820   Lc    1   --   De 
     28  $d                         0x00002a7c   Lc    1   --   De 
     29  $t                         0x00002a98   Lc    1   --   De 
     30  $d                         0x00002bcc   Lc    1   --   De 
     31  $t                         0x00002bdc   Lc    1   --   De 
     32  $d                         0x00002d2c   Lc    1   --   De 
     33  $a                         0x00002e60   Lc    1   --   De 
     34  $d                         0x00002e84   Lc    1   --   De 
     35  $a                         0x00002e88   Lc    1   --   De 
     36  $d                         0x00002ec0   Lc    1   --   De 
     37  $a                         0x00002ec4   Lc    1   --   De 
     38  $d                         0x00002f3c   Lc    1   --   De 
     39  $t                         0x00002f40   Lc    1   --   De 
     40  $d                         0x00002f88   Lc    1   --   De 
     41  $t                         0x00002f9c   Lc    1   --   De 
     42  $d                         0x0000300e   Lc    1   --   De 
     43  $t                         0x00003044   Lc    1   --   De 
     44  $d                         0x000030ba   Lc    1   --   De 
     45  $a                         0x000030c4   Lc    1   --   De 
     46  $d                         0x00003138   Lc    1   --   De 
     47  $a                         0x00003140   Lc    1   --   De 
     48  $d                         0x000031c8   Lc    1   --   De 
     49  $t                         0x000031d0   Lc    1   --   De 
     50  $d                         0x0000320a   Lc    1   --   De 
     51  $t                         0x00003210   Lc    1   --   De 
     52  $d                         0x00003238   Lc    1   --   De 
     53  $t                         0x00003240   Lc    1   --   De 
     54  $d                         0x00003252   Lc    1   --   De 
     55  $t                         0x00003258   Lc    1   --   De 
     56  $d                         0x000032a6   Lc    1   --   De 
     57  $a                         0x000032b0   Lc    1   --   De 
     58  $t                         0x000032b8   Lc    1   --   De 
     59  $d                         0x00003370   Lc    1   --   De 
     60  $t                         0x0000337c   Lc    1   --   De 
     61  $d                         0x000034ac   Lc    1   --   De 
     62  $t                         0x000034b4   Lc    1   --   De 
     63  $d                         0x00003588   Lc    1   --   De 
     64  $t                         0x00003594   Lc    1   --   De 
     65  $d                         0x00003730   Lc    1   --   De 
     66  $t                         0x000037bc   Lc    1   --   De 
     67  $d                         0x000037c4   Lc    1   --   De 
     68  $t                         0x000037c8   Lc    1   --   De 
     69  $d                         0x0000384e   Lc    1   --   De 
     70  $t                         0x00003854   Lc    1   --   De 
     71  $d                         0x000038aa   Lc    1   --   De 
     72  $t                         0x000038bc   Lc    1   --   De 
     73  $d                         0x000038e2   Lc    1   --   De 
     74  $t                         0x000038e8   Lc    1   --   De 
     75  $d                         0x000038fa   Lc    1   --   De 
     76  $t                         0x00003900   Lc    1   --   De 
     77  $d                         0x000039ac   Lc    1   --   De 
     78  $t                         0x000039cc   Lc    1   --   De 
     79  $d                         0x00003b0c   Lc    1   --   De 
     80  $t                         0x00003b24   Lc    1   --   De 
     81  $d                         0x00003c74   Lc    1   --   De 
     82  $t                         0x00003c84   Lc    1   --   De 
     83  $d                         0x00003cd0   Lc    1   --   De 
     84  $t                         0x00003cd8   Lc    1   --   De 
     85  $d                         0x00003cf4   Lc    1   --   De 
     86  $t                         0x00003cf8   Lc    1   --   De 
     87  $d                         0x00003d26   Lc    1   --   De 
     88  $t                         0x00003d2c   Lc    1   --   De 
     89  $d                         0x00003db6   Lc    1   --   De 
     90  $t                         0x00003dc4   Lc    1   --   De 
     91  $d                         0x00003de0   Lc    1   --   De 
     92  $t                         0x00003dec   Lc    1   --   De 
     93  $d                         0x00003e9a   Lc    1   --   De 
     94  $t                         0x00003efc   Lc    1   --   De 
     95  $d                         0x00003f1c   Lc    1   --   De 
     96  $t                         0x00003f20   Lc    1   --   De 
     97  $d                         0x00003f50   Lc    1   --   De 
     98  $t                         0x00003f54   Lc    1   --   De 
     99  $d                         0x00003f84   Lc    1   --   De 
    100  $t                         0x00003f94   Lc    1   --   De 
    101  $d                         0x00003fb8   Lc    1   --   De 
    102  $t                         0x00003fc0   Lc    1   --   De 
    103  $d                         0x00004080   Lc    1   --   De 
    104  $t                         0x00004084   Lc    1   --   De 
    105  $d                         0x000040f2   Lc    1   --   De 
    106  $t                         0x00004100   Lc    1   --   De 
    107  $a                         0x00004110   Lc    1   --   De 
    108  $d                         0x00004150   Lc    1   --   De 
    109  $a                         0x00004160   Lc    1   --   De 
    110  $d                         0x000041b0   Lc    1   --   De 
    111  $t                         0x000041c0   Lc    1   --   De 
    112  $d                         0x00004204   Lc    1   --   De 
    113  $t                         0x00004240   Lc    1   --   De 
    114  $d                         0x0000424e   Lc    1   --   De 
    115  $t                         0x00004254   Lc    1   --   De 
    116  $d                         0x0000425a   Lc    1   --   De 
    117  $a                         0x00004260   Lc    1   --   De 
    118  $t                         0x00004268   Lc    1   --   De 
    119  $d                         0x00004284   Lc    1   --   De 
    120  $t                         0x0000428c   Lc    1   --   De 
    121  $a                         0x000042a8   Lc    1   --   De 
    122  $t                         0x000042b0   Lc    1   --   De 
    123  $d                         0x0000431c   Lc    1   --   De 
    124  $t                         0x00004324   Lc    1   --   De 
    125  $d                         0x0000441a   Lc    1   --   De 
    126  $t                         0x00004424   Lc    1   --   De 
    127  $d                         0x000044ae   Lc    1   --   De 
    128  $t                         0x000044b8   Lc    1   --   De 
    129  $d                         0x000044be   Lc    1   --   De 
    130  $t                         0x000044c4   Lc    1   --   De 
    131  $d                         0x0000456a   Lc    1   --   De 
    132  $a                         0x00004588   Lc    1   --   De 
    133  $t                         0x00004590   Lc    1   --   De 
    134  $d                         0x000045a2   Lc    1   --   De 
    135  $a                         0x000045ac   Lc    1   --   De 
    136  $d                         0x000045e8   Lc    1   --   De 
    137  $a                         0x000045f0   Lc    1   --   De 
    138  $d                         0x0000463c   Lc    1   --   De 
    139  $t                         0x00004644   Lc    1   --   De 
    140  $d                         0x0000466a   Lc    1   --   De 
    141  $d.realdata                0x00004670   Lc    1   --   De 
    142  $d                         0x000050a4   Lc    1   --   De 
    143  $d.realdata                0x00400000   Lc    2   --   De 
    144  $d.realdata                0x0040f800   Lc    4   --   De 
    145  threshold.c                0x00000000   Lc  Abs  File  De 
    146  .text                      0x0000018c   Lc    1  Sect  De   0x6fc
    147  .bss                       0x00400160   Lc    3  Sect  De   0x10c
    148  .bss                       0x0040026c   Lc    3  Sect  De   0xc
    149  .bss                       0x00400278   Lc    3  Sect  De   0xc
    150  .bss                       0x00400284   Lc    3  Sect  De   0x124
    151  .constdata                 0x00004670   Lc    1  Sect  De   0x14
    152  .constdata                 0x00004684   Lc    1  Sect  De   0x14
    153  .constdata                 0x00004698   Lc    1  Sect  De   0x14
    154  .constdata                 0x000046ac   Lc    1  Sect  De   0xc
    155  .constdata                 0x000046b8   Lc    1  Sect  De   0xc
    156  .constdata                 0x000046c4   Lc    1  Sect  De   0x1bb
    157  .data                      0x00400000   Lc    2  Sect  De   0x94
    158  .data                      0x00400094   Lc    2  Sect  De   0x4
    159  .data                      0x00400098   Lc    2  Sect  De   0x4
    160  .data                      0x0040009c   Lc    2  Sect  De   0x4
    161  .data                      0x004000a0   Lc    2  Sect  De   0x4
    162  .data                      0x004000a4   Lc    2  Sect  De   0x4
    163  .data                      0x004000a8   Lc    2  Sect  De   0x4
    164  .data                      0x004000ac   Lc    2  Sect  De   0x1
    165  .data                      0x004000b0   Lc    2  Sect  De   0x4
    166  .data                      0x004000b4   Lc    2  Sect  De   0x4
    167  .data                      0x004000b8   Lc    2  Sect  De   0x4
    168  .data                      0x004000bc   Lc    2  Sect  De   0x4
    169  .data                      0x004000c0   Lc    2  Sect  De   0x1
    170  .data                      0x004000c4   Lc    2  Sect  De   0x4
    171  .data                      0x004000c8   Lc    2  Sect  De   0x4
    172  .data                      0x004000cc   Lc    2  Sect  De   0x4
    173  .data                      0x004000d0   Lc    2  Sect  De   0x4
    174  .data                      0x004000d4   Lc    2  Sect  De   0x1
    175  .data                      0x004000d5   Lc    2  Sect  De   0x1
    176  .data                      0x004000d6   Lc    2  Sect  De   0x1
    177  .data                      0x004000d7   Lc    2  Sect  De   0x1
    178  .data                      0x004000d8   Lc    2  Sect  De   0x4
    179  .data                      0x004000dc   Lc    2  Sect  De   0x4
    180  .data                      0x004000e0   Lc    2  Sect  De   0x4
    181  .data                      0x004000e4   Lc    2  Sect  De   0x4
    182  .data                      0x004000e8   Lc    2  Sect  De   0x2
    183  .data                      0x004000ea   Lc    2  Sect  De   0x2
    184  .data                      0x004000ec   Lc    2  Sect  De   0x4
    185  init_t.c                   0x00000000   Lc  Abs  File  De 
    186  .text                      0x00000888   Lc    1  Sect  De   0x488
    187  comms_t.c                  0x00000000   Lc  Abs  File  De 
    188  .text                      0x00000d10   Lc    1  Sect  De   0x488
    189  activation.c               0x00000000   Lc  Abs  File  De 
    190  .text                      0x00001198   Lc    1  Sect  De   0x168
    191  .constdata                 0x00004880   Lc    1  Sect  De   0x800
    192  process_t.c                0x00000000   Lc  Abs  File  De 
    193  .text                      0x00001300   Lc    1  Sect  De   0x1174
    194  sark_build.c               0x00000000   Lc  Abs  File  De 
    195  .constdata                 0x00005080   Lc    1  Sect  De   0x4
    196  .constdata                 0x00005084   Lc    1  Sect  De   0xa
    197  sark_alib.s                0x00000000   Lc  Abs  File  De 
    198  sark_alloc.c               0x00000000   Lc  Abs  File  De 
    199  sark_base.c                0x00000000   Lc  Abs  File  De 
    200  sark_event.c               0x00000000   Lc  Abs  File  De 
    201  sark_hw.c                  0x00000000   Lc  Abs  File  De 
    202  sark_io.c                  0x00000000   Lc  Abs  File  De 
    203  sark_isr.c                 0x00000000   Lc  Abs  File  De 
    204  sark_pkt.c                 0x00000000   Lc  Abs  File  De 
    205  sark_timer.c               0x00000000   Lc  Abs  File  De 
    206  _alib_reset                0x00000000   Lc    1  Sect  De   0x18c
    207  undef                      0x00000004   Lc    1  Code  De   0x4
    208  reset_vec                  0x00000020   Lc    1  Data  De   0x4
    209  undef_vec                  0x00000024   Lc    1  Data  De   0x4
    210  svc_vec                    0x00000028   Lc    1  Data  De   0x4
    211  pabt_vec                   0x0000002c   Lc    1  Data  De   0x4
    212  dabt_vec                   0x00000030   Lc    1  Data  De   0x4
    213  aplx_proc                  0x00000034   Lc    1  Data  De   0x4
    214  irq_vec                    0x00000038   Lc    1  Data  De   0x4
    215  fiq_vec                    0x0000003c   Lc    1  Data  De   0x4
    216  svc_stack                  0x00000040   Lc    1  Data  De   0x2
    217  irq_stack                  0x00000042   Lc    1  Data  De   0x2
    218  fiq_stack                  0x00000044   Lc    1  Data  De   0x2
    219  sys_stack                  0x00000046   Lc    1  Data  De   0x2
    220  code_top                   0x00000048   Lc    1  Data  De   0x4
    221  heap_base                  0x0000004c   Lc    1  Data  De   0x4
    222  stack_top                  0x00000050   Lc    1  Data  De   0x4
    223  stack_size                 0x00000054   Lc    1  Data  De   0x2
    224  num_msgs                   0x00000056   Lc    1  Data  De   0x1
    225  sark_slot                  0x00000057   Lc    1  Data  De   0x1
    226  num_events                 0x00000058   Lc    1  Data  De   0x1
    227  app_id                     0x00000059   Lc    1  Data  De   0x1
    228  __PAD1                     0x0000005a   Lc    1  Data  De   0x2
    229  stack_fill                 0x0000005c   Lc    1  Data  De   0x4
    230  event_vec                  0x00000060   Lc    1  Data  De   0x18
    231  reset_entry                0x00000078   Lc    1  Code  De   0x4
    232  reset_error                0x000000cc   Lc    1  Code  De   0x4
    233  undef_error                0x000000d4   Lc    1  Code  De   0x4
    234  svc_error                  0x000000dc   Lc    1  Code  De   0x4
    235  pabt_error                 0x000000e4   Lc    1  Code  De   0x4
    236  dabt_error                 0x000000ec   Lc    1  Code  De   0x4
    237  irq_error                  0x000000f4   Lc    1  Code  De   0x4
    238  fiq_error                  0x000000fc   Lc    1  Code  De   0x4
    239  exc_error                  0x00000110   Lc    1  Code  De   0x4
    240  cc_error                   0x00000134   Lc    1  Code  De   0x4
    241  alib_init_mode             0x00002850   Lc    1  Sect  De   0x18
    242  alib_irq_on                0x00002890   Lc    1  Sect  De   0x10
    243  alib_irq_disable           0x00002880   Lc    1  Sect  De   0x10
    244  alib_int_disable           0x00002868   Lc    1  Sect  De   0x10
    245  alib_int_restore           0x00002878   Lc    1  Sect  De   0x8
    246  alib_wfi                   0x0000294c   Lc    1  Sect  De   0x8
    247  alib_lock                  0x000028a0   Lc    1  Sect  De   0x38
    248  lg1                        0x000028b4   Lc    1  Code  De   0x4
    249  alib_strcpy                0x00002938   Lc    1  Sect  De   0x14
    250  alib_word_set              0x000029b8   Lc    1  Sect  De   0x24
    251  ws1                        0x000029bc   Lc    1  Code  De   0x4
    252  alib_word_cpy              0x00002954   Lc    1  Sect  De   0x64
    253  wc1                        0x0000297c   Lc    1  Code  De   0x4
    254  wc2                        0x00002994   Lc    1  Code  De   0x4
    255  alib_delay                 0x0000280c   Lc    1  Sect  De   0x14
    256  delay1                     0x00002815   Lc    1  Code  De   0x2
    257  alib_div10                 0x00002820   Lc    1  Sect  De   0x30
    258  alib_sark_int              0x000028d8   Lc    1  Sect  De   0x34
    259  alib_schedule              0x0000290c   Lc    1  Sect  De   0x2c
    260  alib_aplx                  0x000027b4   Lc    1  Sect  De   0x58
    261  aplx_l0                    0x000027bd   Lc    1  Code  De   0x2
    262  aplx_buffer                0x000027cc   Lc    1  Data  De   0x4
    263  aplx_loader                0x000027d1   Lc    1  Code  De   0x2
    264  aplx_rcopy                 0x000027e5   Lc    1  Code  De   0x2
    265  aplx_copy                  0x000027e9   Lc    1  Code  De   0x2
    266  aplx_fill                  0x000027f7   Lc    1  Code  De   0x2
    267  aplx_l1                    0x000027fd   Lc    1  Code  De   0x2
    268  aplx_exec                  0x00002807   Lc    1  Code  De   0x2
    269  _alib_align                0x000050a4   Lc    1  Sect  De   0x4
    270  i.rte_handler              0x000037bc   Lc    1  Sect  De   0xc
    271  i.sark_block_init          0x00003900   Lc    1  Sect  De   0x12
    272  i.sark_cmd_fill            0x00003912   Lc    1  Sect  De   0xe
    273  i.sark_cmd_read            0x00003920   Lc    1  Sect  De   0x5e
    274  i.sark_cmd_ver             0x00003980   Lc    1  Sect  De   0x4c
    275  i.sark_cmd_write           0x000039cc   Lc    1  Sect  De   0x5c
    276  i.sark_init                0x00003a48   Lc    1  Sect  De   0xdc
    277  i.sark_int                 0x00003b24   Lc    1  Sect  De   0x160
    278  i.sark_msg_free            0x00003cd8   Lc    1  Sect  De   0x20
    279  i.sark_msg_get             0x00003cf8   Lc    1  Sect  De   0x34
    280  i.sark_msg_send            0x00003d2c   Lc    1  Sect  De   0x98
    281  i.sark_shmsg_free          0x00003efc   Lc    1  Sect  De   0x24
    282  i.sark_shmsg_get           0x00003f20   Lc    1  Sect  De   0x34
    283  .bss                       0x004003a8   Lc    3  Sect  De   0x60
    284  i.event_alloc              0x000031d0   Lc    1  Sect  De   0x40
    285  i.event_pause              0x00003210   Lc    1  Sect  De   0x30
    286  i.event_stop               0x00003240   Lc    1  Sect  De   0x18
    287  .bss                       0x00400408   Lc    3  Sect  De   0x9c
    288  i.get4                     0x00003258   Lc    1  Sect  De   0x12
    289  get4                       0x00003259   Lc    1  Code  De   0x12
    290  i.rtr_mc_set               0x00003854   Lc    1  Sect  De   0x68
    291  i.rtr_p2p_get              0x000038bc   Lc    1  Sect  De   0x2c
    292  i.sark_led_set             0x00003c84   Lc    1  Sect  De   0x54
    293  i.sark_vic_init            0x00003f54   Lc    1  Sect  De   0x40
    294  i.sark_vic_set             0x00003f94   Lc    1  Sect  De   0x2c
    295  i.v2p_mask                 0x00004644   Lc    1  Sect  De   0x2c
    296  i.rtr_alloc                0x000037c8   Lc    1  Sect  De   0x8c
    297  i.sark_alloc               0x000038e8   Lc    1  Sect  De   0x18
    298  i.sark_heap_init           0x00003a30   Lc    1  Sect  De   0x18
    299  i.sark_xalloc              0x00003fc0   Lc    1  Sect  De   0xc4
    300  i.io_buf_init              0x0000326c   Lc    1  Sect  De   0x44
    301  io_buf_init                0x0000326d   Lc    1  Code  De   0x3a
    302  i.io_printf                0x000032b8   Lc    1  Sect  De   0x1fc
    303  i.io_put_char              0x000034b4   Lc    1  Sect  De   0xe0
    304  i.io_put_fixed             0x00003594   Lc    1  Sect  De   0xb8
    305  io_put_fixed               0x00003595   Lc    1  Code  De   0xb8
    306  i.io_put_int               0x0000364c   Lc    1  Sect  De   0x64
    307  io_put_int                 0x0000364d   Lc    1  Code  De   0x64
    308  i.io_put_sfixed            0x000036b0   Lc    1  Sect  De   0x20
    309  io_put_sfixed              0x000036b1   Lc    1  Code  De   0x20
    310  i.io_put_ufixed            0x000036d0   Lc    1  Sect  De   0x18
    311  io_put_ufixed              0x000036d1   Lc    1  Code  De   0x18
    312  .constdata                 0x00005090   Lc    1  Sect  De   0x11
    313  hex                        0x00005090   Lc    1  Data  De   0x11
    314  .data                      0x004000f0   Lc    2  Sect  De   0x10
    315  sp_ptr                     0x004000f0   Lc    2  Data  De   0x4
    316  buf_ptr                    0x004000f4   Lc    2  Data  De   0x4
    317  io_msg                     0x004000f8   Lc    2  Data  De   0x4
    318  io_buf                     0x004000fc   Lc    2  Data  De   0x4
    319  i.__ARM_common_switch8     0x000029dc   Lc    1  Sect  De   0x18
    320  CC_TCR                     0x00000000   Lc  Abs   --   De 
    321  CMD_VER                    0x00000000   Lc  Abs   --   De 
    322  ETH_CONTROL                0x00000000   Lc  Abs   --   De 
    323  ITCM_BASE                  0x00000000   Lc  Abs   --   De 
    324  MC_STAT                    0x00000000   Lc  Abs   --   De 
    325  PKT_MC                     0x00000000   Lc  Abs   --   De 
    326  RST_POR                    0x00000000   Lc  Abs   --   De 
    327  RTR_CONTROL                0x00000000   Lc  Abs   --   De 
    328  SARK_VIRT_CPU              0x00000000   Lc  Abs   --   De 
    329  SC_CHIP_ID                 0x00000000   Lc  Abs   --   De 
    330  SRF_NONE                   0x00000000   Lc  Abs   --   De 
    331  T1_LOAD                    0x00000000   Lc  Abs   --   De 
    332  TAG_HOST                   0x00000000   Lc  Abs   --   De 
    333  TC_LOAD                    0x00000000   Lc  Abs   --   De 
    334  TYPE_BYTE                  0x00000000   Lc  Abs   --   De 
    335  VIC_IRQST                  0x00000000   Lc  Abs   --   De 
    336  WDOG_INT                   0x00000000   Lc  Abs   --   De 
    337  WD_LOAD                    0x00000000   Lc  Abs   --   De 
    338  ALLOC_LOCK                 0x00000001   Lc  Abs   --   De 
    339  APLX_ACOPY                 0x00000001   Lc  Abs   --   De 
    340  A_RTE_RESET                0x00000001   Lc  Abs   --   De 
    341  BUF_WRITE                  0x00000001   Lc  Abs   --   De 
    342  CMD_RUN                    0x00000001   Lc  Abs   --   De 
    343  ETH_TX_CLR                 0x00000001   Lc  Abs   --   De 
    344  LED_0                      0x00000001   Lc  Abs   --   De 
    345  PHY_CTRL_NRST              0x00000001   Lc  Abs   --   De 
    346  RST_WDT                    0x00000001   Lc  Abs   --   De 
    347  RTR_ALLOC_FIRST            0x00000001   Lc  Abs   --   De 
    348  SARK_EVENT                 0x00000001   Lc  Abs   --   De 
    349  SOFTWARE_INT               0x00000001   Lc  Abs   --   De 
    350  SRF_ETH                    0x00000001   Lc  Abs   --   De 
    351  TYPE_HALF                  0x00000001   Lc  Abs   --   De 
    352  WD_INT_B                   0x00000001   Lc  Abs   --   De 
    353  ALLOC_ID                   0x00000002   Lc  Abs   --   De 
    354  APLX_RCOPY                 0x00000002   Lc  Abs   --   De 
    355  A_RTE_UNDEF                0x00000002   Lc  Abs   --   De 
    356  A_STATE_RTE                0x00000002   Lc  Abs   --   De 
    357  CMD_READ                   0x00000002   Lc  Abs   --   De 
    358  COMM_RX_INT                0x00000002   Lc  Abs   --   De 
    359  PHY_CTRL_DIN               0x00000002   Lc  Abs   --   De 
    360  RST_USER                   0x00000002   Lc  Abs   --   De 
    361  SRF_PHY_WAIT               0x00000002   Lc  Abs   --   De 
    362  TYPE_WORD                  0x00000002   Lc  Abs   --   De 
    363  WD_RST_B                   0x00000002   Lc  Abs   --   De 
    364  APLX_FILL                  0x00000003   Lc  Abs   --   De 
    365  A_RTE_SVC                  0x00000003   Lc  Abs   --   De 
    366  CMD_WRITE                  0x00000003   Lc  Abs   --   De 
    367  COMM_TX_INT                0x00000003   Lc  Abs   --   De 
    368  P2P_BPE                    0x00000003   Lc  Abs   --   De 
    369  P2P_LOG_EPW                0x00000003   Lc  Abs   --   De 
    370  RST_SW                     0x00000003   Lc  Abs   --   De 
    371  APLX_EXEC                  0x00000004   Lc  Abs   --   De 
    372  A_RTE_PABT                 0x00000004   Lc  Abs   --   De 
    373  CC_TXDATA                  0x00000004   Lc  Abs   --   De 
    374  CMD_APLX                   0x00000004   Lc  Abs   --   De 
    375  DMA_ADRS                   0x00000004   Lc  Abs   --   De 
    376  ETH_STATUS                 0x00000004   Lc  Abs   --   De 
    377  MC_CMD                     0x00000004   Lc  Abs   --   De 
    378  NUM_SDP_MSGS               0x00000004   Lc  Abs   --   De 
    379  PHY_CTRL_DOUT              0x00000004   Lc  Abs   --   De 
    380  RST_WDI                    0x00000004   Lc  Abs   --   De 
    381  RTR_STATUS                 0x00000004   Lc  Abs   --   De 
    382  SC_CPU_DIS                 0x00000004   Lc  Abs   --   De 
    383  SERIAL_SO                  0x00000004   Lc  Abs   --   De 
    384  SRF_PHY_RST                0x00000004   Lc  Abs   --   De 
    385  T1_COUNT                   0x00000004   Lc  Abs   --   De 
    386  TC_COUNT                   0x00000004   Lc  Abs   --   De 
    387  TIMER1_INT                 0x00000004   Lc  Abs   --   De 
    388  VIC_FIQST                  0x00000004   Lc  Abs   --   De 
    389  WD_COUNT                   0x00000004   Lc  Abs   --   De 
    390  A_LOCK_SEMA                0x00000005   Lc  Abs   --   De 
    391  A_RTE_DABT                 0x00000005   Lc  Abs   --   De 
    392  CMD_FILL                   0x00000005   Lc  Abs   --   De 
    393  PORT_SHIFT                 0x00000005   Lc  Abs   --   De 
    394  TIMER2_INT                 0x00000005   Lc  Abs   --   De 
    395  A_RTE_IRQ                  0x00000006   Lc  Abs   --   De 
    396  CC_RDY_INT                 0x00000006   Lc  Abs   --   De 
    397  EVENT_COUNT                0x00000006   Lc  Abs   --   De 
    398  NUM_LINKS                  0x00000006   Lc  Abs   --   De 
    399  A_RTE_FIQ                  0x00000007   Lc  Abs   --   De 
    400  CC_RPE_INT                 0x00000007   Lc  Abs   --   De 
    401  P2P_BMASK                  0x00000007   Lc  Abs   --   De 
    402  P2P_EMASK                  0x00000007   Lc  Abs   --   De 
    403  A_RTE_VIC                  0x00000008   Lc  Abs   --   De 
    404  CC_RFE_INT                 0x00000008   Lc  Abs   --   De 
    405  CC_TXKEY                   0x00000008   Lc  Abs   --   De 
    406  DMA_ADRT                   0x00000008   Lc  Abs   --   De 
    407  ETH_TX_LEN                 0x00000008   Lc  Abs   --   De 
    408  MC_DIRC                    0x00000008   Lc  Abs   --   De 
    409  P2P_EPW                    0x00000008   Lc  Abs   --   De 
    410  PHY_CTRL_OE                0x00000008   Lc  Abs   --   De 
    411  RTR_EHDR                   0x00000008   Lc  Abs   --   De 
    412  SARK_RANDOM                0x00000008   Lc  Abs   --   De 
    413  SC_SET_IRQ                 0x00000008   Lc  Abs   --   De 
    414  SERIAL_SI                  0x00000008   Lc  Abs   --   De 
    415  SRF_PHY_INIT               0x00000008   Lc  Abs   --   De 
    416  T1_CONTROL                 0x00000008   Lc  Abs   --   De 
    417  TC_CONTROL                 0x00000008   Lc  Abs   --   De 
    418  VIC_RAW                    0x00000008   Lc  Abs   --   De 
    419  WD_CTRL                    0x00000008   Lc  Abs   --   De 
    420  CC_TFL_INT                 0x00000009   Lc  Abs   --   De 
    421  CC_TOV_INT                 0x0000000a   Lc  Abs   --   De 
    422  CLK_XTAL_MHZ               0x0000000a   Lc  Abs   --   De 
    423  CC_TMT_INT                 0x0000000b   Lc  Abs   --   De 
    424  CC_RSR                     0x0000000c   Lc  Abs   --   De 
    425  DMA_DESC                   0x0000000c   Lc  Abs   --   De 
    426  DMA_DONE_INT               0x0000000c   Lc  Abs   --   De 
    427  ETH_TX_CMD                 0x0000000c   Lc  Abs   --   De 
    428  MC_MCFG                    0x0000000c   Lc  Abs   --   De 
    429  RTR_EKEY                   0x0000000c   Lc  Abs   --   De 
    430  SC_CLR_IRQ                 0x0000000c   Lc  Abs   --   De 
    431  T1_INT_CLR                 0x0000000c   Lc  Abs   --   De 
    432  TC_INT_CLR                 0x0000000c   Lc  Abs   --   De 
    433  VIC_SELECT                 0x0000000c   Lc  Abs   --   De 
    434  WD_INTCLR                  0x0000000c   Lc  Abs   --   De 
    435  DMA_ERR_INT                0x0000000d   Lc  Abs   --   De 
    436  DMA_TO_INT                 0x0000000e   Lc  Abs   --   De 
    437  RTR_DIAG_INT               0x0000000f   Lc  Abs   --   De 
    438  SARK_SLOT                  0x0000000f   Lc  Abs   --   De 
    439  APLX_ENTRY_SIZE            0x00000010   Lc  Abs   --   De 
    440  CC_RXDATA                  0x00000010   Lc  Abs   --   De 
    441  CMD_REMAP                  0x00000010   Lc  Abs   --   De 
    442  DMA_CTRL                   0x00000010   Lc  Abs   --   De 
    443  ETH_RX_CLR                 0x00000010   Lc  Abs   --   De 
    444  ETH_RX_CMD                 0x00000010   Lc  Abs   --   De 
    445  INIT_EVENTS                0x00000010   Lc  Abs   --   De 
    446  MC_REFP                    0x00000010   Lc  Abs   --   De 
    447  MODE_USER                  0x00000010   Lc  Abs   --   De 
    448  PHY_CTRL_CLK               0x00000010   Lc  Abs   --   De 
    449  RTR_DUMP_INT               0x00000010   Lc  Abs   --   De 
    450  RTR_EDAT                   0x00000010   Lc  Abs   --   De 
    451  SC_CPU_OK                  0x00000010   Lc  Abs   --   De 
    452  SC_SET_OK                  0x00000010   Lc  Abs   --   De 
    453  SERIAL_CLK                 0x00000010   Lc  Abs   --   De 
    454  T1_RAW_INT                 0x00000010   Lc  Abs   --   De 
    455  TC_RAW_INT                 0x00000010   Lc  Abs   --   De 
    456  VIC_ENABLE                 0x00000010   Lc  Abs   --   De 
    457  WD_RAWINT                  0x00000010   Lc  Abs   --   De 
    458  CMD_LINK_READ              0x00000011   Lc  Abs   --   De 
    459  MODE_FIQ                   0x00000011   Lc  Abs   --   De 
    460  RTR_ERR_INT                0x00000011   Lc  Abs   --   De 
    461  CMD_LINK_WRITE             0x00000012   Lc  Abs   --   De 
    462  CPU_INT                    0x00000012   Lc  Abs   --   De 
    463  MODE_IRQ                   0x00000012   Lc  Abs   --   De 
    464  NUM_CPUS                   0x00000012   Lc  Abs   --   De 
    465  CMD_AR                     0x00000013   Lc  Abs   --   De 
    466  ETH_TX_INT                 0x00000013   Lc  Abs   --   De 
    467  MODE_SVC                   0x00000013   Lc  Abs   --   De 
    468  CC_RXKEY                   0x00000014   Lc  Abs   --   De 
    469  CMD_NNP                    0x00000014   Lc  Abs   --   De 
    470  DMA_STAT                   0x00000014   Lc  Abs   --   De 
    471  ETH_MAC_LO                 0x00000014   Lc  Abs   --   De 
    472  ETH_RX_INT                 0x00000014   Lc  Abs   --   De 
    473  MC_CASL                    0x00000014   Lc  Abs   --   De 
    474  RTR_ESTAT                  0x00000014   Lc  Abs   --   De 
    475  SC_CLR_OK                  0x00000014   Lc  Abs   --   De 
    476  T1_MASK_INT                0x00000014   Lc  Abs   --   De 
    477  TC_MASK_INT                0x00000014   Lc  Abs   --   De 
    478  VIC_DISABLE                0x00000014   Lc  Abs   --   De 
    479  WD_MSKINT                  0x00000014   Lc  Abs   --   De 
    480  CMD_P2PC                   0x00000015   Lc  Abs   --   De 
    481  ETH_PHY_INT                0x00000015   Lc  Abs   --   De 
    482  CMD_SIG                    0x00000016   Lc  Abs   --   De 
    483  SLOW_CLK_INT               0x00000016   Lc  Abs   --   De 
    484  CC_TNF_INT                 0x00000017   Lc  Abs   --   De 
    485  CMD_FFD                    0x00000017   Lc  Abs   --   De 
    486  MODE_ABT                   0x00000017   Lc  Abs   --   De 
    487  CC_MC_INT                  0x00000018   Lc  Abs   --   De 
    488  CC_SAR                     0x00000018   Lc  Abs   --   De 
    489  CMD_AS                     0x00000018   Lc  Abs   --   De 
    490  DMA_GCTL                   0x00000018   Lc  Abs   --   De 
    491  ETH_MAC_HI                 0x00000018   Lc  Abs   --   De 
    492  MC_DQSS                    0x00000018   Lc  Abs   --   De 
    493  MC_RAM_WIDTH               0x00000018   Lc  Abs   --   De 
    494  RTR_DHDR                   0x00000018   Lc  Abs   --   De 
    495  SC_SOFT_RST_L              0x00000018   Lc  Abs   --   De 
    496  T1_BG_LOAD                 0x00000018   Lc  Abs   --   De 
    497  TC_BG_LOAD                 0x00000018   Lc  Abs   --   De 
    498  VIC_SOFT_SET               0x00000018   Lc  Abs   --   De 
    499  CC_P2P_INT                 0x00000019   Lc  Abs   --   De 
    500  CMD_LED                    0x00000019   Lc  Abs   --   De 
    501  CC_NN_INT                  0x0000001a   Lc  Abs   --   De 
    502  CMD_IPTAG                  0x0000001a   Lc  Abs   --   De 
    503  CC_FR_INT                  0x0000001b   Lc  Abs   --   De 
    504  CMD_SROM                   0x0000001b   Lc  Abs   --   De 
    505  MODE_UND                   0x0000001b   Lc  Abs   --   De 
    506  CC_TEST                    0x0000001c   Lc  Abs   --   De 
    507  CMD_ALLOC                  0x0000001c   Lc  Abs   --   De 
    508  DMA_CRCC                   0x0000001c   Lc  Abs   --   De 
    509  ETH_PHY_CTRL               0x0000001c   Lc  Abs   --   De 
    510  INT0_INT                   0x0000001c   Lc  Abs   --   De 
    511  MC_MRD                     0x0000001c   Lc  Abs   --   De 
    512  RTR_DKEY                   0x0000001c   Lc  Abs   --   De 
    513  SARK_MSG_INT               0x0000001c   Lc  Abs   --   De 
    514  SC_HARD_RST_L              0x0000001c   Lc  Abs   --   De 
    515  VIC_SOFT_CLR               0x0000001c   Lc  Abs   --   De 
    516  CMD_RTR                    0x0000001d   Lc  Abs   --   De 
    517  INT1_INT                   0x0000001d   Lc  Abs   --   De 
    518  SARK_SIG_INT               0x0000001d   Lc  Abs   --   De 
    519  GPIO8_INT                  0x0000001e   Lc  Abs   --   De 
    520  CPU_MASK                   0x0000001f   Lc  Abs   --   De 
    521  GPIO9_INT                  0x0000001f   Lc  Abs   --   De 
    522  MODE_SYS                   0x0000001f   Lc  Abs   --   De 
    523  DMA_CRCR                   0x00000020   Lc  Abs   --   De 
    524  ETH_INT_CLR                0x00000020   Lc  Abs   --   De 
    525  MC_CAM_WIDTH               0x00000020   Lc  Abs   --   De 
    526  MC_RAS                     0x00000020   Lc  Abs   --   De 
    527  RTR_DDAT                   0x00000020   Lc  Abs   --   De 
    528  SC_SUBS_RST_L              0x00000020   Lc  Abs   --   De 
    529  SERIAL_NCS                 0x00000020   Lc  Abs   --   De 
    530  SV_SSIZE                   0x00000020   Lc  Abs   --   De 
    531  SV_VSIZE                   0x00000020   Lc  Abs   --   De 
    532  T2_LOAD                    0x00000020   Lc  Abs   --   De 
    533  THUMB_BIT                  0x00000020   Lc  Abs   --   De 
    534  TIMER_OFFSET               0x00000020   Lc  Abs   --   De 
    535  VIC_PROTECT                0x00000020   Lc  Abs   --   De 
    536  DMA_TMTV                   0x00000024   Lc  Abs   --   De 
    537  ETH_RX_BUF_RP              0x00000024   Lc  Abs   --   De 
    538  MC_RC                      0x00000024   Lc  Abs   --   De 
    539  RTR_DLINK                  0x00000024   Lc  Abs   --   De 
    540  SC_SOFT_RST_P              0x00000024   Lc  Abs   --   De 
    541  T2_COUNT                   0x00000024   Lc  Abs   --   De 
    542  DMA_SCTL                   0x00000028   Lc  Abs   --   De 
    543  MC_RCD                     0x00000028   Lc  Abs   --   De 
    544  RTR_DSTAT                  0x00000028   Lc  Abs   --   De 
    545  SC_HARD_RST_P              0x00000028   Lc  Abs   --   De 
    546  T2_CONTROL                 0x00000028   Lc  Abs   --   De 
    547  ETH_RX_DESC_RP             0x0000002c   Lc  Abs   --   De 
    548  MC_RFC                     0x0000002c   Lc  Abs   --   De 
    549  RTR_DGEN                   0x0000002c   Lc  Abs   --   De 
    550  SC_SUBS_RST_P              0x0000002c   Lc  Abs   --   De 
    551  T2_INT_CLR                 0x0000002c   Lc  Abs   --   De 
    552  VCPU_RT_CODE               0x0000002c   Lc  Abs   --   De 
    553  VCPU_CPU_FLAGS             0x0000002d   Lc  Abs   --   De 
    554  VCPU_CPU_STATE             0x0000002e   Lc  Abs   --   De 
    555  VCPU_APP_ID                0x0000002f   Lc  Abs   --   De 
    556  MC_RP                      0x00000030   Lc  Abs   --   De 
    557  SARK_CPU_CLK               0x00000030   Lc  Abs   --   De 
    558  SC_RST_CODE                0x00000030   Lc  Abs   --   De 
    559  T2_RAW_INT                 0x00000030   Lc  Abs   --   De 
    560  VIC_VADDR                  0x00000030   Lc  Abs   --   De 
    561  MC_RRD                     0x00000034   Lc  Abs   --   De 
    562  SC_MON_ID                  0x00000034   Lc  Abs   --   De 
    563  T2_MASK_INT                0x00000034   Lc  Abs   --   De 
    564  VIC_DEFADDR                0x00000034   Lc  Abs   --   De 
    565  MC_WR                      0x00000038   Lc  Abs   --   De 
    566  SC_MISC_CTRL               0x00000038   Lc  Abs   --   De 
    567  SERIAL_OE                  0x00000038   Lc  Abs   --   De 
    568  T2_BG_LOAD                 0x00000038   Lc  Abs   --   De 
    569  GPIO_RES                   0x0000003c   Lc  Abs   --   De 
    570  MC_WTR                     0x0000003c   Lc  Abs   --   De 
    571  APLX_BUF_SIZE              0x00000040   Lc  Abs   --   De 
    572  CMD_TUBE                   0x00000040   Lc  Abs   --   De 
    573  DMA_STAT0                  0x00000040   Lc  Abs   --   De 
    574  FIQ_STACK                  0x00000040   Lc  Abs   --   De 
    575  GPIO_PORT                  0x00000040   Lc  Abs   --   De 
    576  IMASK_FIQ                  0x00000040   Lc  Abs   --   De 
    577  IRQ_STACK                  0x00000040   Lc  Abs   --   De 
    578  MC_XP                      0x00000040   Lc  Abs   --   De 
    579  SV_RSIZE                   0x00000040   Lc  Abs   --   De 
    580  DMA_STAT1                  0x00000044   Lc  Abs   --   De 
    581  GPIO_DIR                   0x00000044   Lc  Abs   --   De 
    582  MC_XSR                     0x00000044   Lc  Abs   --   De 
    583  DMA_STAT2                  0x00000048   Lc  Abs   --   De 
    584  GPIO_READ                  0x00000048   Lc  Abs   --   De 
    585  GPIO_SET                   0x00000048   Lc  Abs   --   De 
    586  MC_ESR                     0x00000048   Lc  Abs   --   De 
    587  DMA_STAT3                  0x0000004c   Lc  Abs   --   De 
    588  GPIO_CLR                   0x0000004c   Lc  Abs   --   De 
    589  MC_MCFG2                   0x0000004c   Lc  Abs   --   De 
    590  DMA_STAT4                  0x00000050   Lc  Abs   --   De 
    591  MC_MCFG3                   0x00000050   Lc  Abs   --   De 
    592  PLL_LOCK_TIME              0x00000050   Lc  Abs   --   De 
    593  SC_PLL1                    0x00000050   Lc  Abs   --   De 
    594  DMA_STAT5                  0x00000054   Lc  Abs   --   De 
    595  SC_PLL2                    0x00000054   Lc  Abs   --   De 
    596  DMA_STAT6                  0x00000058   Lc  Abs   --   De 
    597  SC_FLAG                    0x00000058   Lc  Abs   --   De 
    598  SC_SETFLAG                 0x00000058   Lc  Abs   --   De 
    599  DMA_STAT7                  0x0000005c   Lc  Abs   --   De 
    600  SC_CLRFLAG                 0x0000005c   Lc  Abs   --   De 
    601  SC_CLKMUX                  0x00000060   Lc  Abs   --   De 
    602  SVC_STACK                  0x00000060   Lc  Abs   --   De 
    603  SV_USIZE                   0x00000060   Lc  Abs   --   De 
    604  SC_SLEEP                   0x00000064   Lc  Abs   --   De 
    605  SC_TS0                     0x00000068   Lc  Abs   --   De 
    606  SC_TS1                     0x0000006c   Lc  Abs   --   De 
    607  SC_TS2                     0x00000070   Lc  Abs   --   De 
    608  IMASK_IRQ                  0x00000080   Lc  Abs   --   De 
    609  RC_OK                      0x00000080   Lc  Abs   --   De 
    610  SC_ARB0                    0x00000080   Lc  Abs   --   De 
    611  SV_ISIZE                   0x00000080   Lc  Abs   --   De 
    612  VCPU_SIZE                  0x00000080   Lc  Abs   --   De 
    613  RC_LEN                     0x00000081   Lc  Abs   --   De 
    614  RC_SUM                     0x00000082   Lc  Abs   --   De 
    615  RC_CMD                     0x00000083   Lc  Abs   --   De 
    616  RC_ARG                     0x00000084   Lc  Abs   --   De 
    617  RC_PORT                    0x00000085   Lc  Abs   --   De 
    618  RC_TIMEOUT                 0x00000086   Lc  Abs   --   De 
    619  RC_ROUTE                   0x00000087   Lc  Abs   --   De 
    620  RC_CPU                     0x00000088   Lc  Abs   --   De 
    621  RC_DEAD                    0x00000089   Lc  Abs   --   De 
    622  RC_BUF                     0x0000008a   Lc  Abs   --   De 
    623  RC_P2P_NOREPLY             0x0000008b   Lc  Abs   --   De 
    624  RC_P2P_REJECT              0x0000008c   Lc  Abs   --   De 
    625  RC_P2P_BUSY                0x0000008d   Lc  Abs   --   De 
    626  RC_P2P_TIMEOUT             0x0000008e   Lc  Abs   --   De 
    627  RC_PKT_TX                  0x0000008f   Lc  Abs   --   De 
    628  IMASK_ALL                  0x000000c0   Lc  Abs   --   De 
    629  PORT_MASK                  0x000000e0   Lc  Abs   --   De 
    630  SRF_HW_VER                 0x000000f0   Lc  Abs   --   De 
    631  APLX_END                   0x000000ff   Lc  Abs   --   De 
    632  PORT_ETH                   0x000000ff   Lc  Abs   --   De 
    633  TAG_NONE                   0x000000ff   Lc  Abs   --   De 
    634  MC_QOS0                    0x00000100   Lc  Abs   --   De 
    635  SC_TAS0                    0x00000100   Lc  Abs   --   De 
    636  SDP_BUF_SIZE               0x00000100   Lc  Abs   --   De 
    637  SYS_BOOT                   0x00000100   Lc  Abs   --   De 
    638  VIC_ADDR                   0x00000100   Lc  Abs   --   De 
    639  VIC_ADDR0                  0x00000100   Lc  Abs   --   De 
    640  DMA_AD2S                   0x00000104   Lc  Abs   --   De 
    641  MC_QOS1                    0x00000104   Lc  Abs   --   De 
    642  VIC_ADDR1                  0x00000104   Lc  Abs   --   De 
    643  DMA_AD2T                   0x00000108   Lc  Abs   --   De 
    644  MC_QOS2                    0x00000108   Lc  Abs   --   De 
    645  VIC_ADDR2                  0x00000108   Lc  Abs   --   De 
    646  DMA_DES2                   0x0000010c   Lc  Abs   --   De 
    647  MC_QOS3                    0x0000010c   Lc  Abs   --   De 
    648  VIC_ADDR3                  0x0000010c   Lc  Abs   --   De 
    649  MC_QOS4                    0x00000110   Lc  Abs   --   De 
    650  VIC_ADDR4                  0x00000110   Lc  Abs   --   De 
    651  MC_QOS5                    0x00000114   Lc  Abs   --   De 
    652  VIC_ADDR5                  0x00000114   Lc  Abs   --   De 
    653  MC_QOS6                    0x00000118   Lc  Abs   --   De 
    654  VIC_ADDR6                  0x00000118   Lc  Abs   --   De 
    655  MC_QOS7                    0x0000011c   Lc  Abs   --   De 
    656  VIC_ADDR7                  0x0000011c   Lc  Abs   --   De 
    657  MC_QOS8                    0x00000120   Lc  Abs   --   De 
    658  SYS_STACK                  0x00000120   Lc  Abs   --   De 
    659  VIC_ADDR8                  0x00000120   Lc  Abs   --   De 
    660  MC_QOS9                    0x00000124   Lc  Abs   --   De 
    661  VIC_ADDR9                  0x00000124   Lc  Abs   --   De 
    662  MC_QOS10                   0x00000128   Lc  Abs   --   De 
    663  VIC_ADDR10                 0x00000128   Lc  Abs   --   De 
    664  MC_QOS11                   0x0000012c   Lc  Abs   --   De 
    665  VIC_ADDR11                 0x0000012c   Lc  Abs   --   De 
    666  MC_QOS12                   0x00000130   Lc  Abs   --   De 
    667  VIC_ADDR12                 0x00000130   Lc  Abs   --   De 
    668  MC_QOS13                   0x00000134   Lc  Abs   --   De 
    669  VIC_ADDR13                 0x00000134   Lc  Abs   --   De 
    670  MC_QOS14                   0x00000138   Lc  Abs   --   De 
    671  VIC_ADDR14                 0x00000138   Lc  Abs   --   De 
    672  MC_QOS15                   0x0000013c   Lc  Abs   --   De 
    673  VIC_ADDR15                 0x0000013c   Lc  Abs   --   De 
    674  DMA_CRCT                   0x00000180   Lc  Abs   --   De 
    675  SC_TAC0                    0x00000180   Lc  Abs   --   De 
    676  MC_CCFG0                   0x00000200   Lc  Abs   --   De 
    677  RTR_DGF0                   0x00000200   Lc  Abs   --   De 
    678  SC_LINK_DIS                0x00000200   Lc  Abs   --   De 
    679  VIC_CNTL                   0x00000200   Lc  Abs   --   De 
    680  VIC_CNTL0                  0x00000200   Lc  Abs   --   De 
    681  MC_CCFG1                   0x00000204   Lc  Abs   --   De 
    682  RTR_DGF1                   0x00000204   Lc  Abs   --   De 
    683  VIC_CNTL1                  0x00000204   Lc  Abs   --   De 
    684  MC_CCFG2                   0x00000208   Lc  Abs   --   De 
    685  RTR_DGF2                   0x00000208   Lc  Abs   --   De 
    686  VIC_CNTL2                  0x00000208   Lc  Abs   --   De 
    687  MC_CCFG3                   0x0000020c   Lc  Abs   --   De 
    688  RTR_DGF3                   0x0000020c   Lc  Abs   --   De 
    689  VIC_CNTL3                  0x0000020c   Lc  Abs   --   De 
    690  RTR_DGF4                   0x00000210   Lc  Abs   --   De 
    691  VIC_CNTL4                  0x00000210   Lc  Abs   --   De 
    692  RTR_DGF5                   0x00000214   Lc  Abs   --   De 
    693  VIC_CNTL5                  0x00000214   Lc  Abs   --   De 
    694  RTR_DGF6                   0x00000218   Lc  Abs   --   De 
    695  VIC_CNTL6                  0x00000218   Lc  Abs   --   De 
    696  RTR_DGF7                   0x0000021c   Lc  Abs   --   De 
    697  VIC_CNTL7                  0x0000021c   Lc  Abs   --   De 
    698  RTR_DGF8                   0x00000220   Lc  Abs   --   De 
    699  VIC_CNTL8                  0x00000220   Lc  Abs   --   De 
    700  RTR_DGF9                   0x00000224   Lc  Abs   --   De 
    701  VIC_CNTL9                  0x00000224   Lc  Abs   --   De 
    702  RTR_DGF10                  0x00000228   Lc  Abs   --   De 
    703  VIC_CNTL10                 0x00000228   Lc  Abs   --   De 
    704  RTR_DGF11                  0x0000022c   Lc  Abs   --   De 
    705  VIC_CNTL11                 0x0000022c   Lc  Abs   --   De 
    706  RTR_DGF12                  0x00000230   Lc  Abs   --   De 
    707  VIC_CNTL12                 0x00000230   Lc  Abs   --   De 
    708  RTR_DGF13                  0x00000234   Lc  Abs   --   De 
    709  VIC_CNTL13                 0x00000234   Lc  Abs   --   De 
    710  RTR_DGF14                  0x00000238   Lc  Abs   --   De 
    711  VIC_CNTL14                 0x00000238   Lc  Abs   --   De 
    712  RTR_DGF15                  0x0000023c   Lc  Abs   --   De 
    713  VIC_CNTL15                 0x0000023c   Lc  Abs   --   De 
    714  DLL_STATUS                 0x00000300   Lc  Abs   --   De 
    715  RTR_DGC0                   0x00000300   Lc  Abs   --   De 
    716  DLL_CONFIG0                0x00000304   Lc  Abs   --   De 
    717  RTR_DGC1                   0x00000304   Lc  Abs   --   De 
    718  DLL_CONFIG1                0x00000308   Lc  Abs   --   De 
    719  RTR_DGC2                   0x00000308   Lc  Abs   --   De 
    720  RTR_DGC3                   0x0000030c   Lc  Abs   --   De 
    721  RTR_DGC4                   0x00000310   Lc  Abs   --   De 
    722  RTR_DGC5                   0x00000314   Lc  Abs   --   De 
    723  RTR_DGC6                   0x00000318   Lc  Abs   --   De 
    724  RTR_DGC7                   0x0000031c   Lc  Abs   --   De 
    725  RTR_DGC8                   0x00000320   Lc  Abs   --   De 
    726  RTR_DGC9                   0x00000324   Lc  Abs   --   De 
    727  RTR_DGC10                  0x00000328   Lc  Abs   --   De 
    728  RTR_DGC11                  0x0000032c   Lc  Abs   --   De 
    729  RTR_DGC12                  0x00000330   Lc  Abs   --   De 
    730  RTR_DGC13                  0x00000334   Lc  Abs   --   De 
    731  RTR_DGC14                  0x00000338   Lc  Abs   --   De 
    732  RTR_DGC15                  0x0000033c   Lc  Abs   --   De 
    733  RTR_ALLOC_MAX              0x000003ff   Lc  Abs   --   De 
    734  MC_TABLE_SIZE              0x00000400   Lc  Abs   --   De 
    735  RTR_ALLOC_LAST             0x00000400   Lc  Abs   --   De 
    736  SPARE_SIZE                 0x000005a0   Lc  Abs   --   De 
    737  ETH_TX_SIZE                0x00000600   Lc  Abs   --   De 
    738  ETH_RX_SIZE                0x00000c00   Lc  Abs   --   De 
    739  WD_LOCK                    0x00000c00   Lc  Abs   --   De 
    740  RTR_TST1                   0x00000f00   Lc  Abs   --   De 
    741  RTR_TST2                   0x00000f04   Lc  Abs   --   De 
    742  SV_SIZE                    0x00001000   Lc  Abs   --   De 
    743  P2P_TABLE_SIZE             0x00002000   Lc  Abs   --   De 
    744  APLX_BUFFER                0x00007fc0   Lc  Abs   --   De 
    745  ITCM_SIZE                  0x00008000   Lc  Abs   --   De 
    746  ITCM_TOP                   0x00008000   Lc  Abs   --   De 
    747  ROM_SIZE                   0x00008000   Lc  Abs   --   De 
    748  SRF_PRESENT                0x00008000   Lc  Abs   --   De 
    749  SYSRAM_SIZE                0x00008000   Lc  Abs   --   De 
    750  DTCM_SIZE                  0x00010000   Lc  Abs   --   De 
    751  PKT_MC_PL                  0x00020000   Lc  Abs   --   De 
    752  PKT_PL                     0x00020000   Lc  Abs   --   De 
    753  PLL_260                    0x0007011a   Lc  Abs   --   De 
    754  PLL_300                    0x0007011e   Lc  Abs   --   De 
    755  PLL_330                    0x00070121   Lc  Abs   --   De 
    756  PLL_400                    0x00070128   Lc  Abs   --   De 
    757  DTCM_BASE                  0x00400000   Lc  Abs   --   De 
    758  PKT_P2P                    0x00400000   Lc  Abs   --   De 
    759  DTCM_TOP                   0x00410000   Lc  Abs   --   De 
    760  PKT_P2P_PL                 0x00420000   Lc  Abs   --   De 
    761  PKT_NN                     0x00800000   Lc  Abs   --   De 
    762  PKT_NN_PL                  0x00820000   Lc  Abs   --   De 
    763  PKT_NND                    0x00a00000   Lc  Abs   --   De 
    764  PKT_FR                     0x00c00000   Lc  Abs   --   De 
    765  PKT_FR_PL                  0x00c20000   Lc  Abs   --   De 
    766  P2P_INIT                   0x00db6db6   Lc  Abs   --   De 
    767  MC_RAM_MASK                0x00ffffff   Lc  Abs   --   De 
    768  SDRAM_SIZE                 0x08000000   Lc  Abs   --   De 
    769  CC_BASE_UNBUF              0x10000000   Lc  Abs   --   De 
    770  TIMER_BASE_UNBUF           0x11000000   Lc  Abs   --   De 
    771  WD_CODE                    0x1acce551   Lc  Abs   --   De 
    772  VIC_BASE_UNBUF             0x1f000000   Lc  Abs   --   De 
    773  CC_BASE                    0x20000000   Lc  Abs   --   De 
    774  CC_BASE_BUF                0x20000000   Lc  Abs   --   De 
    775  SDRAM_HERE                 0x20000000   Lc  Abs   --   De 
    776  TIMER1_BASE                0x21000000   Lc  Abs   --   De 
    777  TIMER_BASE                 0x21000000   Lc  Abs   --   De 
    778  TIMER_BASE_BUF             0x21000000   Lc  Abs   --   De 
    779  TIMER2_BASE                0x21000020   Lc  Abs   --   De 
    780  VIC_BASE                   0x2f000000   Lc  Abs   --   De 
    781  VIC_BASE_BUF               0x2f000000   Lc  Abs   --   De 
    782  DMA_BASE_UNBUF             0x30000000   Lc  Abs   --   De 
    783  DMA_BASE                   0x40000000   Lc  Abs   --   De 
    784  DMA_BASE_BUF               0x40000000   Lc  Abs   --   De 
    785  SDRAM_DPD                  0x40000000   Lc  Abs   --   De 
    786  CHIP_ID_CODE               0x59111012   Lc  Abs   --   De 
    787  SC_CODE                    0x5ec00000   Lc  Abs   --   De 
    788  SDRAM_BASE                 0x60000000   Lc  Abs   --   De 
    789  SDRAM_BASE_BUF             0x60000000   Lc  Abs   --   De 
    790  SDRAM_TOP                  0x68000000   Lc  Abs   --   De 
    791  SDRAM_BASE_UNBUF           0x70000000   Lc  Abs   --   De 
    792  BIT_31                     0x80000000   Lc  Abs   --   De 
    793  SDRAM_TQ                   0x80000000   Lc  Abs   --   De 
    794  PLL_CLK_SEL                0x809488a5   Lc  Abs   --   De 
    795  DEAD_WORD                  0xdeaddead   Lc  Abs   --   De 
    796  PL340_BASE                 0xe0000000   Lc  Abs   --   De 
    797  PL340_BASE_BUF             0xe0000000   Lc  Abs   --   De 
    798  RTR_BASE                   0xe1000000   Lc  Abs   --   De 
    799  RTR_BASE_BUF               0xe1000000   Lc  Abs   --   De 
    800  RTR_MCRAM_BASE             0xe1004000   Lc  Abs   --   De 
    801  RTR_MCRAM_TOP              0xe1005000   Lc  Abs   --   De 
    802  RTR_MCKEY_BASE             0xe1008000   Lc  Abs   --   De 
    803  RTR_MCKEY_TOP              0xe1009000   Lc  Abs   --   De 
    804  RTR_MCMASK_BASE            0xe100c000   Lc  Abs   --   De 
    805  RTR_MCMASK_TOP             0xe100d000   Lc  Abs   --   De 
    806  RTR_P2P_BASE               0xe1010000   Lc  Abs   --   De 
    807  RTR_P2P_TOP                0xe1018000   Lc  Abs   --   De 
    808  SYSCTL_BASE                0xe2000000   Lc  Abs   --   De 
    809  SYSCTL_BASE_BUF            0xe2000000   Lc  Abs   --   De 
    810  WDOG_BASE                  0xe3000000   Lc  Abs   --   De 
    811  WDOG_BASE_BUF              0xe3000000   Lc  Abs   --   De 
    812  ETH_BASE                   0xe4000000   Lc  Abs   --   De 
    813  ETH_BASE_BUF               0xe4000000   Lc  Abs   --   De 
    814  ETH_TX_BASE                0xe4000000   Lc  Abs   --   De 
    815  ETH_TX_TOP                 0xe4000600   Lc  Abs   --   De 
    816  ETH_RX_BASE                0xe4004000   Lc  Abs   --   De 
    817  ETH_RX_TOP                 0xe4004c00   Lc  Abs   --   De 
    818  ETH_RX_DESC_RAM            0xe4008000   Lc  Abs   --   De 
    819  ETH_REGS                   0xe400c000   Lc  Abs   --   De 
    820  SYSRAM_BASE                0xe5000000   Lc  Abs   --   De 
    821  SYSRAM_BASE_BUF            0xe5000000   Lc  Abs   --   De 
    822  SYS_USER_BASE              0xe5000100   Lc  Abs   --   De 
    823  SV_VCPU                    0xe5007000   Lc  Abs   --   De 
    824  SYS_USER_TOP               0xe5007000   Lc  Abs   --   De 
    825  SV_SPARE                   0xe5007900   Lc  Abs   --   De 
    826  SV_RANDOM                  0xe5007ea0   Lc  Abs   --   De 
    827  RST_BLOCK_BASE             0xe5007ee0   Lc  Abs   --   De 
    828  SV_VECTORS                 0xe5007ee0   Lc  Abs   --   De 
    829  SV_IBASE                   0xe5007f00   Lc  Abs   --   De 
    830  SV_SV                      0xe5007f00   Lc  Abs   --   De 
    831  STATUS_MAP_BASE            0xe5007f80   Lc  Abs   --   De 
    832  SV_UBASE                   0xe5007f80   Lc  Abs   --   De 
    833  SROM_FLAG_BASE             0xe5007fe0   Lc  Abs   --   De 
    834  SV_SROM                    0xe5007fe0   Lc  Abs   --   De 
    835  SYSRAM_TOP                 0xe5008000   Lc  Abs   --   De 
    836  PL340_BASE_UNBUF           0xf0000000   Lc  Abs   --   De 
    837  RTR_BASE_UNBUF             0xf1000000   Lc  Abs   --   De 
    838  SYSCTL_BASE_UNBUF          0xf2000000   Lc  Abs   --   De 
    839  WDOG_BASE_UNBUF            0xf3000000   Lc  Abs   --   De 
    840  ETH_BASE_UNBUF             0xf4000000   Lc  Abs   --   De 
    841  SYSRAM_BASE_UNBUF          0xf5000000   Lc  Abs   --   De 
    842  ROM_BASE                   0xf6000000   Lc  Abs   --   De 
    843  ROM_TOP                    0xf6008000   Lc  Abs   --   De 
    844  spin1_api.c                0x00000000   Lc  Abs  File  De 
    845  i.barrier_setup            0x00002a98   Lc    1  Sect  De   0x144
    846  barrier_setup              0x00002a99   Lc    1  Code  De   0x134
    847  i.barrier_wait             0x00002bdc   Lc    1  Sect  De   0x284
    848  barrier_wait               0x00002bdd   Lc    1  Code  De   0x150
    849  i.clean_up                 0x00002f40   Lc    1  Sect  De   0x5c
    850  i.configure_vic            0x00002f9c   Lc    1  Sect  De   0xa8
    851  configure_vic              0x00002f9d   Lc    1  Code  De   0x72
    852  i.dispatch                 0x00003044   Lc    1  Sect  De   0x80
    853  dispatch                   0x00003045   Lc    1  Code  De   0x76
    854  i.report_warns             0x000036e8   Lc    1  Sect  De   0xd4
    855  i.sark_config              0x00003a28   Lc    1  Sect  De   0x8
    856  i.sark_post_main           0x00003dc4   Lc    1  Sect  De   0x28
    857  i.sark_pre_main            0x00003dec   Lc    1  Sect  De   0x110
    858  i.schedule_sysmode         0x00004084   Lc    1  Sect  De   0x7c
    859  i.send_mc_packet_fulfil    0x00004100   Lc    1  Sect  De   0xe
    860  i.spin1_callback_on        0x000041c0   Lc    1  Sect  De   0x80
    861  i.spin1_delay_us           0x00004240   Lc    1  Sect  De   0x8
    862  i.spin1_get_chip_id        0x00004248   Lc    1  Sect  De   0xc
    863  i.spin1_get_core_id        0x00004254   Lc    1  Sect  De   0xc
    864  i.spin1_kill               0x00004268   Lc    1  Sect  De   0x24
    865  i.spin1_malloc             0x0000428c   Lc    1  Sect  De   0xa
    866  i.spin1_memcpy             0x00004296   Lc    1  Sect  De   0x10
    867  i.spin1_schedule_callback  0x000042b0   Lc    1  Sect  De   0x74
    868  i.spin1_send_mc_packet     0x00004324   Lc    1  Sect  De   0x100
    869  i.spin1_send_sdp_msg       0x00004424   Lc    1  Sect  De   0x8
    870  i.spin1_set_core_map       0x0000442c   Lc    1  Sect  De   0x8c
    871  i.spin1_set_timer_tick     0x000044b8   Lc    1  Sect  De   0xc
    872  i.spin1_start              0x000044c4   Lc    1  Sect  De   0xc4
    873  i.spin1_stop               0x00004590   Lc    1  Sect  De   0x1c
    874  .bss                       0x004004a4   Lc    3  Sect  De   0x584
    875  task_queue                 0x004006b4   Lc    3  Data  De   0x320
    876  .data                      0x00400100   Lc    2  Sect  De   0x60
    877  rootChip                   0x00400102   Lc    2  Data  De   0x1
    878  rootAddr                   0x00400104   Lc    2  Data  De   0x2
    879  my_chip                    0x00400108   Lc    2  Data  De   0x4
    880  run                        0x0040010c   Lc    2  Data  De   0x4
    881  timer_tick                 0x00400114   Lc    2  Data  De   0x4
    882  nchips                     0x00400118   Lc    2  Data  De   0x4
    883  ncores                     0x0040011c   Lc    2  Data  De   0x4
    884  my_ncores                  0x00400120   Lc    2  Data  De   0x4
    885  dma_id                     0x00400134   Lc    2  Data  De   0x4
    886  warnings                   0x00400150   Lc    2  Data  De   0x4
    887  fullq                      0x00400154   Lc    2  Data  De   0x4
    888  pfull                      0x00400158   Lc    2  Data  De   0x4
    889  dfull                      0x0040015c   Lc    2  Data  De   0x4
    890  spin1_isr.c                0x00000000   Lc  Abs  File  De 
    891  i.barrier_packet_handler   0x000029f4   Lc    1  Sect  De   0xa4
    892  i.cc_rx_ready_fiqsr        0x00002e60   Lc    1  Sect  De   0x28
    893  i.cc_rx_ready_isr          0x00002e88   Lc    1  Sect  De   0x3c
    894  i.cc_tx_empty_isr          0x00002ec4   Lc    1  Sect  De   0x7c
    895  i.dma_done_fiqsr           0x000030c4   Lc    1  Sect  De   0x7c
    896  i.dma_done_isr             0x00003140   Lc    1  Sect  De   0x90
    897  i.soft_int_fiqsr           0x00004110   Lc    1  Sect  De   0x50
    898  i.soft_int_isr             0x00004160   Lc    1  Sect  De   0x60
    899  i.timer1_fiqsr             0x000045ac   Lc    1  Sect  De   0x44
    900  i.timer1_isr               0x000045f0   Lc    1  Sect  De   0x54
    901  dc.s                       0x00000000   Lc  Abs  File  De 
    902  ../../longlong.s           0x00000000   Lc  Abs  File  De 
    903  .text                      0x00002474   Lc    1  Sect  De   0x50
    904  ../../longlong.s           0x00000000   Lc  Abs  File  De 
    905  .text                      0x000024c4   Lc    1  Sect  De   0x2f0
    906  ../../angel/rt.s           0x00000000   Lc  Abs  File  De 
    907  ../../angel/rt.s           0x00000000   Lc  Abs  File  De 
    908  ../../angel/rt.s           0x00000000   Lc  Abs  File  De 
    909  ../../signal.c             0x00000000   Lc  Abs  File  De 
    910  ../../signal.c             0x00000000   Lc  Abs  File  De 
    911  ../../angel/rt.s           0x00000000   Lc  Abs  File  De 
    912  ../../signal.c             0x00000000   Lc  Abs  File  De 
    913  ../../signal.c             0x00000000   Lc  Abs  File  De 
    914  ../../angel/sys.s          0x00000000   Lc  Abs  File  De 
    915  ../../signal.c             0x00000000   Lc  Abs  File  De 
    916  ../../signal.c             0x00000000   Lc  Abs  File  De 
    917  ../../angel/sysapp.c       0x00000000   Lc  Abs  File  De 
    918  ../../angel/sys.s          0x00000000   Lc  Abs  File  De 
    919  ../../signal.s             0x00000000   Lc  Abs  File  De 
    920  ../../signal.c             0x00000000   Lc  Abs  File  De 
    921  ../../signal.c             0x00000000   Lc  Abs  File  De 
    922  ../../signal.c             0x00000000   Lc  Abs  File  De 
    923  ../../signal.c             0x00000000   Lc  Abs  File  De 
    924  ../../signal.c             0x00000000   Lc  Abs  File  De 
    925  ../../signal.c             0x00000000   Lc  Abs  File  De 
    926  ../../signal.c             0x00000000   Lc  Abs  File  De 
    927  ../../signal.c             0x00000000   Lc  Abs  File  De 
    928  BuildAttributes$$THM_ISAv2$ARM_ISAv5$E$P$S$PE$A:L22$X:L11$S22$IEEE1$IW$USESV6$~STKCKD$USESV7$~SHL$OSPACE$ROPI$EBA8$STANDARDLIB$REQ8$PRES8$EABIv2
                                    0x00000000   Gb  Abs   --   Hi 
    929  Image$$ITCM$$RO$$Base      0x00000000   Gb    1   --   Hi 
    930  cpu_reset                  0x00000000   Gb    1  Code  Hi   0x4
    931  vic_error                  0x00000104   Gb    1  Code  Hi   0x4
    932  rt_error                   0x00000128   Gb    1  Code  Hi   0x4
    933  Image$$DTCM$$RW$$Length    0x00000160   Gb  Abs   --   Hi 
    934  cpu_shutdown               0x00000168   Gb    1  Code  Hi   0x10
    935  cpu_sleep                  0x00000178   Gb    1  Code  Hi   0x8
    936  init                       0x0000018c   Gb    1  Code  Hi   0x170
    937  done                       0x000002fc   Gb    1  Code  Hi   0x38c
    938  timeout                    0x00000688   Gb    1  Code  Hi   0x18
    939  c_main                     0x000006a0   Gb    1  Code  Hi   0x1e8
    940  Image$$STACK$$ZI$$Length   0x00000800   Gb  Abs   --   Hi 
    941  t_init                     0x00000888   Gb    1  Code  Hi   0x3c8
    942  Image$$DTCM$$ZI$$Length    0x000008c8   Gb  Abs   --   Hi 
    943  t_backpropPacket           0x00000d10   Gb    1  Code  Hi   0x94
    944  t_forwardPacket            0x00000da4   Gb    1  Code  Hi   0x90
    945  send_outputs_to_host       0x00000e34   Gb    1  Code  Hi   0xd0
    946  t_syncPacket               0x00000f04   Gb    1  Code  Hi   0xb8
    947  t_receivePacket            0x00000fbc   Gb    1  Code  Hi   0x174
    948  send_info_to_host          0x00001130   Gb    1  Code  Hi   0x60
    949  sigmoid                    0x00001198   Gb    1  Code  Hi   0x80
    950  sigmoid_prime              0x00001218   Gb    1  Code  Hi   0x34
    951  inv_sigmoid                0x0000124c   Gb    1  Code  Hi   0xa4
    952  t_init_outputs             0x00001300   Gb    1  Code  Hi   0x9c
    953  t_advance_example          0x0000139c   Gb    1  Code  Hi   0x160
    954  t_switch_to_fw             0x000014fc   Gb    1  Code  Hi   0x54
    955  tb_advance_tick            0x00001550   Gb    1  Code  Hi   0x54
    956  compute_out_back           0x000015a4   Gb    1  Code  Hi   0x44
    957  tb_process                 0x000015e8   Gb    1  Code  Hi   0x16c
    958  t_init_deltas              0x00001754   Gb    1  Code  Hi   0xd4
    959  t_switch_to_bp             0x00001828   Gb    1  Code  Hi   0x6c
    960  tf_advance_event           0x00001894   Gb    1  Code  Hi   0x1d0
    961  tf_advance_tick            0x00001a64   Gb    1  Code  Hi   0xd0
    962  tf_send_stop               0x00001b34   Gb    1  Code  Hi   0xcc
    963  store_output_deriv         0x00001c00   Gb    1  Code  Hi   0x4
    964  compute_out                0x00001c04   Gb    1  Code  Hi   0x84
    965  tf_process                 0x00001c88   Gb    1  Code  Hi   0x1c8
    966  store_outputs              0x00001e50   Gb    1  Code  Hi   0x4
    967  store_targets              0x00001e54   Gb    1  Code  Hi   0x4
    968  out_logistic               0x00001e58   Gb    1  Code  Hi   0x2c
    969  out_integr                 0x00001e84   Gb    1  Code  Hi   0xb4
    970  out_hard_clamp             0x00001f38   Gb    1  Code  Hi   0x34
    971  out_bias                   0x00001f6c   Gb    1  Code  Hi   0x18
    972  out_weak_clamp             0x00001f84   Gb    1  Code  Hi   0xbc
    973  out_logistic_back          0x00002040   Gb    1  Code  Hi   0x50
    974  out_integr_back            0x00002090   Gb    1  Code  Hi   0x4
    975  out_hard_clamp_back        0x00002094   Gb    1  Code  Hi   0x4
    976  out_weak_clamp_back        0x00002098   Gb    1  Code  Hi   0x4
    977  out_bias_back              0x0000209c   Gb    1  Code  Hi   0x1c
    978  init_out_integr            0x000020b8   Gb    1  Code  Hi   0x54
    979  init_out_hard_clamp        0x0000210c   Gb    1  Code  Hi   0x8
    980  init_out_weak_clamp        0x00002114   Gb    1  Code  Hi   0x8
    981  std_stop_crit              0x0000211c   Gb    1  Code  Hi   0x64
    982  max_stop_crit              0x00002180   Gb    1  Code  Hi   0xbc
    983  error_squared              0x0000223c   Gb    1  Code  Hi   0x6c
    984  error_cross_entropy        0x000022a8   Gb    1  Code  Hi   0x170
    985  __aeabi_ldivmod            0x00002474   Gb    1  Code  Hi 
    986  _ll_sdiv                   0x00002474   Gb    1  Code  De   0x50
    987  __aeabi_uldivmod           0x000024c4   Gb    1  Code  De 
    988  _ll_udiv                   0x000024c4   Gb    1  Code  De   0x2f0
    989  _ll_udiv_donemoving        0x000024d8   Gb    1  Code  De 
    990  sark_aplx                  0x000027b5   Gb    1  Code  Hi   0x58
    991  sark_delay_us              0x0000280d   Gb    1  Code  Hi   0xe
    992  sark_div10                 0x00002820   Gb    1  Code  Hi   0x30
    993  cpu_init_mode              0x00002850   Gb    1  Code  Hi   0x18
    994  cpu_int_disable            0x00002868   Gb    1  Code  Hi   0x10
    995  spin1_int_disable          0x00002868   Gb    1  Code  Hi 
    996  cpu_int_restore            0x00002878   Gb    1  Code  Hi   0x8
    997  spin1_mode_restore         0x00002878   Gb    1  Code  Hi 
    998  cpu_irq_disable            0x00002880   Gb    1  Code  Hi   0x10
    999  spin1_irq_disable          0x00002880   Gb    1  Code  Hi 
    1000  cpu_irq_enable             0x00002890   Gb    1  Code  Hi   0x10
    1001  spin1_irq_enable           0x00002890   Gb    1  Code  Hi 
    1002  sark_lock_get              0x000028a0   Gb    1  Code  Hi   0x24
    1003  sark_lock_free             0x000028c4   Gb    1  Code  Hi   0x14
    1004  sark_int_han               0x000028d8   Gb    1  Code  Hi   0x30
    1005  null_int_han               0x00002908   Gb    1  Code  Hi   0x4
    1006  schedule                   0x0000290c   Gb    1  Code  Hi   0x2c
    1007  sark_str_cpy               0x00002938   Gb    1  Code  Hi   0x14
    1008  cpu_wfi                    0x0000294c   Gb    1  Code  Hi   0x8
    1009  spin1_wfi                  0x0000294c   Gb    1  Code  Hi 
    1010  sark_msg_cpy               0x00002954   Gb    1  Code  Hi   0x10
    1011  sark_word_cpy              0x00002964   Gb    1  Code  Hi   0x54
    1012  sark_word_set              0x000029b8   Gb    1  Code  Hi   0x24
    1013  __ARM_common_switch8       0x000029dc   Gb    1  Code  Hi   0x18
    1014  barrier_packet_handler     0x000029f4   Gb    1  Code  Hi   0x88
    1015  cc_rx_ready_fiqsr          0x00002e60   Gb    1  Code  Hi   0x24
    1016  cc_rx_ready_isr            0x00002e88   Gb    1  Code  Hi   0x38
    1017  cc_tx_empty_isr            0x00002ec4   Gb    1  Code  Hi   0x78
    1018  clean_up                   0x00002f41   Gb    1  Code  Hi   0x48
    1019  dma_done_fiqsr             0x000030c4   Gb    1  Code  Hi   0x74
    1020  dma_done_isr               0x00003140   Gb    1  Code  Hi   0x88
    1021  event_alloc                0x000031d1   Gb    1  Code  Hi   0x3a
    1022  event_pause                0x00003211   Gb    1  Code  Hi   0x28
    1023  event_stop                 0x00003241   Gb    1  Code  Hi   0x12
    1024  $Ven$AT$I$$io_printf       0x000032b0   Gb    1  Code  Hi   0x8
    1025  io_printf                  0x000032b9   Gb    1  Code  Hi   0x1f4
    1026  io_put_char                0x000034b5   Gb    1  Code  Hi   0xd4
    1027  report_warns               0x000036e9   Gb    1  Code  Hi   0x48
    1028  rte_handler                0x000037bd   Wk    1  Code  Hi   0x8
    1029  rtr_alloc                  0x000037c9   Gb    1  Code  Hi   0x86
    1030  rtr_mc_set                 0x00003855   Gb    1  Code  Hi   0x56
    1031  rtr_p2p_get                0x000038bd   Gb    1  Code  Hi   0x26
    1032  sark_alloc                 0x000038e9   Gb    1  Code  Hi   0x12
    1033  sark_block_init            0x00003901   Gb    1  Code  Hi   0x12
    1034  sark_cmd_fill              0x00003913   Gb    1  Code  Hi   0xe
    1035  sark_cmd_read              0x00003921   Gb    1  Code  Hi   0x5e
    1036  sark_cmd_ver               0x00003981   Gb    1  Code  Hi   0x2c
    1037  sark_cmd_write             0x000039cd   Gb    1  Code  Hi   0x5c
    1038  sark_config                0x00003a29   Gb    1  Code  Hi   0x8
    1039  sark_heap_init             0x00003a31   Gb    1  Code  Hi   0x18
    1040  sark_init                  0x00003a49   Wk    1  Code  Hi   0xc4
    1041  sark_int                   0x00003b25   Gb    1  Code  Hi   0x150
    1042  sark_led_set               0x00003c85   Gb    1  Code  Hi   0x4c
    1043  sark_msg_free              0x00003cd9   Gb    1  Code  Hi   0x1c
    1044  sark_msg_get               0x00003cf9   Gb    1  Code  Hi   0x2e
    1045  sark_msg_send              0x00003d2d   Gb    1  Code  Hi   0x8a
    1046  sark_post_main             0x00003dc5   Gb    1  Code  Hi   0x1c
    1047  sark_pre_main              0x00003ded   Gb    1  Code  Hi   0xae
    1048  sark_shmsg_free            0x00003efd   Gb    1  Code  Hi   0x20
    1049  sark_shmsg_get             0x00003f21   Gb    1  Code  Hi   0x30
    1050  sark_vic_init              0x00003f55   Gb    1  Code  Hi   0x30
    1051  sark_vic_set               0x00003f95   Gb    1  Code  Hi   0x24
    1052  sark_xalloc                0x00003fc1   Gb    1  Code  Hi   0xc0
    1053  schedule_sysmode           0x00004085   Gb    1  Code  Hi   0x6e
    1054  send_mc_packet_fulfil      0x00004101   Gb    1  Code  Hi   0xe
    1055  soft_int_fiqsr             0x00004110   Gb    1  Code  Hi   0x40
    1056  soft_int_isr               0x00004160   Gb    1  Code  Hi   0x50
    1057  spin1_callback_on          0x000041c1   Gb    1  Code  Hi   0x44
    1058  spin1_delay_us             0x00004241   Gb    1  Code  Hi   0x8
    1059  spin1_get_chip_id          0x00004249   Gb    1  Code  Hi   0x6
    1060  spin1_get_core_id          0x00004255   Gb    1  Code  Hi   0x6
    1061  $Ven$AT$I$$spin1_kill      0x00004260   Gb    1  Code  Hi   0x8
    1062  spin1_kill                 0x00004269   Gb    1  Code  Hi   0x1c
    1063  spin1_malloc               0x0000428d   Gb    1  Code  Hi   0xa
    1064  spin1_memcpy               0x00004297   Gb    1  Code  Hi   0x10
    1065  $Ven$AT$I$$spin1_schedule_callback
                                    0x000042a8   Gb    1  Code  Hi   0x8
    1066  spin1_schedule_callback    0x000042b1   Gb    1  Code  Hi   0x6c
    1067  spin1_send_mc_packet       0x00004325   Gb    1  Code  Hi   0xf6
    1068  spin1_send_sdp_msg         0x00004425   Gb    1  Code  Hi   0x8
    1069  spin1_set_core_map         0x0000442d   Gb    1  Code  Hi   0x82
    1070  spin1_set_timer_tick       0x000044b9   Gb    1  Code  Hi   0x6
    1071  spin1_start                0x000044c5   Gb    1  Code  Hi   0xa6
    1072  $Ven$AT$I$$spin1_stop      0x00004588   Gb    1  Code  Hi   0x8
    1073  spin1_stop                 0x00004591   Gb    1  Code  Hi   0x12
    1074  timer1_fiqsr               0x000045ac   Gb    1  Code  Hi   0x3c
    1075  timer1_isr                 0x000045f0   Gb    1  Code  Hi   0x4c
    1076  v2p_mask                   0x00004645   Gb    1  Code  Hi   0x26
    1077  t_out_procs                0x00004670   Gb    1  Data  Hi   0x14
    1078  t_out_back_procs           0x00004684   Gb    1  Data  Hi   0x14
    1079  t_init_out_procs           0x00004698   Gb    1  Data  Hi   0x14
    1080  t_stop_procs               0x000046ac   Gb    1  Data  Hi   0xc
    1081  t_out_error                0x000046b8   Gb    1  Data  Hi   0xc
    1082  sigmoid_lut                0x00004880   Gb    1  Data  Hi   0x200
    1083  sigmoid_prime_lut          0x00004a80   Gb    1  Data  Hi   0x200
    1084  inv_sigmoid_lut            0x00004c80   Gb    1  Data  Hi   0x400
    1085  build_date                 0x00005080   Gb    1  Data  Hi   0x4
    1086  build_name                 0x00005084   Gb    1  Data  Hi   0xa
    1087  Image$$ITCM$$RO$$Length    0x000050a8   Gb  Abs   --   Hi 
    1088  Image$$DTCM$$RW$$Base      0x00400000   Gb    2   --   Hi 
    1089  phase                      0x00400000   Gb    2  Data  Hi   0x1
    1090  t_active                   0x00400001   Gb    2  Data  Hi   0x1
    1091  t_sync_done                0x00400002   Gb    2  Data  Hi   0x1
    1092  pkt_sent                   0x00400004   Gb    2  Data  Hi   0x4
    1093  sent_fwd                   0x00400008   Gb    2  Data  Hi   0x4
    1094  sent_bkp                   0x0040000c   Gb    2  Data  Hi   0x4
    1095  pkt_recv                   0x00400010   Gb    2  Data  Hi   0x4
    1096  recv_fwd                   0x00400014   Gb    2  Data  Hi   0x4
    1097  recv_bkp                   0x00400018   Gb    2  Data  Hi   0x4
    1098  spk_sent                   0x0040001c   Gb    2  Data  Hi   0x4
    1099  spk_recv                   0x00400020   Gb    2  Data  Hi   0x4
    1100  stp_sent                   0x00400024   Gb    2  Data  Hi   0x4
    1101  stp_recv                   0x00400028   Gb    2  Data  Hi   0x4
    1102  wrng_phs                   0x0040002c   Gb    2  Data  Hi   0x4
    1103  wrng_tck                   0x00400030   Gb    2  Data  Hi   0x4
    1104  wrng_btk                   0x00400034   Gb    2  Data  Hi   0x4
    1105  tot_tick                   0x00400038   Gb    2  Data  Hi   0x4
    1106  chipID                     0x0040003c   Gb    2  Data  Hi   0x4
    1107  coreID                     0x00400040   Gb    2  Data  Hi   0x4
    1108  coreIndex                  0x00400044   Gb    2  Data  Hi   0x4
    1109  stpKey                     0x00400048   Gb    2  Data  Hi   0x4
    1110  coreType                   0x0040004c   Gb    2  Data  Hi   0x4
    1111  epoch                      0x00400050   Gb    2  Data  Hi   0x4
    1112  example                    0x00400054   Gb    2  Data  Hi   0x4
    1113  evt                        0x00400058   Gb    2  Data  Hi   0x4
    1114  num_events                 0x0040005c   Gb    2  Data  Hi   0x4
    1115  event_idx                  0x00400060   Gb    2  Data  Hi   0x4
    1116  tick                       0x00400064   Gb    2  Data  Hi   0x4
    1117  cm                         0x00400068   Gb    2  Data  Hi   0x4
    1118  ct                         0x0040006c   Gb    2  Data  Hi   0x4
    1119  dt                         0x00400070   Gb    2  Data  Hi   0x4
    1120  rt                         0x00400074   Gb    2  Data  Hi   0x4
    1121  es                         0x00400078   Gb    2  Data  Hi   0x4
    1122  ex                         0x0040007c   Gb    2  Data  Hi   0x4
    1123  ev                         0x00400080   Gb    2  Data  Hi   0x4
    1124  it                         0x00400084   Gb    2  Data  Hi   0x4
    1125  tt                         0x00400088   Gb    2  Data  Hi   0x4
    1126  t_arrived                  0x0040008c   Gb    2  Data  Hi   0x4
    1127  t_sync_arr                 0x00400090   Gb    2  Data  Hi   0x4
    1128  fwdKey                     0x00400094   Gb    2  Data  Hi   0x4
    1129  bkpKey                     0x00400098   Gb    2  Data  Hi   0x4
    1130  num_ticks                  0x0040009c   Gb    2  Data  Hi   0x4
    1131  max_ticks                  0x004000a0   Gb    2  Data  Hi   0x4
    1132  min_ticks                  0x004000a4   Gb    2  Data  Hi   0x4
    1133  ev_tick                    0x004000a8   Gb    2  Data  Hi   0x4
    1134  tick_stop                  0x004000ac   Gb    2  Data  Hi   0x1
    1135  t_outputs                  0x004000b0   Gb    2  Data  Hi   0x4
    1136  t_nets                     0x004000b4   Gb    2  Data  Hi   0x4
    1137  t_errors                   0x004000b8   Gb    2  Data  Hi   0x4
    1138  t_last_integr_output       0x004000bc   Gb    2  Data  Hi   0x4
    1139  t_hard_clamp_en            0x004000c0   Gb    2  Data  Hi   0x1
    1140  t_it_idx                   0x004000c4   Gb    2  Data  Hi   0x4
    1141  t_tot_ticks                0x004000c8   Gb    2  Data  Hi   0x4
    1142  tf_thrds_init              0x004000cc   Gb    2  Data  Hi   0x4
    1143  tf_thrds_done              0x004000d0   Gb    2  Data  Hi   0x4
    1144  tf_stop_prev               0x004000d4   Gb    2  Data  Hi   0x1
    1145  tf_stop_crit               0x004000d5   Gb    2  Data  Hi   0x1
    1146  tf_stop_init               0x004000d6   Gb    2  Data  Hi   0x1
    1147  tf_stop_done               0x004000d7   Gb    2  Data  Hi   0x1
    1148  tf_stop_func               0x004000d8   Gb    2  Data  Hi   0x4
    1149  tf_stop_key                0x004000dc   Gb    2  Data  Hi   0x4
    1150  t_max_output_unit          0x004000e0   Gb    2  Data  Hi   0x4
    1151  t_max_target_unit          0x004000e4   Gb    2  Data  Hi   0x4
    1152  t_max_output               0x004000e8   Gb    2  Data  Hi   0x2
    1153  t_max_target               0x004000ea   Gb    2  Data  Hi   0x2
    1154  t_output_deriv             0x004000ec   Gb    2  Data  Hi   0x4
    1155  user_pending               0x00400100   Gb    2  Data  Hi   0x1
    1156  leadAp                     0x00400101   Gb    2  Data  Hi   0x1
    1157  ticks                      0x00400110   Gb    2  Data  Hi   0x4
    1158  exit_val                   0x00400124   Gb    2  Data  Hi   0x4
    1159  barrier_go                 0x00400128   Gb    2  Data  Hi   0x4
    1160  barrier_rdygo              0x0040012c   Gb    2  Data  Hi   0x4
    1161  fiq_event                  0x00400130   Gb    2  Data  Hi   0x4
    1162  barrier_rdy1_cnt           0x00400138   Gb    2  Data  Hi   0x4
    1163  barrier_rdy2_cnt           0x0040013c   Gb    2  Data  Hi   0x4
    1164  def_fiq_isr                0x00400140   Gb    2  Data  Hi   0x4
    1165  rtr_entry                  0x00400144   Gb    2  Data  Hi   0x4
    1166  user_arg0                  0x00400148   Gb    2  Data  Hi   0x4
    1167  user_arg1                  0x0040014c   Gb    2  Data  Hi   0x4
    1168  Image$$DTCM$$ZI$$Base      0x00400160   Gb    3   --   Hi 
    1169  mlpc                       0x00400160   Gb    3  Data  Hi   0x24
    1170  ccfg                       0x00400184   Gb    3  Data  Hi   0x70
    1171  tcfg                       0x004001f4   Gb    3  Data  Hi   0x78
    1172  t_net_pkt_q                0x0040026c   Gb    3  Data  Hi   0xc
    1173  t_err_pkt_q                0x00400278   Gb    3  Data  Hi   0xc
    1174  t_sdp_msg                  0x00400284   Gb    3  Data  Hi   0x124
    1175  sark                       0x004003d0   Gb    3  Data  Hi   0x38
    1176  event                      0x00400408   Gb    3  Data  Hi   0x9c
    1177  dma_queue                  0x004004a4   Gb    3  Data  Hi   0x148
    1178  tx_packet_queue            0x004005ec   Gb    3  Data  Hi   0xc8
    1179  callback                   0x004009d4   Gb    3  Data  Hi   0x28
    1180  diagnostics                0x004009fc   Gb    3  Data  Hi   0x2c
    1181  Image$$DTCM$$ZI$$Limit     0x00400a28   Gb    3   --   Hi 
    1182  Image$$STACK$$ZI$$Limit    0x00410000   Gb    4   --   Hi 


** Section #7 '.strtab' (SHT_STRTAB)
    Size   : 11240 bytes


** Section #8 '.note' (SHT_NOTE)
    Size   : 32 bytes (alignment 4)


** Section #9 '.comment' (SHT_PROGBITS)
    Size   : 1360 bytes


** Section #10 '.shstrtab' (SHT_STRTAB)
    Size   : 72 bytes


